  40755c:	48 8b 05 1d 2a 23 00 	mov    0x232a1d(%rip),%rax        # 639f80 <_DYNAMIC+0x248>
  407563:	48 85 c0             	test   %rax,%rax
  407566:	74 05                	je     40756d <_init+0x15>
  407568:	e8 e3 00 00 00       	callq  407650 <__gmon_start__@plt>
  40756d:	48 83 c4 08          	add    $0x8,%rsp
  407571:	c3                   	retq   
--
00000000004076c0 <_ZN5boost15program_options19options_description11add_optionsEv@plt>:
  4076c0:	ff 25 ea 29 23 00    	jmpq   *0x2329ea(%rip)        # 63a0b0 <_GLOBAL_OFFSET_TABLE_+0xb0>
  4076c6:	68 13 00 00 00       	pushq  $0x13
  4076cb:	e9 b0 fe ff ff       	jmpq   407580 <_init+0x28>

00000000004076d0 <__cxa_rethrow@plt>:
--
  407cf2:	48 8d 15 c7 26 23 00 	lea    0x2326c7(%rip),%rdx        # 63a3c0 <__dso_handle>
  407cf9:	e8 a2 fa ff ff       	callq  4077a0 <__cxa_atexit@plt>
  407cfe:	89 45 fc             	mov    %eax,-0x4(%rbp)
  407d01:	48 83 c4 10          	add    $0x10,%rsp
  407d05:	5d                   	pop    %rbp
  407d06:	c3                   	retq   
--
  407d10:	55                   	push   %rbp
  407d11:	48 89 e5             	mov    %rsp,%rbp
  407d14:	e8 a7 ff ff ff       	callq  407cc0 <_ZN5boost6system16generic_categoryEv@plt>
  407d19:	48 89 05 d0 26 23 00 	mov    %rax,0x2326d0(%rip)        # 63a3f0 <_ZN5boost6systemL14posix_categoryE>
  407d20:	5d                   	pop    %rbp
  407d21:	c3                   	retq   
--
  407d30:	55                   	push   %rbp
  407d31:	48 89 e5             	mov    %rsp,%rbp
  407d34:	e8 87 ff ff ff       	callq  407cc0 <_ZN5boost6system16generic_categoryEv@plt>
  407d39:	48 89 05 b8 26 23 00 	mov    %rax,0x2326b8(%rip)        # 63a3f8 <_ZN5boost6systemL10errno_ecatE>
  407d40:	5d                   	pop    %rbp
  407d41:	c3                   	retq   
--
  407d50:	55                   	push   %rbp
  407d51:	48 89 e5             	mov    %rsp,%rbp
  407d54:	e8 d7 fa ff ff       	callq  407830 <_ZN5boost6system15system_categoryEv@plt>
  407d59:	48 89 05 a0 26 23 00 	mov    %rax,0x2326a0(%rip)        # 63a400 <_ZN5boost6systemL11native_ecatE>
  407d60:	5d                   	pop    %rbp
  407d61:	c3                   	retq   
--
  407d74:	e8 57 00 00 00       	callq  407dd0 <__cxx_global_var_init166>
  407d79:	e8 32 00 00 00       	callq  407db0 <__cxx_global_var_init133>
  407d7e:	e8 0d 00 00 00       	callq  407d90 <__cxx_global_var_init22>
  407d83:	e8 a8 00 00 00       	callq  407e30 <__cxx_global_var_init3611>
  407d88:	5d                   	pop    %rbp
  407d89:	c3                   	retq   
--
  407d90:	55                   	push   %rbp
  407d91:	48 89 e5             	mov    %rsp,%rbp
  407d94:	e8 27 ff ff ff       	callq  407cc0 <_ZN5boost6system16generic_categoryEv@plt>
  407d99:	48 89 05 58 26 23 00 	mov    %rax,0x232658(%rip)        # 63a3f8 <_ZN5boost6systemL10errno_ecatE>
  407da0:	5d                   	pop    %rbp
  407da1:	c3                   	retq   
--
  407db0:	55                   	push   %rbp
  407db1:	48 89 e5             	mov    %rsp,%rbp
  407db4:	e8 07 ff ff ff       	callq  407cc0 <_ZN5boost6system16generic_categoryEv@plt>
  407db9:	48 89 05 30 26 23 00 	mov    %rax,0x232630(%rip)        # 63a3f0 <_ZN5boost6systemL14posix_categoryE>
  407dc0:	5d                   	pop    %rbp
  407dc1:	c3                   	retq   
--
  407df2:	48 8d 15 c7 25 23 00 	lea    0x2325c7(%rip),%rdx        # 63a3c0 <__dso_handle>
  407df9:	e8 a2 f9 ff ff       	callq  4077a0 <__cxa_atexit@plt>
  407dfe:	89 45 fc             	mov    %eax,-0x4(%rbp)
  407e01:	48 83 c4 10          	add    $0x10,%rsp
  407e05:	5d                   	pop    %rbp
  407e06:	c3                   	retq   
--
  407e14:	e8 b7 ff ff ff       	callq  407dd0 <__cxx_global_var_init166>
  407e19:	e8 92 ff ff ff       	callq  407db0 <__cxx_global_var_init133>
  407e1e:	e8 6d ff ff ff       	callq  407d90 <__cxx_global_var_init22>
  407e23:	e8 08 00 00 00       	callq  407e30 <__cxx_global_var_init3611>
  407e28:	5d                   	pop    %rbp
  407e29:	c3                   	retq   
--
  407e30:	55                   	push   %rbp
  407e31:	48 89 e5             	mov    %rsp,%rbp
  407e34:	e8 f7 f9 ff ff       	callq  407830 <_ZN5boost6system15system_categoryEv@plt>
  407e39:	48 89 05 c0 25 23 00 	mov    %rax,0x2325c0(%rip)        # 63a400 <_ZN5boost6systemL11native_ecatE>
  407e40:	5d                   	pop    %rbp
  407e41:	c3                   	retq   
--
  407e76:	48 2d e0 a3 63 00    	sub    $0x63a3e0,%rax
  407e7c:	48 83 f8 0e          	cmp    $0xe,%rax
  407e80:	48 89 e5             	mov    %rsp,%rbp
  407e83:	77 02                	ja     407e87 <deregister_tm_clones+0x17>
  407e85:	5d                   	pop    %rbp
  407e86:	c3                   	retq   
--
  407eb6:	48 c1 ea 3f          	shr    $0x3f,%rdx
  407eba:	48 01 d0             	add    %rdx,%rax
  407ebd:	48 d1 f8             	sar    %rax
  407ec0:	75 02                	jne    407ec4 <register_tm_clones+0x24>
  407ec2:	5d                   	pop    %rbp
  407ec3:	c3                   	retq   
--
  407ee9:	55                   	push   %rbp
  407eea:	48 89 e5             	mov    %rsp,%rbp
  407eed:	e8 7e ff ff ff       	callq  407e70 <deregister_tm_clones>
  407ef2:	5d                   	pop    %rbp
  407ef3:	c6 05 e6 24 23 00 01 	movb   $0x1,0x2324e6(%rip)        # 63a3e0 <__TMC_END__>
  407efa:	f3 c3                	repz retq 
--
  407f6e:	48 8d 7d e8          	lea    -0x18(%rbp),%rdi
  407f72:	e8 09 2c 00 00       	callq  40ab80 <_ZL10RunServiceR6Config634>
  407f77:	31 c0                	xor    %eax,%eax
  407f79:	48 83 c4 20          	add    $0x20,%rsp
  407f7d:	5d                   	pop    %rbp
  407f7e:	c3                   	retq   
--
  408b14:	e8 47 a3 01 00       	callq  422e60 <_ZN5boost15program_options19options_descriptionD2Ev500>
  408b19:	48 8d bd 78 fe ff ff 	lea    -0x188(%rbp),%rdi
  408b20:	e8 7b f0 ff ff       	callq  407ba0 <_ZNSt18basic_stringstreamIcSt11char_traitsIcESaIcEED1Ev@plt>
  408b25:	48 81 c4 10 07 00 00 	add    $0x710,%rsp
  408b2c:	5d                   	pop    %rbp
  408b2d:	c3                   	retq   
--
  4093f3:	e9 05 00 00 00       	jmpq   4093fd <_ZL10RunServiceR6Config+0x81d>
  4093f8:	e9 d5 ff ff ff       	jmpq   4093d2 <_ZL10RunServiceR6Config+0x7f2>
  4093fd:	e9 d0 fc ff ff       	jmpq   4090d2 <_ZL10RunServiceR6Config+0x4f2>
  409402:	48 81 c4 70 02 00 00 	add    $0x270,%rsp
  409409:	5d                   	pop    %rbp
  40940a:	c3                   	retq   
--
  409630:	48 8b 55 f0          	mov    -0x10(%rbp),%rdx
  409634:	e8 37 14 00 00       	callq  40aa70 <_ZL10WriteBytesiPKcm520>
  409639:	88 85 3f fb ff ff    	mov    %al,-0x4c1(%rbp)
  40963f:	48 81 c4 d0 04 00 00 	add    $0x4d0,%rsp
  409646:	5d                   	pop    %rbp
  409647:	c3                   	retq   
--
  409795:	8a 45 ff             	mov    -0x1(%rbp),%al
  409798:	24 01                	and    $0x1,%al
  40979a:	0f b6 c0             	movzbl %al,%eax
  40979d:	48 83 c4 60          	add    $0x60,%rsp
  4097a1:	5d                   	pop    %rbp
  4097a2:	c3                   	retq   
--
  40989f:	8a 45 ff             	mov    -0x1(%rbp),%al
  4098a2:	24 01                	and    $0x1,%al
  4098a4:	0f b6 c0             	movzbl %al,%eax
  4098a7:	48 83 c4 60          	add    $0x60,%rsp
  4098ab:	5d                   	pop    %rbp
  4098ac:	c3                   	retq   
--
  40997e:	8a 45 ff             	mov    -0x1(%rbp),%al
  409981:	24 01                	and    $0x1,%al
  409983:	0f b6 c0             	movzbl %al,%eax
  409986:	48 83 c4 50          	add    $0x50,%rsp
  40998a:	5d                   	pop    %rbp
  40998b:	c3                   	retq   
--
  40a5a4:	e8 b7 88 01 00       	callq  422e60 <_ZN5boost15program_options19options_descriptionD2Ev500>
  40a5a9:	48 8d bd 78 fe ff ff 	lea    -0x188(%rbp),%rdi
  40a5b0:	e8 eb d5 ff ff       	callq  407ba0 <_ZNSt18basic_stringstreamIcSt11char_traitsIcESaIcEED1Ev@plt>
  40a5b5:	48 81 c4 10 07 00 00 	add    $0x710,%rsp
  40a5bc:	5d                   	pop    %rbp
  40a5bd:	c3                   	retq   
--
  40a880:	48 8b 55 f0          	mov    -0x10(%rbp),%rdx
  40a884:	e8 e7 01 00 00       	callq  40aa70 <_ZL10WriteBytesiPKcm520>
  40a889:	88 85 3f fb ff ff    	mov    %al,-0x4c1(%rbp)
  40a88f:	48 81 c4 d0 04 00 00 	add    $0x4d0,%rsp
  40a896:	5d                   	pop    %rbp
  40a897:	c3                   	retq   
--
  40a9e5:	8a 45 ff             	mov    -0x1(%rbp),%al
  40a9e8:	24 01                	and    $0x1,%al
  40a9ea:	0f b6 c0             	movzbl %al,%eax
  40a9ed:	48 83 c4 60          	add    $0x60,%rsp
  40a9f1:	5d                   	pop    %rbp
  40a9f2:	c3                   	retq   
--
  40ab5f:	8a 45 ff             	mov    -0x1(%rbp),%al
  40ab62:	24 01                	and    $0x1,%al
  40ab64:	0f b6 c0             	movzbl %al,%eax
  40ab67:	48 83 c4 60          	add    $0x60,%rsp
  40ab6b:	5d                   	pop    %rbp
  40ab6c:	c3                   	retq   
--
  40b393:	e9 05 00 00 00       	jmpq   40b39d <_ZL10RunServiceR6Config634+0x81d>
  40b398:	e9 d5 ff ff ff       	jmpq   40b372 <_ZL10RunServiceR6Config634+0x7f2>
  40b39d:	e9 d0 fc ff ff       	jmpq   40b072 <_ZL10RunServiceR6Config634+0x4f2>
  40b3a2:	48 81 c4 70 02 00 00 	add    $0x270,%rsp
  40b3a9:	5d                   	pop    %rbp
  40b3aa:	c3                   	retq   
--
  40b47e:	8a 45 ff             	mov    -0x1(%rbp),%al
  40b481:	24 01                	and    $0x1,%al
  40b483:	0f b6 c0             	movzbl %al,%eax
  40b486:	48 83 c4 50          	add    $0x50,%rsp
  40b48a:	5d                   	pop    %rbp
  40b48b:	c3                   	retq   
--
  40b5f8:	e8 63 c0 ff ff       	callq  407660 <_ZNKSs5c_strEv@plt>
  40b5fd:	48 89 45 f8          	mov    %rax,-0x8(%rbp)
  40b601:	48 8b 45 f8          	mov    -0x8(%rbp),%rax
  40b605:	48 83 c4 70          	add    $0x70,%rsp
  40b609:	5d                   	pop    %rbp
  40b60a:	c3                   	retq   
--
  40b650:	48 8b 4d d8          	mov    -0x28(%rbp),%rcx
  40b654:	ff d1                	callq  *%rcx
  40b656:	48 8b 45 e8          	mov    -0x18(%rbp),%rax
  40b65a:	48 83 c4 30          	add    $0x30,%rsp
  40b65e:	5d                   	pop    %rbp
  40b65f:	c3                   	retq   
--
  40b661:	48 89 e5             	mov    %rsp,%rbp
  40b664:	48 89 7d f8          	mov    %rdi,-0x8(%rbp)
  40b668:	48 8b 7d f8          	mov    -0x8(%rbp),%rdi
  40b66c:	66 c7 07 e0 2e       	movw   $0x2ee0,(%rdi)
  40b671:	5d                   	pop    %rbp
  40b672:	c3                   	retq   
--
  40b6b5:	48 8b 45 f0          	mov    -0x10(%rbp),%rax
  40b6b9:	48 89 c7             	mov    %rax,%rdi
  40b6bc:	e8 ff c0 ff ff       	callq  4077c0 <_ZNSt13runtime_errorD2Ev@plt>
  40b6c1:	48 83 c4 10          	add    $0x10,%rsp
  40b6c5:	5d                   	pop    %rbp
  40b6c6:	c3                   	retq   
--
  40b6e4:	e8 27 27 01 00       	callq  41de10 <_ZN5boost6system12system_errorD2Ev264>
  40b6e9:	48 8b 7d f0          	mov    -0x10(%rbp),%rdi
  40b6ed:	e8 7e bf ff ff       	callq  407670 <_ZdlPv@plt>
  40b6f2:	48 83 c4 10          	add    $0x10,%rsp
  40b6f6:	5d                   	pop    %rbp
  40b6f7:	c3                   	retq   
--
  40b707:	89 75 f8             	mov    %esi,-0x8(%rbp)
  40b70a:	8b 75 fc             	mov    -0x4(%rbp),%esi
  40b70d:	0b 75 f8             	or     -0x8(%rbp),%esi
  40b710:	89 f0                	mov    %esi,%eax
  40b712:	5d                   	pop    %rbp
  40b713:	c3                   	retq   
--
  40b721:	48 89 e5             	mov    %rsp,%rbp
  40b724:	31 c0                	xor    %eax,%eax
  40b726:	89 c7                	mov    %eax,%edi
  40b728:	e8 43 23 01 00       	callq  41da70 <_ZN5boost15program_options5valueISsEEPNS0_11typed_valueIT_cEEPS3_252>
  40b72d:	5d                   	pop    %rbp
  40b72e:	c3                   	retq   
--
  40b731:	48 89 e5             	mov    %rsp,%rbp
  40b734:	31 c0                	xor    %eax,%eax
  40b736:	89 c7                	mov    %eax,%edi
  40b738:	e8 73 e1 00 00       	callq  4198b0 <_ZN5boost15program_options5valueItEEPNS0_11typed_valueIT_cEEPS3_38>
  40b73d:	5d                   	pop    %rbp
  40b73e:	c3                   	retq   
--
  40b7b6:	e8 45 20 01 00       	callq  41d800 <_ZNSt6vectorISsSaISsEED2Ev244>
  40b7bb:	48 8d 7d b8          	lea    -0x48(%rbp),%rdi
  40b7bf:	e8 3c 20 01 00       	callq  41d800 <_ZNSt6vectorISsSaISsEED2Ev244>
  40b7c4:	48 83 c4 70          	add    $0x70,%rsp
  40b7c8:	5d                   	pop    %rbp
  40b7c9:	c3                   	retq   
--
  40b82b:	48 8b 75 e8          	mov    -0x18(%rbp),%rsi
  40b82f:	48 89 46 70          	mov    %rax,0x70(%rsi)
  40b833:	48 89 f0             	mov    %rsi,%rax
  40b836:	48 83 c4 20          	add    $0x20,%rsp
  40b83a:	5d                   	pop    %rbp
  40b83b:	c3                   	retq   
--
  40b8d6:	c7 45 a8 01 00 00 00 	movl   $0x1,-0x58(%rbp)
  40b8dd:	e8 1e f8 00 00       	callq  41b100 <_ZN5boost15program_options20basic_parsed_optionsIcED2Ev111>
  40b8e2:	48 8b 45 98          	mov    -0x68(%rbp),%rax
  40b8e6:	48 81 c4 90 00 00 00 	add    $0x90,%rsp
  40b8ed:	5d                   	pop    %rbp
  40b8ee:	c3                   	retq   
--
  40b918:	48 89 7d f8          	mov    %rdi,-0x8(%rbp)
  40b91c:	48 8b 7d f8          	mov    -0x8(%rbp),%rdi
  40b920:	e8 1b f9 00 00       	callq  41b240 <_ZNSt6vectorIN5boost15program_options12basic_optionIcEESaIS3_EED2Ev115>
  40b925:	48 83 c4 10          	add    $0x10,%rsp
  40b929:	5d                   	pop    %rbp
  40b92a:	c3                   	retq   
--
  40b938:	48 89 7d f8          	mov    %rdi,-0x8(%rbp)
  40b93c:	48 8b 7d f8          	mov    -0x8(%rbp),%rdi
  40b940:	e8 eb fc 00 00       	callq  41b630 <_ZN5boost15program_options6detail7cmdlineD2Ev133>
  40b945:	48 83 c4 10          	add    $0x10,%rsp
  40b949:	5d                   	pop    %rbp
  40b94a:	c3                   	retq   
--
  40b9a4:	a8 01                	test   $0x1,%al
  40b9a6:	0f 45 ca             	cmovne %edx,%ecx
  40b9a9:	48 63 c1             	movslq %ecx,%rax
  40b9ac:	48 83 c4 30          	add    $0x30,%rsp
  40b9b0:	5d                   	pop    %rbp
  40b9b1:	c3                   	retq   
--
  40b9dc:	48 89 f7             	mov    %rsi,%rdi
  40b9df:	48 8b 75 e8          	mov    -0x18(%rbp),%rsi
  40b9e3:	e8 c8 be ff ff       	callq  4078b0 <_ZNK5boost15program_options22abstract_variables_mapixERKSs@plt>
  40b9e8:	48 83 c4 20          	add    $0x20,%rsp
  40b9ec:	5d                   	pop    %rbp
  40b9ed:	c3                   	retq   
--
  40b9f8:	48 89 7d f8          	mov    %rdi,-0x8(%rbp)
  40b9fc:	48 8b 7d f8          	mov    -0x8(%rbp),%rdi
  40ba00:	e8 db 30 01 00       	callq  41eae0 <_ZN5boost8any_castIRKSsEET_RKNS_3anyE314>
  40ba05:	48 83 c4 10          	add    $0x10,%rsp
  40ba09:	5d                   	pop    %rbp
  40ba0a:	c3                   	retq   
--
  40ba20:	48 8b 7d f8          	mov    -0x8(%rbp),%rdi
  40ba24:	48 8b 75 f0          	mov    -0x10(%rbp),%rsi
  40ba28:	e8 63 bd ff ff       	callq  407790 <_ZNSsC1ERKSs@plt>
  40ba2d:	48 83 c4 10          	add    $0x10,%rsp
  40ba31:	5d                   	pop    %rbp
  40ba32:	c3                   	retq   
--
  40ba61:	e8 ba 13 01 00       	callq  41ce20 <_ZN5boost10filesystem6existsENS0_11file_statusE210>
  40ba66:	24 01                	and    $0x1,%al
  40ba68:	0f b6 c0             	movzbl %al,%eax
  40ba6b:	48 83 c4 10          	add    $0x10,%rsp
  40ba6f:	5d                   	pop    %rbp
  40ba70:	c3                   	retq   
--
  40ba88:	48 89 7d f8          	mov    %rdi,-0x8(%rbp)
  40ba8c:	48 8b 7d f8          	mov    -0x8(%rbp),%rdi
  40ba90:	e8 cb bb ff ff       	callq  407660 <_ZNKSs5c_strEv@plt>
  40ba95:	48 83 c4 10          	add    $0x10,%rsp
  40ba99:	5d                   	pop    %rbp
  40ba9a:	c3                   	retq   
--
  40bac8:	48 89 7d f8          	mov    %rdi,-0x8(%rbp)
  40bacc:	48 8b 7d f8          	mov    -0x8(%rbp),%rdi
  40bad0:	e8 2b bd ff ff       	callq  407800 <_ZNSsD1Ev@plt>
  40bad5:	48 83 c4 10          	add    $0x10,%rsp
  40bad9:	5d                   	pop    %rbp
  40bada:	c3                   	retq   
--
  40bae8:	48 89 7d f8          	mov    %rdi,-0x8(%rbp)
  40baec:	48 8b 7d f8          	mov    -0x8(%rbp),%rdi
  40baf0:	e8 3b 0f 01 00       	callq  41ca30 <_ZN5boost8any_castIRKtEET_RKNS_3anyE203>
  40baf5:	48 83 c4 10          	add    $0x10,%rsp
  40baf9:	5d                   	pop    %rbp
  40bafa:	c3                   	retq   
--
  40bb59:	48 8b 45 f0          	mov    -0x10(%rbp),%rax
  40bb5d:	48 89 c7             	mov    %rax,%rdi
  40bb60:	e8 2b 3f 01 00       	callq  41fa90 <_ZN5boost15program_options22abstract_variables_mapD2Ev356>
  40bb65:	48 83 c4 10          	add    $0x10,%rsp
  40bb69:	5d                   	pop    %rbp
  40bb6a:	c3                   	retq   
--
  40bbb4:	e8 57 9b 01 00       	callq  425710 <_ZNSt6vectorIN5boost10shared_ptrINS0_15program_options18option_descriptionEEESaIS4_EED2Ev651>
  40bbb9:	48 8b 7d f0          	mov    -0x10(%rbp),%rdi
  40bbbd:	e8 3e bc ff ff       	callq  407800 <_ZNSsD1Ev@plt>
  40bbc2:	48 83 c4 10          	add    $0x10,%rsp
  40bbc6:	5d                   	pop    %rbp
  40bbc7:	c3                   	retq   
--
  40bc0c:	48 8b 45 d8          	mov    -0x28(%rbp),%rax
  40bc10:	48 89 c7             	mov    %rax,%rdi
  40bc13:	e8 48 8b 01 00       	callq  424760 <_ZNSt12_Vector_baseIN5boost10shared_ptrINS0_15program_options19options_descriptionEEESaIS4_EED2Ev590>
  40bc18:	48 83 c4 30          	add    $0x30,%rsp
  40bc1c:	5d                   	pop    %rbp
  40bc1d:	c3                   	retq   
--
  40bc48:	48 89 7d f8          	mov    %rdi,-0x8(%rbp)
  40bc4c:	48 8b 7d f8          	mov    -0x8(%rbp),%rdi
  40bc50:	e8 0b f3 00 00       	callq  41af60 <_ZNSt13_Bvector_baseISaIbEED2Ev104>
  40bc55:	48 83 c4 10          	add    $0x10,%rsp
  40bc59:	5d                   	pop    %rbp
  40bc5a:	c3                   	retq   
--
  40bc9c:	48 8b 45 d8          	mov    -0x28(%rbp),%rax
  40bca0:	48 89 c7             	mov    %rax,%rdi
  40bca3:	e8 68 18 01 00       	callq  41d510 <_ZNSt12_Vector_baseIN5boost10shared_ptrINS0_15program_options18option_descriptionEEESaIS4_EED2Ev236>
  40bca8:	48 83 c4 30          	add    $0x30,%rsp
  40bcac:	5d                   	pop    %rbp
  40bcad:	c3                   	retq   
--
  40bce4:	48 8b 7d f8          	mov    -0x8(%rbp),%rdi
  40bce8:	48 8b 75 f0          	mov    -0x10(%rbp),%rsi
  40bcec:	e8 2f 2f 01 00       	callq  41ec20 <_ZSt8_DestroyIPN5boost10shared_ptrINS0_15program_options18option_descriptionEEEEvT_S6_316>
  40bcf1:	48 83 c4 20          	add    $0x20,%rsp
  40bcf5:	5d                   	pop    %rbp
  40bcf6:	c3                   	retq   
--
  40bd01:	48 89 e5             	mov    %rsp,%rbp
  40bd04:	48 89 7d f8          	mov    %rdi,-0x8(%rbp)
  40bd08:	48 8b 7d f8          	mov    -0x8(%rbp),%rdi
  40bd0c:	48 89 f8             	mov    %rdi,%rax
  40bd0f:	5d                   	pop    %rbp
  40bd10:	c3                   	retq   
--
  40bd49:	e9 00 00 00 00       	jmpq   40bd4e <_ZNSt12_Vector_baseIN5boost10shared_ptrINS0_15program_options18option_descriptionEEESaIS4_EED2Ev+0x2e>
  40bd4e:	48 8b 7d e0          	mov    -0x20(%rbp),%rdi
  40bd52:	e8 d9 75 01 00       	callq  423330 <_ZNSt12_Vector_baseIN5boost10shared_ptrINS0_15program_options18option_descriptionEEESaIS4_EE12_Vector_implD2Ev522>
  40bd57:	48 83 c4 20          	add    $0x20,%rsp
  40bd5b:	5d                   	pop    %rbp
  40bd5c:	c3                   	retq   
--
  40bdb2:	48 8b 55 e8          	mov    -0x18(%rbp),%rdx
  40bdb6:	48 89 c7             	mov    %rax,%rdi
  40bdb9:	e8 c2 a8 01 00       	callq  426680 <_ZN9__gnu_cxx13new_allocatorIN5boost10shared_ptrINS1_15program_options18option_descriptionEEEE10deallocateEPS5_m683>
  40bdbe:	48 83 c4 20          	add    $0x20,%rsp
  40bdc2:	5d                   	pop    %rbp
  40bdc3:	c3                   	retq   
--
  40bdd8:	48 89 7d f8          	mov    %rdi,-0x8(%rbp)
  40bddc:	48 8b 7d f8          	mov    -0x8(%rbp),%rdi
  40bde0:	e8 eb 13 01 00       	callq  41d1d0 <_ZNSaIN5boost10shared_ptrINS_15program_options18option_descriptionEEEED2Ev226>
  40bde5:	48 83 c4 10          	add    $0x10,%rsp
  40bde9:	5d                   	pop    %rbp
  40bdea:	c3                   	retq   
--
  40bdf8:	48 89 7d f8          	mov    %rdi,-0x8(%rbp)
  40bdfc:	48 8b 7d f8          	mov    -0x8(%rbp),%rdi
  40be00:	e8 cb 55 01 00       	callq  4213d0 <_ZN9__gnu_cxx13new_allocatorIN5boost10shared_ptrINS1_15program_options18option_descriptionEEEED2Ev417>
  40be05:	48 83 c4 10          	add    $0x10,%rsp
  40be09:	5d                   	pop    %rbp
  40be0a:	c3                   	retq   
--
000000000040be10 <_ZN9__gnu_cxx13new_allocatorIN5boost10shared_ptrINS1_15program_options18option_descriptionEEEED2Ev>:
  40be10:	55                   	push   %rbp
  40be11:	48 89 e5             	mov    %rsp,%rbp
  40be14:	48 89 7d f8          	mov    %rdi,-0x8(%rbp)
  40be18:	5d                   	pop    %rbp
  40be19:	c3                   	retq   
--
  40be34:	48 8b 55 f0          	mov    -0x10(%rbp),%rdx
  40be38:	48 89 d7             	mov    %rdx,%rdi
  40be3b:	e8 30 b8 ff ff       	callq  407670 <_ZdlPv@plt>
  40be40:	48 83 c4 20          	add    $0x20,%rsp
  40be44:	5d                   	pop    %rbp
  40be45:	c3                   	retq   
--
  40be60:	48 8b 7d f8          	mov    -0x8(%rbp),%rdi
  40be64:	48 8b 75 f0          	mov    -0x10(%rbp),%rsi
  40be68:	e8 63 3c 01 00       	callq  41fad0 <_ZNSt12_Destroy_auxILb0EE9__destroyIPN5boost10shared_ptrINS2_15program_options18option_descriptionEEEEEvT_S8_358>
  40be6d:	48 83 c4 10          	add    $0x10,%rsp
  40be71:	5d                   	pop    %rbp
  40be72:	c3                   	retq   
--
  40beb3:	48 05 10 00 00 00    	add    $0x10,%rax
  40beb9:	48 89 45 f8          	mov    %rax,-0x8(%rbp)
  40bebd:	e9 ce ff ff ff       	jmpq   40be90 <_ZNSt12_Destroy_auxILb0EE9__destroyIPN5boost10shared_ptrINS2_15program_options18option_descriptionEEEEEvT_S8_+0x10>
  40bec2:	48 83 c4 10          	add    $0x10,%rsp
  40bec6:	5d                   	pop    %rbp
  40bec7:	c3                   	retq   
--
  40bed8:	48 89 7d f8          	mov    %rdi,-0x8(%rbp)
  40bedc:	48 8b 7d f8          	mov    -0x8(%rbp),%rdi
  40bee0:	e8 fb fd 00 00       	callq  41bce0 <_ZN5boost10shared_ptrINS_15program_options18option_descriptionEED2Ev159>
  40bee5:	48 83 c4 10          	add    $0x10,%rsp
  40bee9:	5d                   	pop    %rbp
  40beea:	c3                   	retq   
--
  40bef1:	48 89 e5             	mov    %rsp,%rbp
  40bef4:	48 89 7d f8          	mov    %rdi,-0x8(%rbp)
  40bef8:	48 8b 7d f8          	mov    -0x8(%rbp),%rdi
  40befc:	48 89 f8             	mov    %rdi,%rax
  40beff:	5d                   	pop    %rbp
  40bf00:	c3                   	retq   
--
  40bf1c:	48 8b 7d f8          	mov    -0x8(%rbp),%rdi
  40bf20:	48 81 c7 08 00 00 00 	add    $0x8,%rdi
  40bf27:	e8 94 fc 00 00       	callq  41bbc0 <_ZN5boost6detail12shared_countD2Ev153>
  40bf2c:	48 83 c4 10          	add    $0x10,%rsp
  40bf30:	5d                   	pop    %rbp
  40bf31:	c3                   	retq   
--
  40bf68:	e8 73 8f 01 00       	callq  424ee0 <_ZN5boost6detail15sp_counted_base7releaseEv616>
  40bf6d:	e9 00 00 00 00       	jmpq   40bf72 <_ZN5boost6detail12shared_countD2Ev+0x32>
  40bf72:	e9 00 00 00 00       	jmpq   40bf77 <_ZN5boost6detail12shared_countD2Ev+0x37>
  40bf77:	48 83 c4 20          	add    $0x20,%rsp
  40bf7b:	5d                   	pop    %rbp
  40bf7c:	c3                   	retq   
--
  40bfcf:	ff 51 10             	callq  *0x10(%rcx)
  40bfd2:	48 8b 7d f0          	mov    -0x10(%rbp),%rdi
  40bfd6:	e8 05 7c 01 00       	callq  423be0 <_ZN5boost6detail15sp_counted_base12weak_releaseEv551>
  40bfdb:	48 83 c4 10          	add    $0x10,%rsp
  40bfdf:	5d                   	pop    %rbp
  40bfe0:	c3                   	retq   
--
  40c003:	8b 75 f4             	mov    -0xc(%rbp),%esi
  40c006:	f0 0f c1 37          	lock xadd %esi,(%rdi)
  40c00a:	89 75 f0             	mov    %esi,-0x10(%rbp)
  40c00d:	8b 45 f0             	mov    -0x10(%rbp),%eax
  40c010:	5d                   	pop    %rbp
  40c011:	c3                   	retq   
--
  40c059:	48 8b 08             	mov    (%rax),%rcx
  40c05c:	48 89 c7             	mov    %rax,%rdi
  40c05f:	ff 51 18             	callq  *0x18(%rcx)
  40c062:	48 83 c4 10          	add    $0x10,%rsp
  40c066:	5d                   	pop    %rbp
  40c067:	c3                   	retq   
--
  40c088:	e9 00 00 00 00       	jmpq   40c08d <_ZNSt13_Bvector_baseISaIbEED2Ev+0x1d>
  40c08d:	48 8b 7d e0          	mov    -0x20(%rbp),%rdi
  40c091:	e8 8a 71 01 00       	callq  423220 <_ZNSt13_Bvector_baseISaIbEE13_Bvector_implD2Ev516>
  40c096:	48 83 c4 20          	add    $0x20,%rsp
  40c09a:	5d                   	pop    %rbp
  40c09b:	c3                   	retq   
--
  40c0f6:	48 c1 fa 03          	sar    $0x3,%rdx
  40c0fa:	48 89 c7             	mov    %rax,%rdi
  40c0fd:	e8 ae ed 00 00       	callq  41aeb0 <_ZN9__gnu_cxx13new_allocatorImE10deallocateEPmm101>
  40c102:	48 83 c4 10          	add    $0x10,%rsp
  40c106:	5d                   	pop    %rbp
  40c107:	c3                   	retq   
--
  40c118:	48 89 7d f8          	mov    %rdi,-0x8(%rbp)
  40c11c:	48 8b 7d f8          	mov    -0x8(%rbp),%rdi
  40c120:	e8 ab 93 01 00       	callq  4254d0 <_ZNSaImED2Ev639>
  40c125:	48 83 c4 10          	add    $0x10,%rsp
  40c129:	5d                   	pop    %rbp
  40c12a:	c3                   	retq   
--
  40c138:	48 89 7d f8          	mov    %rdi,-0x8(%rbp)
  40c13c:	48 8b 7d f8          	mov    -0x8(%rbp),%rdi
  40c140:	e8 3b fc 00 00       	callq  41bd80 <_ZN9__gnu_cxx13new_allocatorImED2Ev162>
  40c145:	48 83 c4 10          	add    $0x10,%rsp
  40c149:	5d                   	pop    %rbp
  40c14a:	c3                   	retq   
--
000000000040c150 <_ZN9__gnu_cxx13new_allocatorImED2Ev>:
  40c150:	55                   	push   %rbp
  40c151:	48 89 e5             	mov    %rsp,%rbp
  40c154:	48 89 7d f8          	mov    %rdi,-0x8(%rbp)
  40c158:	5d                   	pop    %rbp
  40c159:	c3                   	retq   
--
  40c174:	48 8b 55 f0          	mov    -0x10(%rbp),%rdx
  40c178:	48 89 d7             	mov    %rdx,%rdi
  40c17b:	e8 f0 b4 ff ff       	callq  407670 <_ZdlPv@plt>
  40c180:	48 83 c4 20          	add    $0x20,%rsp
  40c184:	5d                   	pop    %rbp
  40c185:	c3                   	retq   
--
  40c1a4:	48 8b 7d f8          	mov    -0x8(%rbp),%rdi
  40c1a8:	48 8b 75 f0          	mov    -0x10(%rbp),%rsi
  40c1ac:	e8 4f 08 01 00       	callq  41ca00 <_ZSt8_DestroyIPN5boost10shared_ptrINS0_15program_options19options_descriptionEEEEvT_S6_202>
  40c1b1:	48 83 c4 20          	add    $0x20,%rsp
  40c1b5:	5d                   	pop    %rbp
  40c1b6:	c3                   	retq   
--
  40c1c1:	48 89 e5             	mov    %rsp,%rbp
  40c1c4:	48 89 7d f8          	mov    %rdi,-0x8(%rbp)
  40c1c8:	48 8b 7d f8          	mov    -0x8(%rbp),%rdi
  40c1cc:	48 89 f8             	mov    %rdi,%rax
  40c1cf:	5d                   	pop    %rbp
  40c1d0:	c3                   	retq   
--
  40c209:	e9 00 00 00 00       	jmpq   40c20e <_ZNSt12_Vector_baseIN5boost10shared_ptrINS0_15program_options19options_descriptionEEESaIS4_EED2Ev+0x2e>
  40c20e:	48 8b 7d e0          	mov    -0x20(%rbp),%rdi
  40c212:	e8 e9 0b 01 00       	callq  41ce00 <_ZNSt12_Vector_baseIN5boost10shared_ptrINS0_15program_options19options_descriptionEEESaIS4_EE12_Vector_implD2Ev209>
  40c217:	48 83 c4 20          	add    $0x20,%rsp
  40c21b:	5d                   	pop    %rbp
  40c21c:	c3                   	retq   
--
  40c272:	48 8b 55 e8          	mov    -0x18(%rbp),%rdx
  40c276:	48 89 c7             	mov    %rax,%rdi
  40c279:	e8 f2 93 01 00       	callq  425670 <_ZN9__gnu_cxx13new_allocatorIN5boost10shared_ptrINS1_15program_options19options_descriptionEEEE10deallocateEPS5_m648>
  40c27e:	48 83 c4 20          	add    $0x20,%rsp
  40c282:	5d                   	pop    %rbp
  40c283:	c3                   	retq   
--
  40c298:	48 89 7d f8          	mov    %rdi,-0x8(%rbp)
  40c29c:	48 8b 7d f8          	mov    -0x8(%rbp),%rdi
  40c2a0:	e8 0b 3f 01 00       	callq  4201b0 <_ZNSaIN5boost10shared_ptrINS_15program_options19options_descriptionEEEED2Ev378>
  40c2a5:	48 83 c4 10          	add    $0x10,%rsp
  40c2a9:	5d                   	pop    %rbp
  40c2aa:	c3                   	retq   
--
  40c2b8:	48 89 7d f8          	mov    %rdi,-0x8(%rbp)
  40c2bc:	48 8b 7d f8          	mov    -0x8(%rbp),%rdi
  40c2c0:	e8 2b f2 00 00       	callq  41b4f0 <_ZN9__gnu_cxx13new_allocatorIN5boost10shared_ptrINS1_15program_options19options_descriptionEEEED2Ev126>
  40c2c5:	48 83 c4 10          	add    $0x10,%rsp
  40c2c9:	5d                   	pop    %rbp
  40c2ca:	c3                   	retq   
--
000000000040c2d0 <_ZN9__gnu_cxx13new_allocatorIN5boost10shared_ptrINS1_15program_options19options_descriptionEEEED2Ev>:
  40c2d0:	55                   	push   %rbp
  40c2d1:	48 89 e5             	mov    %rsp,%rbp
  40c2d4:	48 89 7d f8          	mov    %rdi,-0x8(%rbp)
  40c2d8:	5d                   	pop    %rbp
  40c2d9:	c3                   	retq   
--
  40c2f4:	48 8b 55 f0          	mov    -0x10(%rbp),%rdx
  40c2f8:	48 89 d7             	mov    %rdx,%rdi
  40c2fb:	e8 70 b3 ff ff       	callq  407670 <_ZdlPv@plt>
  40c300:	48 83 c4 20          	add    $0x20,%rsp
  40c304:	5d                   	pop    %rbp
  40c305:	c3                   	retq   
--
  40c320:	48 8b 7d f8          	mov    -0x8(%rbp),%rdi
  40c324:	48 8b 75 f0          	mov    -0x10(%rbp),%rsi
  40c328:	e8 93 93 01 00       	callq  4256c0 <_ZNSt12_Destroy_auxILb0EE9__destroyIPN5boost10shared_ptrINS2_15program_options19options_descriptionEEEEEvT_S8_650>
  40c32d:	48 83 c4 10          	add    $0x10,%rsp
  40c331:	5d                   	pop    %rbp
  40c332:	c3                   	retq   
--
  40c373:	48 05 10 00 00 00    	add    $0x10,%rax
  40c379:	48 89 45 f8          	mov    %rax,-0x8(%rbp)
  40c37d:	e9 ce ff ff ff       	jmpq   40c350 <_ZNSt12_Destroy_auxILb0EE9__destroyIPN5boost10shared_ptrINS2_15program_options19options_descriptionEEEEEvT_S8_+0x10>
  40c382:	48 83 c4 10          	add    $0x10,%rsp
  40c386:	5d                   	pop    %rbp
  40c387:	c3                   	retq   
--
  40c398:	48 89 7d f8          	mov    %rdi,-0x8(%rbp)
  40c39c:	48 8b 7d f8          	mov    -0x8(%rbp),%rdi
  40c3a0:	e8 3b 29 01 00       	callq  41ece0 <_ZN5boost10shared_ptrINS_15program_options19options_descriptionEED2Ev319>
  40c3a5:	48 83 c4 10          	add    $0x10,%rsp
  40c3a9:	5d                   	pop    %rbp
  40c3aa:	c3                   	retq   
--
  40c3b1:	48 89 e5             	mov    %rsp,%rbp
  40c3b4:	48 89 7d f8          	mov    %rdi,-0x8(%rbp)
  40c3b8:	48 8b 7d f8          	mov    -0x8(%rbp),%rdi
  40c3bc:	48 89 f8             	mov    %rdi,%rax
  40c3bf:	5d                   	pop    %rbp
  40c3c0:	c3                   	retq   
--
  40c3dc:	48 8b 7d f8          	mov    -0x8(%rbp),%rdi
  40c3e0:	48 81 c7 08 00 00 00 	add    $0x8,%rdi
  40c3e7:	e8 d4 f7 00 00       	callq  41bbc0 <_ZN5boost6detail12shared_countD2Ev153>
  40c3ec:	48 83 c4 10          	add    $0x10,%rsp
  40c3f0:	5d                   	pop    %rbp
  40c3f1:	c3                   	retq   
--
  40c408:	48 89 7d f8          	mov    %rdi,-0x8(%rbp)
  40c40c:	48 8b 7d f8          	mov    -0x8(%rbp),%rdi
  40c410:	e8 5b 62 01 00       	callq  422670 <_ZNSt8_Rb_treeISsSt4pairIKSsSsESt10_Select1stIS2_ESt4lessISsESaIS2_EED2Ev474>
  40c415:	48 83 c4 10          	add    $0x10,%rsp
  40c419:	5d                   	pop    %rbp
  40c41a:	c3                   	retq   
--
  40c428:	48 89 7d f8          	mov    %rdi,-0x8(%rbp)
  40c42c:	48 8b 7d f8          	mov    -0x8(%rbp),%rdi
  40c430:	e8 6b 63 01 00       	callq  4227a0 <_ZNSt8_Rb_treeISsSsSt9_IdentityISsESt4lessISsESaISsEED2Ev479>
  40c435:	48 83 c4 10          	add    $0x10,%rsp
  40c439:	5d                   	pop    %rbp
  40c43a:	c3                   	retq   
--
  40c448:	48 89 7d f8          	mov    %rdi,-0x8(%rbp)
  40c44c:	48 8b 7d f8          	mov    -0x8(%rbp),%rdi
  40c450:	e8 2b 6d 01 00       	callq  423180 <_ZNSt8_Rb_treeISsSt4pairIKSsN5boost15program_options14variable_valueEESt10_Select1stIS5_ESt4lessISsESaIS5_EED2Ev513>
  40c455:	48 83 c4 10          	add    $0x10,%rsp
  40c459:	5d                   	pop    %rbp
  40c45a:	c3                   	retq   
--
000000000040c460 <_ZN5boost15program_options22abstract_variables_mapD2Ev>:
  40c460:	55                   	push   %rbp
  40c461:	48 89 e5             	mov    %rsp,%rbp
  40c464:	48 89 7d f8          	mov    %rdi,-0x8(%rbp)
  40c468:	5d                   	pop    %rbp
  40c469:	c3                   	retq   
--
  40c49e:	e9 00 00 00 00       	jmpq   40c4a3 <_ZNSt8_Rb_treeISsSt4pairIKSsN5boost15program_options14variable_valueEESt10_Select1stIS5_ESt4lessISsESaIS5_EED2Ev+0x33>
  40c4a3:	48 8b 7d e0          	mov    -0x20(%rbp),%rdi
  40c4a7:	e8 b4 6f 01 00       	callq  423460 <_ZNSt8_Rb_treeISsSt4pairIKSsN5boost15program_options14variable_valueEESt10_Select1stIS5_ESt4lessISsESaIS5_EE13_Rb_tree_implIS9_Lb1EED2Ev528>
  40c4ac:	48 83 c4 30          	add    $0x30,%rsp
  40c4b0:	5d                   	pop    %rbp
  40c4b1:	c3                   	retq   
--
  40c52b:	48 8b 45 e8          	mov    -0x18(%rbp),%rax
  40c52f:	48 89 45 f0          	mov    %rax,-0x10(%rbp)
  40c533:	e9 b0 ff ff ff       	jmpq   40c4e8 <_ZNSt8_Rb_treeISsSt4pairIKSsN5boost15program_options14variable_valueEESt10_Select1stIS5_ESt4lessISsESaIS5_EE8_M_eraseEPSt13_Rb_tree_nodeIS5_E+0x18>
  40c538:	48 83 c4 20          	add    $0x20,%rsp
  40c53c:	5d                   	pop    %rbp
  40c53d:	c3                   	retq   
--
  40c544:	48 89 7d f8          	mov    %rdi,-0x8(%rbp)
  40c548:	48 8b 7d f8          	mov    -0x8(%rbp),%rdi
  40c54c:	48 8b 7f 10          	mov    0x10(%rdi),%rdi
  40c550:	48 89 f8             	mov    %rdi,%rax
  40c553:	5d                   	pop    %rbp
  40c554:	c3                   	retq   
--
  40c568:	48 89 7d f8          	mov    %rdi,-0x8(%rbp)
  40c56c:	48 8b 7d f8          	mov    -0x8(%rbp),%rdi
  40c570:	e8 2b 83 01 00       	callq  4248a0 <_ZNSaISt13_Rb_tree_nodeISt4pairIKSsN5boost15program_options14variable_valueEEEED2Ev596>
  40c575:	48 83 c4 10          	add    $0x10,%rsp
  40c579:	5d                   	pop    %rbp
  40c57a:	c3                   	retq   
--
  40c588:	48 89 7d f8          	mov    %rdi,-0x8(%rbp)
  40c58c:	48 8b 7d f8          	mov    -0x8(%rbp),%rdi
  40c590:	e8 1b 60 01 00       	callq  4225b0 <_ZN9__gnu_cxx13new_allocatorISt13_Rb_tree_nodeISt4pairIKSsN5boost15program_options14variable_valueEEEED2Ev469>
  40c595:	48 83 c4 10          	add    $0x10,%rsp
  40c599:	5d                   	pop    %rbp
  40c59a:	c3                   	retq   
--
000000000040c5a0 <_ZN9__gnu_cxx13new_allocatorISt13_Rb_tree_nodeISt4pairIKSsN5boost15program_options14variable_valueEEEED2Ev>:
  40c5a0:	55                   	push   %rbp
  40c5a1:	48 89 e5             	mov    %rsp,%rbp
  40c5a4:	48 89 7d f8          	mov    %rdi,-0x8(%rbp)
  40c5a8:	5d                   	pop    %rbp
  40c5a9:	c3                   	retq   
--
  40c5b4:	48 89 7d f8          	mov    %rdi,-0x8(%rbp)
  40c5b8:	48 8b 7d f8          	mov    -0x8(%rbp),%rdi
  40c5bc:	48 8b 7f 18          	mov    0x18(%rdi),%rdi
  40c5c0:	48 89 f8             	mov    %rdi,%rax
  40c5c3:	5d                   	pop    %rbp
  40c5c4:	c3                   	retq   
--
  40c5d4:	48 89 7d f8          	mov    %rdi,-0x8(%rbp)
  40c5d8:	48 8b 7d f8          	mov    -0x8(%rbp),%rdi
  40c5dc:	48 8b 7f 10          	mov    0x10(%rdi),%rdi
  40c5e0:	48 89 f8             	mov    %rdi,%rax
  40c5e3:	5d                   	pop    %rbp
  40c5e4:	c3                   	retq   
--
  40c61c:	48 8b 75 f0          	mov    -0x10(%rbp),%rsi
  40c620:	48 8b 7d e8          	mov    -0x18(%rbp),%rdi
  40c624:	e8 f7 4e 01 00       	callq  421520 <_ZNSt8_Rb_treeISsSt4pairIKSsN5boost15program_options14variable_valueEESt10_Select1stIS5_ESt4lessISsESaIS5_EE11_M_put_nodeEPSt13_Rb_tree_nodeIS5_E423>
  40c629:	48 83 c4 20          	add    $0x20,%rsp
  40c62d:	5d                   	pop    %rbp
  40c62e:	c3                   	retq   
--
  40c631:	48 89 e5             	mov    %rsp,%rbp
  40c634:	48 89 7d f8          	mov    %rdi,-0x8(%rbp)
  40c638:	48 8b 7d f8          	mov    -0x8(%rbp),%rdi
  40c63c:	48 89 f8             	mov    %rdi,%rax
  40c63f:	5d                   	pop    %rbp
  40c640:	c3                   	retq   
--
  40c65c:	48 89 75 f0          	mov    %rsi,-0x10(%rbp)
  40c660:	48 8b 7d f0          	mov    -0x10(%rbp),%rdi
  40c664:	e8 27 e7 00 00       	callq  41ad90 <_ZNSt13_Rb_tree_nodeISt4pairIKSsN5boost15program_options14variable_valueEEED2Ev96>
  40c669:	48 83 c4 10          	add    $0x10,%rsp
  40c66d:	5d                   	pop    %rbp
  40c66e:	c3                   	retq   
--
  40c693:	48 89 f7             	mov    %rsi,%rdi
  40c696:	48 8b 75 e8          	mov    -0x18(%rbp),%rsi
  40c69a:	e8 91 f5 00 00       	callq  41bc30 <_ZN9__gnu_cxx13new_allocatorISt13_Rb_tree_nodeISt4pairIKSsN5boost15program_options14variable_valueEEEE10deallocateEPS8_m155>
  40c69f:	48 83 c4 20          	add    $0x20,%rsp
  40c6a3:	5d                   	pop    %rbp
  40c6a4:	c3                   	retq   
--
  40c6c4:	48 8b 55 f0          	mov    -0x10(%rbp),%rdx
  40c6c8:	48 89 d7             	mov    %rdx,%rdi
  40c6cb:	e8 a0 af ff ff       	callq  407670 <_ZdlPv@plt>
  40c6d0:	48 83 c4 20          	add    $0x20,%rsp
  40c6d4:	5d                   	pop    %rbp
  40c6d5:	c3                   	retq   
--
  40c6ec:	48 8b 7d f8          	mov    -0x8(%rbp),%rdi
  40c6f0:	48 81 c7 20 00 00 00 	add    $0x20,%rdi
  40c6f7:	e8 d4 f3 00 00       	callq  41bad0 <_ZNSt4pairIKSsN5boost15program_options14variable_valueEED2Ev149>
  40c6fc:	48 83 c4 10          	add    $0x10,%rsp
  40c700:	5d                   	pop    %rbp
  40c701:	c3                   	retq   
--
  40c730:	e8 ab d0 00 00       	callq  4197e0 <_ZN5boost15program_options14variable_valueD2Ev34>
  40c735:	48 8b 7d f0          	mov    -0x10(%rbp),%rdi
  40c739:	e8 c2 b0 ff ff       	callq  407800 <_ZNSsD1Ev@plt>
  40c73e:	48 83 c4 10          	add    $0x10,%rsp
  40c742:	5d                   	pop    %rbp
  40c743:	c3                   	retq   
--
  40c770:	e8 bb 38 01 00       	callq  420030 <_ZN5boost10shared_ptrIKNS_15program_options14value_semanticEED2Ev370>
  40c775:	48 8b 7d f0          	mov    -0x10(%rbp),%rdi
  40c779:	e8 82 5c 01 00       	callq  422400 <_ZN5boost3anyD2Ev465>
  40c77e:	48 83 c4 10          	add    $0x10,%rsp
  40c782:	5d                   	pop    %rbp
  40c783:	c3                   	retq   
--
  40c79c:	48 8b 7d f8          	mov    -0x8(%rbp),%rdi
  40c7a0:	48 81 c7 08 00 00 00 	add    $0x8,%rdi
  40c7a7:	e8 14 f4 00 00       	callq  41bbc0 <_ZN5boost6detail12shared_countD2Ev153>
  40c7ac:	48 83 c4 10          	add    $0x10,%rsp
  40c7b0:	5d                   	pop    %rbp
  40c7b1:	c3                   	retq   
--
  40c7e8:	48 8b 08             	mov    (%rax),%rcx
  40c7eb:	48 89 c7             	mov    %rax,%rdi
  40c7ee:	ff 51 08             	callq  *0x8(%rcx)
  40c7f1:	48 83 c4 10          	add    $0x10,%rsp
  40c7f5:	5d                   	pop    %rbp
  40c7f6:	c3                   	retq   
--
  40c82e:	e9 00 00 00 00       	jmpq   40c833 <_ZNSt8_Rb_treeISsSsSt9_IdentityISsESt4lessISsESaISsEED2Ev+0x33>
  40c833:	48 8b 7d e0          	mov    -0x20(%rbp),%rdi
  40c837:	e8 84 f9 00 00       	callq  41c1c0 <_ZNSt8_Rb_treeISsSsSt9_IdentityISsESt4lessISsESaISsEE13_Rb_tree_implIS3_Lb1EED2Ev173>
  40c83c:	48 83 c4 30          	add    $0x30,%rsp
  40c840:	5d                   	pop    %rbp
  40c841:	c3                   	retq   
--
  40c8bb:	48 8b 45 e8          	mov    -0x18(%rbp),%rax
  40c8bf:	48 89 45 f0          	mov    %rax,-0x10(%rbp)
  40c8c3:	e9 b0 ff ff ff       	jmpq   40c878 <_ZNSt8_Rb_treeISsSsSt9_IdentityISsESt4lessISsESaISsEE8_M_eraseEPSt13_Rb_tree_nodeISsE+0x18>
  40c8c8:	48 83 c4 20          	add    $0x20,%rsp
  40c8cc:	5d                   	pop    %rbp
  40c8cd:	c3                   	retq   
--
  40c8d4:	48 89 7d f8          	mov    %rdi,-0x8(%rbp)
  40c8d8:	48 8b 7d f8          	mov    -0x8(%rbp),%rdi
  40c8dc:	48 8b 7f 10          	mov    0x10(%rdi),%rdi
  40c8e0:	48 89 f8             	mov    %rdi,%rax
  40c8e3:	5d                   	pop    %rbp
  40c8e4:	c3                   	retq   
--
  40c8f8:	48 89 7d f8          	mov    %rdi,-0x8(%rbp)
  40c8fc:	48 8b 7d f8          	mov    -0x8(%rbp),%rdi
  40c900:	e8 8b 67 01 00       	callq  423090 <_ZNSaISt13_Rb_tree_nodeISsEED2Ev509>
  40c905:	48 83 c4 10          	add    $0x10,%rsp
  40c909:	5d                   	pop    %rbp
  40c90a:	c3                   	retq   
--
  40c918:	48 89 7d f8          	mov    %rdi,-0x8(%rbp)
  40c91c:	48 8b 7d f8          	mov    -0x8(%rbp),%rdi
  40c920:	e8 fb 20 01 00       	callq  41ea20 <_ZN9__gnu_cxx13new_allocatorISt13_Rb_tree_nodeISsEED2Ev310>
  40c925:	48 83 c4 10          	add    $0x10,%rsp
  40c929:	5d                   	pop    %rbp
  40c92a:	c3                   	retq   
--
000000000040c930 <_ZN9__gnu_cxx13new_allocatorISt13_Rb_tree_nodeISsEED2Ev>:
  40c930:	55                   	push   %rbp
  40c931:	48 89 e5             	mov    %rsp,%rbp
  40c934:	48 89 7d f8          	mov    %rdi,-0x8(%rbp)
  40c938:	5d                   	pop    %rbp
  40c939:	c3                   	retq   
--
  40c944:	48 89 7d f8          	mov    %rdi,-0x8(%rbp)
  40c948:	48 8b 7d f8          	mov    -0x8(%rbp),%rdi
  40c94c:	48 8b 7f 18          	mov    0x18(%rdi),%rdi
  40c950:	48 89 f8             	mov    %rdi,%rax
  40c953:	5d                   	pop    %rbp
  40c954:	c3                   	retq   
--
  40c964:	48 89 7d f8          	mov    %rdi,-0x8(%rbp)
  40c968:	48 8b 7d f8          	mov    -0x8(%rbp),%rdi
  40c96c:	48 8b 7f 10          	mov    0x10(%rdi),%rdi
  40c970:	48 89 f8             	mov    %rdi,%rax
  40c973:	5d                   	pop    %rbp
  40c974:	c3                   	retq   
--
  40c9ac:	48 8b 75 f0          	mov    -0x10(%rbp),%rsi
  40c9b0:	48 8b 7d e8          	mov    -0x18(%rbp),%rdi
  40c9b4:	e8 a7 4d 01 00       	callq  421760 <_ZNSt8_Rb_treeISsSsSt9_IdentityISsESt4lessISsESaISsEE11_M_put_nodeEPSt13_Rb_tree_nodeISsE430>
  40c9b9:	48 83 c4 20          	add    $0x20,%rsp
  40c9bd:	5d                   	pop    %rbp
  40c9be:	c3                   	retq   
--
  40c9c1:	48 89 e5             	mov    %rsp,%rbp
  40c9c4:	48 89 7d f8          	mov    %rdi,-0x8(%rbp)
  40c9c8:	48 8b 7d f8          	mov    -0x8(%rbp),%rdi
  40c9cc:	48 89 f8             	mov    %rdi,%rax
  40c9cf:	5d                   	pop    %rbp
  40c9d0:	c3                   	retq   
--
  40c9ec:	48 89 75 f0          	mov    %rsi,-0x10(%rbp)
  40c9f0:	48 8b 7d f0          	mov    -0x10(%rbp),%rdi
  40c9f4:	e8 f7 15 01 00       	callq  41dff0 <_ZNSt13_Rb_tree_nodeISsED2Ev273>
  40c9f9:	48 83 c4 10          	add    $0x10,%rsp
  40c9fd:	5d                   	pop    %rbp
  40c9fe:	c3                   	retq   
--
  40ca23:	48 89 f7             	mov    %rsi,%rdi
  40ca26:	48 8b 75 e8          	mov    -0x18(%rbp),%rsi
  40ca2a:	e8 81 87 01 00       	callq  4251b0 <_ZN9__gnu_cxx13new_allocatorISt13_Rb_tree_nodeISsEE10deallocateEPS2_m627>
  40ca2f:	48 83 c4 20          	add    $0x20,%rsp
  40ca33:	5d                   	pop    %rbp
  40ca34:	c3                   	retq   
--
  40ca54:	48 8b 55 f0          	mov    -0x10(%rbp),%rdx
  40ca58:	48 89 d7             	mov    %rdx,%rdi
  40ca5b:	e8 10 ac ff ff       	callq  407670 <_ZdlPv@plt>
  40ca60:	48 83 c4 20          	add    $0x20,%rsp
  40ca64:	5d                   	pop    %rbp
  40ca65:	c3                   	retq   
--
  40ca7c:	48 8b 7d f8          	mov    -0x8(%rbp),%rdi
  40ca80:	48 81 c7 20 00 00 00 	add    $0x20,%rdi
  40ca87:	e8 74 ad ff ff       	callq  407800 <_ZNSsD1Ev@plt>
  40ca8c:	48 83 c4 10          	add    $0x10,%rsp
  40ca90:	5d                   	pop    %rbp
  40ca91:	c3                   	retq   
--
  40cace:	e9 00 00 00 00       	jmpq   40cad3 <_ZNSt8_Rb_treeISsSt4pairIKSsSsESt10_Select1stIS2_ESt4lessISsESaIS2_EED2Ev+0x33>
  40cad3:	48 8b 7d e0          	mov    -0x20(%rbp),%rdi
  40cad7:	e8 34 c5 00 00       	callq  419010 <_ZNSt8_Rb_treeISsSt4pairIKSsSsESt10_Select1stIS2_ESt4lessISsESaIS2_EE13_Rb_tree_implIS6_Lb1EED2Ev1>
  40cadc:	48 83 c4 30          	add    $0x30,%rsp
  40cae0:	5d                   	pop    %rbp
  40cae1:	c3                   	retq   
--
  40cb5b:	48 8b 45 e8          	mov    -0x18(%rbp),%rax
  40cb5f:	48 89 45 f0          	mov    %rax,-0x10(%rbp)
  40cb63:	e9 b0 ff ff ff       	jmpq   40cb18 <_ZNSt8_Rb_treeISsSt4pairIKSsSsESt10_Select1stIS2_ESt4lessISsESaIS2_EE8_M_eraseEPSt13_Rb_tree_nodeIS2_E+0x18>
  40cb68:	48 83 c4 20          	add    $0x20,%rsp
  40cb6c:	5d                   	pop    %rbp
  40cb6d:	c3                   	retq   
--
  40cb74:	48 89 7d f8          	mov    %rdi,-0x8(%rbp)
  40cb78:	48 8b 7d f8          	mov    -0x8(%rbp),%rdi
  40cb7c:	48 8b 7f 10          	mov    0x10(%rdi),%rdi
  40cb80:	48 89 f8             	mov    %rdi,%rax
  40cb83:	5d                   	pop    %rbp
  40cb84:	c3                   	retq   
--
  40cb98:	48 89 7d f8          	mov    %rdi,-0x8(%rbp)
  40cb9c:	48 8b 7d f8          	mov    -0x8(%rbp),%rdi
  40cba0:	e8 fb 61 01 00       	callq  422da0 <_ZNSaISt13_Rb_tree_nodeISt4pairIKSsSsEEED2Ev495>
  40cba5:	48 83 c4 10          	add    $0x10,%rsp
  40cba9:	5d                   	pop    %rbp
  40cbaa:	c3                   	retq   
--
  40cbb8:	48 89 7d f8          	mov    %rdi,-0x8(%rbp)
  40cbbc:	48 8b 7d f8          	mov    -0x8(%rbp),%rdi
  40cbc0:	e8 0b 4d 01 00       	callq  4218d0 <_ZN9__gnu_cxx13new_allocatorISt13_Rb_tree_nodeISt4pairIKSsSsEEED2Ev436>
  40cbc5:	48 83 c4 10          	add    $0x10,%rsp
  40cbc9:	5d                   	pop    %rbp
  40cbca:	c3                   	retq   
--
000000000040cbd0 <_ZN9__gnu_cxx13new_allocatorISt13_Rb_tree_nodeISt4pairIKSsSsEEED2Ev>:
  40cbd0:	55                   	push   %rbp
  40cbd1:	48 89 e5             	mov    %rsp,%rbp
  40cbd4:	48 89 7d f8          	mov    %rdi,-0x8(%rbp)
  40cbd8:	5d                   	pop    %rbp
  40cbd9:	c3                   	retq   
--
  40cbe4:	48 89 7d f8          	mov    %rdi,-0x8(%rbp)
  40cbe8:	48 8b 7d f8          	mov    -0x8(%rbp),%rdi
  40cbec:	48 8b 7f 18          	mov    0x18(%rdi),%rdi
  40cbf0:	48 89 f8             	mov    %rdi,%rax
  40cbf3:	5d                   	pop    %rbp
  40cbf4:	c3                   	retq   
--
  40cc04:	48 89 7d f8          	mov    %rdi,-0x8(%rbp)
  40cc08:	48 8b 7d f8          	mov    -0x8(%rbp),%rdi
  40cc0c:	48 8b 7f 10          	mov    0x10(%rdi),%rdi
  40cc10:	48 89 f8             	mov    %rdi,%rax
  40cc13:	5d                   	pop    %rbp
  40cc14:	c3                   	retq   
--
  40cc4c:	48 8b 75 f0          	mov    -0x10(%rbp),%rsi
  40cc50:	48 8b 7d e8          	mov    -0x18(%rbp),%rdi
  40cc54:	e8 37 0b 01 00       	callq  41d790 <_ZNSt8_Rb_treeISsSt4pairIKSsSsESt10_Select1stIS2_ESt4lessISsESaIS2_EE11_M_put_nodeEPSt13_Rb_tree_nodeIS2_E242>
  40cc59:	48 83 c4 20          	add    $0x20,%rsp
  40cc5d:	5d                   	pop    %rbp
  40cc5e:	c3                   	retq   
--
  40cc61:	48 89 e5             	mov    %rsp,%rbp
  40cc64:	48 89 7d f8          	mov    %rdi,-0x8(%rbp)
  40cc68:	48 8b 7d f8          	mov    -0x8(%rbp),%rdi
  40cc6c:	48 89 f8             	mov    %rdi,%rax
  40cc6f:	5d                   	pop    %rbp
  40cc70:	c3                   	retq   
--
  40cc8c:	48 89 75 f0          	mov    %rsi,-0x10(%rbp)
  40cc90:	48 8b 7d f0          	mov    -0x10(%rbp),%rdi
  40cc94:	e8 47 c5 00 00       	callq  4191e0 <_ZNSt13_Rb_tree_nodeISt4pairIKSsSsEED2Ev6>
  40cc99:	48 83 c4 10          	add    $0x10,%rsp
  40cc9d:	5d                   	pop    %rbp
  40cc9e:	c3                   	retq   
--
  40ccc3:	48 89 f7             	mov    %rsi,%rdi
  40ccc6:	48 8b 75 e8          	mov    -0x18(%rbp),%rsi
  40ccca:	e8 c1 52 01 00       	callq  421f90 <_ZN9__gnu_cxx13new_allocatorISt13_Rb_tree_nodeISt4pairIKSsSsEEE10deallocateEPS5_m450>
  40cccf:	48 83 c4 20          	add    $0x20,%rsp
  40ccd3:	5d                   	pop    %rbp
  40ccd4:	c3                   	retq   
--
  40ccf4:	48 8b 55 f0          	mov    -0x10(%rbp),%rdx
  40ccf8:	48 89 d7             	mov    %rdx,%rdi
  40ccfb:	e8 70 a9 ff ff       	callq  407670 <_ZdlPv@plt>
  40cd00:	48 83 c4 20          	add    $0x20,%rsp
  40cd04:	5d                   	pop    %rbp
  40cd05:	c3                   	retq   
--
  40cd1c:	48 8b 7d f8          	mov    -0x8(%rbp),%rdi
  40cd20:	48 81 c7 20 00 00 00 	add    $0x20,%rdi
  40cd27:	e8 44 c5 00 00       	callq  419270 <_ZNSt4pairIKSsSsED2Ev11>
  40cd2c:	48 83 c4 10          	add    $0x10,%rsp
  40cd30:	5d                   	pop    %rbp
  40cd31:	c3                   	retq   
--
  40cd60:	e8 9b aa ff ff       	callq  407800 <_ZNSsD1Ev@plt>
  40cd65:	48 8b 7d f0          	mov    -0x10(%rbp),%rdi
  40cd69:	e8 92 aa ff ff       	callq  407800 <_ZNSsD1Ev@plt>
  40cd6e:	48 83 c4 10          	add    $0x10,%rsp
  40cd72:	5d                   	pop    %rbp
  40cd73:	c3                   	retq   
--
  40cd88:	48 89 7d f8          	mov    %rdi,-0x8(%rbp)
  40cd8c:	48 8b 7d f8          	mov    -0x8(%rbp),%rdi
  40cd90:	e8 2b 8d 01 00       	callq  425ac0 <_ZN5boost8any_castIRKtEET_RNS_3anyE664>
  40cd95:	48 83 c4 10          	add    $0x10,%rsp
  40cd99:	5d                   	pop    %rbp
  40cd9a:	c3                   	retq   
--
  40cdfa:	e8 41 fb 00 00       	callq  41c940 <_ZN5boost12bad_any_castD2Ev197>
  40cdff:	e9 0a 00 00 00       	jmpq   40ce0e <_ZN5boost8any_castIRKtEET_RNS_3anyE+0x6e>
  40ce04:	48 8b 45 f0          	mov    -0x10(%rbp),%rax
  40ce08:	48 83 c4 30          	add    $0x30,%rsp
  40ce0c:	5d                   	pop    %rbp
  40ce0d:	c3                   	retq   
--
  40ce96:	48 89 4d e0          	mov    %rcx,-0x20(%rbp)
  40ce9a:	e9 00 00 00 00       	jmpq   40ce9f <_ZN5boost8any_castIKtEEPT_PNS_3anyE+0x7f>
  40ce9f:	48 8b 45 e0          	mov    -0x20(%rbp),%rax
  40cea3:	48 83 c4 30          	add    $0x30,%rsp
  40cea7:	5d                   	pop    %rbp
  40cea8:	c3                   	retq   
--
  40cee4:	48 8b 75 f8          	mov    -0x8(%rbp),%rsi
  40cee8:	48 8d 4d c8          	lea    -0x38(%rbp),%rcx
  40ceec:	48 89 7d b0          	mov    %rdi,-0x50(%rbp)
  40cef0:	48 89 cf             	mov    %rcx,%rdi
  40cef3:	48 89 45 a8          	mov    %rax,-0x58(%rbp)
  40cef7:	e8 54 74 01 00       	callq  424350 <_ZN5boost17enable_error_infoINS_12bad_any_castEEENS_16exception_detail29enable_error_info_return_typeIT_E4typeERKS4_579>
--
  40cfa6:	48 05 10 00 00 00    	add    $0x10,%rax
  40cfac:	48 8b 7d f0          	mov    -0x10(%rbp),%rdi
  40cfb0:	48 89 07             	mov    %rax,(%rdi)
  40cfb3:	48 83 c4 10          	add    $0x10,%rsp
  40cfb7:	5d                   	pop    %rbp
  40cfb8:	c3                   	retq   
--
  40cfc8:	48 89 7d f8          	mov    %rdi,-0x8(%rbp)
  40cfcc:	48 8b 7d f8          	mov    -0x8(%rbp),%rdi
  40cfd0:	e8 cb a5 ff ff       	callq  4075a0 <_ZNSt8bad_castD2Ev@plt>
  40cfd5:	48 83 c4 10          	add    $0x10,%rsp
  40cfd9:	5d                   	pop    %rbp
  40cfda:	c3                   	retq   
--
  40d006:	48 05 10 00 00 00    	add    $0x10,%rax
  40d00c:	48 8b 7d f0          	mov    -0x10(%rbp),%rdi
  40d010:	48 89 07             	mov    %rax,(%rdi)
  40d013:	48 83 c4 10          	add    $0x10,%rsp
  40d017:	5d                   	pop    %rbp
  40d018:	c3                   	retq   
--
  40d034:	e8 07 f9 00 00       	callq  41c940 <_ZN5boost12bad_any_castD2Ev197>
  40d039:	48 8b 7d f0          	mov    -0x10(%rbp),%rdi
  40d03d:	e8 2e a6 ff ff       	callq  407670 <_ZdlPv@plt>
  40d042:	48 83 c4 10          	add    $0x10,%rsp
  40d046:	5d                   	pop    %rbp
  40d047:	c3                   	retq   
--
  40d050:	55                   	push   %rbp
  40d051:	48 89 e5             	mov    %rsp,%rbp
  40d054:	48 8d 05 00 9e 01 00 	lea    0x19e00(%rip),%rax        # 426e5b <_IO_stdin_used+0x25b>
  40d05b:	48 89 7d f8          	mov    %rdi,-0x8(%rbp)
  40d05f:	5d                   	pop    %rbp
  40d060:	c3                   	retq   
--
  40d07b:	48 05 10 00 00 00    	add    $0x10,%rax
  40d081:	48 89 7d f8          	mov    %rdi,-0x8(%rbp)
  40d085:	48 8b 7d f8          	mov    -0x8(%rbp),%rdi
  40d089:	48 89 07             	mov    %rax,(%rdi)
  40d08c:	5d                   	pop    %rbp
  40d08d:	c3                   	retq   
--
000000000040d090 <_ZN5boost36throw_exception_assert_compatibilityERKSt9exception>:
  40d090:	55                   	push   %rbp
  40d091:	48 89 e5             	mov    %rsp,%rbp
  40d094:	48 89 7d f8          	mov    %rdi,-0x8(%rbp)
  40d098:	5d                   	pop    %rbp
  40d099:	c3                   	retq   
--
  40d0b3:	48 89 45 f0          	mov    %rax,-0x10(%rbp)
  40d0b7:	e8 f4 6e 01 00       	callq  423fb0 <_ZN5boost16exception_detail10clone_implINS0_19error_info_injectorINS_12bad_any_castEEEEC1ERKS4_565>
  40d0bc:	48 8b 45 f0          	mov    -0x10(%rbp),%rax
  40d0c0:	48 83 c4 10          	add    $0x10,%rsp
  40d0c4:	5d                   	pop    %rbp
  40d0c5:	c3                   	retq   
  40d0c6:	66 2e 0f 1f 84 00 00 	nopw   %cs:0x0(%rax,%rax,1)
  40d0cd:	00 00 00 

000000000040d0d0 <_ZN5boost17enable_error_infoINS_12bad_any_castEEENS_16exception_detail29enable_error_info_return_typeIT_E4typeERKS4_>:
--
  40d0e3:	48 89 45 f0          	mov    %rax,-0x10(%rbp)
  40d0e7:	e8 64 21 01 00       	callq  41f250 <_ZN5boost16exception_detail19error_info_injectorINS_12bad_any_castEEC2ERKS2_330>
  40d0ec:	48 8b 45 f0          	mov    -0x10(%rbp),%rax
  40d0f0:	48 83 c4 10          	add    $0x10,%rsp
  40d0f4:	5d                   	pop    %rbp
  40d0f5:	c3                   	retq   
--
  40d124:	48 81 c6 30 00 00 00 	add    $0x30,%rsi
  40d12b:	48 89 f7             	mov    %rsi,%rdi
  40d12e:	e8 fd 2a 01 00       	callq  41fc30 <_ZN5boost16exception_detail10clone_baseD2Ev363>
  40d133:	48 83 c4 10          	add    $0x10,%rsp
  40d137:	5d                   	pop    %rbp
  40d138:	c3                   	retq   
--
  40d165:	48 8b 45 f0          	mov    -0x10(%rbp),%rax
  40d169:	48 89 c7             	mov    %rax,%rdi
  40d16c:	e8 cf f7 00 00       	callq  41c940 <_ZN5boost12bad_any_castD2Ev197>
  40d171:	48 83 c4 10          	add    $0x10,%rsp
  40d175:	5d                   	pop    %rbp
  40d176:	c3                   	retq   
--
  40d18c:	48 8b 7d f8          	mov    -0x8(%rbp),%rdi
  40d190:	48 81 c7 f8 ff ff ff 	add    $0xfffffffffffffff8,%rdi
  40d197:	e8 84 5d 01 00       	callq  422f20 <_ZN5boost16exception_detail19error_info_injectorINS_12bad_any_castEED2Ev503>
  40d19c:	48 83 c4 10          	add    $0x10,%rsp
  40d1a0:	5d                   	pop    %rbp
  40d1a1:	c3                   	retq   
--
  40d1cd:	48 89 07             	mov    %rax,(%rdi)
  40d1d0:	48 81 c7 08 00 00 00 	add    $0x8,%rdi
  40d1d7:	e8 e4 35 01 00       	callq  4207c0 <_ZN5boost16exception_detail12refcount_ptrINS0_20error_info_containerEED2Ev400>
  40d1dc:	48 83 c4 10          	add    $0x10,%rsp
  40d1e0:	5d                   	pop    %rbp
  40d1e1:	c3                   	retq   
--
  40d1f8:	48 89 7d f8          	mov    %rdi,-0x8(%rbp)
  40d1fc:	e8 2f 82 01 00       	callq  425430 <_ZN5boost16exception_detail12refcount_ptrINS0_20error_info_containerEE7releaseEv637>
  40d201:	e9 00 00 00 00       	jmpq   40d206 <_ZN5boost16exception_detail12refcount_ptrINS0_20error_info_containerEED2Ev+0x16>
  40d206:	48 83 c4 10          	add    $0x10,%rsp
  40d20a:	5d                   	pop    %rbp
  40d20b:	c3                   	retq   
--
  40d259:	e9 0b 00 00 00       	jmpq   40d269 <_ZN5boost16exception_detail12refcount_ptrINS0_20error_info_containerEE7releaseEv+0x49>
  40d25e:	48 8b 45 f0          	mov    -0x10(%rbp),%rax
  40d262:	48 c7 00 00 00 00 00 	movq   $0x0,(%rax)
  40d269:	48 83 c4 10          	add    $0x10,%rsp
  40d26d:	5d                   	pop    %rbp
  40d26e:	c3                   	retq   
--
  40d280:	48 8b 75 f8          	mov    -0x8(%rbp),%rsi
  40d284:	48 89 f7             	mov    %rsi,%rdi
  40d287:	e8 94 5c 01 00       	callq  422f20 <_ZN5boost16exception_detail19error_info_injectorINS_12bad_any_castEED2Ev503>
  40d28c:	48 83 c4 10          	add    $0x10,%rsp
  40d290:	5d                   	pop    %rbp
  40d291:	c3                   	retq   
--
  40d2ac:	48 8b 7d f8          	mov    -0x8(%rbp),%rdi
  40d2b0:	48 81 c7 f8 ff ff ff 	add    $0xfffffffffffffff8,%rdi
  40d2b7:	e8 94 26 01 00       	callq  41f950 <_ZN5boost16exception_detail10clone_implINS0_19error_info_injectorINS_12bad_any_castEEEED1Ev351>
  40d2bc:	48 83 c4 10          	add    $0x10,%rsp
  40d2c0:	5d                   	pop    %rbp
  40d2c1:	c3                   	retq   
--
  40d2e6:	48 03 47 d8          	add    -0x28(%rdi),%rax
  40d2ea:	48 89 c7             	mov    %rax,%rdi
  40d2ed:	e8 5e 26 01 00       	callq  41f950 <_ZN5boost16exception_detail10clone_implINS0_19error_info_injectorINS_12bad_any_castEEEED1Ev351>
  40d2f2:	48 83 c4 10          	add    $0x10,%rsp
  40d2f6:	5d                   	pop    %rbp
  40d2f7:	c3                   	retq   
--
  40d314:	e8 37 26 01 00       	callq  41f950 <_ZN5boost16exception_detail10clone_implINS0_19error_info_injectorINS_12bad_any_castEEEED1Ev351>
  40d319:	48 8b 7d f0          	mov    -0x10(%rbp),%rdi
  40d31d:	e8 4e a3 ff ff       	callq  407670 <_ZdlPv@plt>
  40d322:	48 83 c4 10          	add    $0x10,%rsp
  40d326:	5d                   	pop    %rbp
  40d327:	c3                   	retq   
--
  40d392:	48 01 c8             	add    %rcx,%rax
  40d395:	48 89 45 c0          	mov    %rax,-0x40(%rbp)
  40d399:	48 8b 45 c0          	mov    -0x40(%rbp),%rax
  40d39d:	48 83 c4 40          	add    $0x40,%rsp
  40d3a1:	5d                   	pop    %rbp
  40d3a2:	c3                   	retq   
--
  40d3b0:	e8 bb a2 ff ff       	callq  407670 <_ZdlPv@plt>
  40d3b5:	48 8b 7d e8          	mov    -0x18(%rbp),%rdi
  40d3b9:	e8 a2 a8 ff ff       	callq  407c60 <_Unwind_Resume@plt>
  40d3be:	66 90                	xchg   %ax,%ax

000000000040d3c0 <_ZNK5boost16exception_detail10clone_implINS0_19error_info_injectorINS_12bad_any_castEEEE7rethrowEv>:
--
  40d3df:	48 89 c1             	mov    %rax,%rcx
  40d3e2:	48 89 c7             	mov    %rax,%rdi
  40d3e5:	48 8b 75 e0          	mov    -0x20(%rbp),%rsi
  40d3e9:	48 89 4d d8          	mov    %rcx,-0x28(%rbp)
  40d3ed:	e8 5e cc 00 00       	callq  41a050 <_ZN5boost16exception_detail10clone_implINS0_19error_info_injectorINS_12bad_any_castEEEEC1ERKS5_69>
  40d3f2:	e9 00 00 00 00       	jmpq   40d3f7 <_ZNK5boost16exception_detail10clone_implINS0_19error_info_injectorINS_12bad_any_castEEEE7rethrowEv+0x37>
--
  40d43c:	48 8b 7d f8          	mov    -0x8(%rbp),%rdi
  40d440:	48 81 c7 f8 ff ff ff 	add    $0xfffffffffffffff8,%rdi
  40d447:	e8 24 e0 00 00       	callq  41b470 <_ZN5boost16exception_detail10clone_implINS0_19error_info_injectorINS_12bad_any_castEEEED0Ev124>
  40d44c:	48 83 c4 10          	add    $0x10,%rsp
  40d450:	5d                   	pop    %rbp
  40d451:	c3                   	retq   
--
  40d476:	48 03 47 e8          	add    -0x18(%rdi),%rax
  40d47a:	48 89 c7             	mov    %rax,%rdi
  40d47d:	e8 1e 27 01 00       	callq  41fba0 <_ZNK5boost16exception_detail10clone_implINS0_19error_info_injectorINS_12bad_any_castEEEE5cloneEv362>
  40d482:	48 83 c4 10          	add    $0x10,%rsp
  40d486:	5d                   	pop    %rbp
  40d487:	c3                   	retq   
  40d488:	0f 1f 84 00 00 00 00 	nopl   0x0(%rax,%rax,1)
  40d48f:	00 

000000000040d490 <_ZTv0_n32_NK5boost16exception_detail10clone_implINS0_19error_info_injectorINS_12bad_any_castEEEE7rethrowEv>:
--
  40d49c:	48 8b 7d f8          	mov    -0x8(%rbp),%rdi
  40d4a0:	48 89 f8             	mov    %rdi,%rax
  40d4a3:	48 8b 3f             	mov    (%rdi),%rdi
  40d4a6:	48 03 47 e0          	add    -0x20(%rdi),%rax
  40d4aa:	48 89 c7             	mov    %rax,%rdi
  40d4ad:	e8 ee d7 00 00       	callq  41aca0 <_ZNK5boost16exception_detail10clone_implINS0_19error_info_injectorINS_12bad_any_castEEEE7rethrowEv92>
  40d4b2:	48 83 c4 10          	add    $0x10,%rsp
  40d4b6:	5d                   	pop    %rbp
  40d4b7:	c3                   	retq   
--
  40d4d6:	48 03 47 d8          	add    -0x28(%rdi),%rax
  40d4da:	48 89 c7             	mov    %rax,%rdi
  40d4dd:	e8 8e df 00 00       	callq  41b470 <_ZN5boost16exception_detail10clone_implINS0_19error_info_injectorINS_12bad_any_castEEEED0Ev124>
  40d4e2:	48 83 c4 10          	add    $0x10,%rsp
  40d4e6:	5d                   	pop    %rbp
  40d4e7:	c3                   	retq   
--
  40d558:	48 89 06             	mov    %rax,(%rsi)
  40d55b:	48 89 56 08          	mov    %rdx,0x8(%rsi)
  40d55f:	48 89 4e 30          	mov    %rcx,0x30(%rsi)
  40d563:	48 83 c4 30          	add    $0x30,%rsp
  40d567:	5d                   	pop    %rbp
  40d568:	c3                   	retq   
--
  40d5a1:	48 89 7d f8          	mov    %rdi,-0x8(%rbp)
  40d5a5:	48 89 75 f0          	mov    %rsi,-0x10(%rbp)
  40d5a9:	48 8b 75 f8          	mov    -0x8(%rbp),%rsi
  40d5ad:	48 89 06             	mov    %rax,(%rsi)
  40d5b0:	5d                   	pop    %rbp
  40d5b1:	c3                   	retq   
--
  40d619:	48 8b 55 d8          	mov    -0x28(%rbp),%rdx
  40d61d:	48 89 02             	mov    %rax,(%rdx)
  40d620:	48 89 4a 08          	mov    %rcx,0x8(%rdx)
  40d624:	48 83 c4 30          	add    $0x30,%rsp
  40d628:	5d                   	pop    %rbp
  40d629:	c3                   	retq   
--
  40d67e:	48 05 10 00 00 00    	add    $0x10,%rax
  40d684:	48 8b 75 e8          	mov    -0x18(%rbp),%rsi
  40d688:	48 89 06             	mov    %rax,(%rsi)
  40d68b:	48 83 c4 20          	add    $0x20,%rsp
  40d68f:	5d                   	pop    %rbp
  40d690:	c3                   	retq   
--
  40d703:	48 89 77 18          	mov    %rsi,0x18(%rdi)
  40d707:	8b 48 20             	mov    0x20(%rax),%ecx
  40d70a:	89 4f 20             	mov    %ecx,0x20(%rdi)
  40d70d:	48 83 c4 20          	add    $0x20,%rsp
  40d711:	5d                   	pop    %rbp
  40d712:	c3                   	retq   
--
  40d734:	e8 e7 57 01 00       	callq  422f20 <_ZN5boost16exception_detail19error_info_injectorINS_12bad_any_castEED2Ev503>
  40d739:	48 8b 7d f0          	mov    -0x10(%rbp),%rdi
  40d73d:	e8 2e 9f ff ff       	callq  407670 <_ZdlPv@plt>
  40d742:	48 83 c4 10          	add    $0x10,%rsp
  40d746:	5d                   	pop    %rbp
  40d747:	c3                   	retq   
--
  40d75c:	48 8b 7d f8          	mov    -0x8(%rbp),%rdi
  40d760:	48 81 c7 f8 ff ff ff 	add    $0xfffffffffffffff8,%rdi
  40d767:	e8 24 f9 00 00       	callq  41d090 <_ZN5boost16exception_detail19error_info_injectorINS_12bad_any_castEED0Ev218>
  40d76c:	48 83 c4 10          	add    $0x10,%rsp
  40d770:	5d                   	pop    %rbp
  40d771:	c3                   	retq   
--
  40d79b:	48 89 3e             	mov    %rdi,(%rsi)
  40d79e:	48 89 f7             	mov    %rsi,%rdi
  40d7a1:	e8 0a eb 00 00       	callq  41c2b0 <_ZN5boost16exception_detail12refcount_ptrINS0_20error_info_containerEE7add_refEv178>
  40d7a6:	48 83 c4 10          	add    $0x10,%rsp
  40d7aa:	5d                   	pop    %rbp
  40d7ab:	c3                   	retq   
--
  40d7d8:	48 8b 11             	mov    (%rcx),%rdx
  40d7db:	48 89 cf             	mov    %rcx,%rdi
  40d7de:	ff 52 18             	callq  *0x18(%rdx)
  40d7e1:	48 83 c4 10          	add    $0x10,%rsp
  40d7e5:	5d                   	pop    %rbp
  40d7e6:	c3                   	retq   
--
  40d81e:	48 05 10 00 00 00    	add    $0x10,%rax
  40d824:	48 8b 75 e8          	mov    -0x18(%rbp),%rsi
  40d828:	48 89 06             	mov    %rax,(%rsi)
  40d82b:	48 83 c4 20          	add    $0x20,%rsp
  40d82f:	5d                   	pop    %rbp
  40d830:	c3                   	retq   
--
  40d851:	48 89 7d f8          	mov    %rdi,-0x8(%rbp)
  40d855:	48 89 75 f0          	mov    %rsi,-0x10(%rbp)
  40d859:	48 8b 75 f8          	mov    -0x8(%rbp),%rsi
  40d85d:	48 89 06             	mov    %rax,(%rsi)
  40d860:	5d                   	pop    %rbp
  40d861:	c3                   	retq   
--
000000000040d870 <_ZN5boost16exception_detail10clone_baseD2Ev>:
  40d870:	55                   	push   %rbp
  40d871:	48 89 e5             	mov    %rsp,%rbp
  40d874:	48 89 7d f8          	mov    %rdi,-0x8(%rbp)
  40d878:	5d                   	pop    %rbp
  40d879:	c3                   	retq   
--
  40d894:	e8 97 23 01 00       	callq  41fc30 <_ZN5boost16exception_detail10clone_baseD2Ev363>
  40d899:	48 8b 7d f0          	mov    -0x10(%rbp),%rdi
  40d89d:	e8 ce 9d ff ff       	callq  407670 <_ZdlPv@plt>
  40d8a2:	48 83 c4 10          	add    $0x10,%rsp
  40d8a6:	5d                   	pop    %rbp
  40d8a7:	c3                   	retq   
--
  40d955:	48 89 c6             	mov    %rax,%rsi
  40d958:	e8 a3 11 01 00       	callq  41eb00 <_ZN5boost16exception_detail20copy_boost_exceptionEPNS_9exceptionEPKS1_315>
  40d95d:	e9 00 00 00 00       	jmpq   40d962 <_ZN5boost16exception_detail10clone_implINS0_19error_info_injectorINS_12bad_any_castEEEEC1ERKS5_NS5_9clone_tagE+0xb2>
  40d962:	48 83 c4 50          	add    $0x50,%rsp
  40d966:	5d                   	pop    %rbp
  40d967:	c3                   	retq   
--
  40d9bb:	48 05 10 00 00 00    	add    $0x10,%rax
  40d9c1:	48 89 7d f8          	mov    %rdi,-0x8(%rbp)
  40d9c5:	48 8b 7d f8          	mov    -0x8(%rbp),%rdi
  40d9c9:	48 89 07             	mov    %rax,(%rdi)
  40d9cc:	5d                   	pop    %rbp
  40d9cd:	c3                   	retq   
--
  40dac0:	e9 00 00 00 00       	jmpq   40dac5 <_ZN5boost16exception_detail20copy_boost_exceptionEPNS_9exceptionEPKS1_+0xf5>
  40dac5:	48 8d 7d e8          	lea    -0x18(%rbp),%rdi
  40dac9:	e8 f2 2c 01 00       	callq  4207c0 <_ZN5boost16exception_detail12refcount_ptrINS0_20error_info_containerEED2Ev400>
  40dace:	48 83 c4 50          	add    $0x50,%rsp
  40dad2:	5d                   	pop    %rbp
  40dad3:	c3                   	retq   
--
  40daf1:	48 89 e5             	mov    %rsp,%rbp
  40daf4:	48 89 7d f8          	mov    %rdi,-0x8(%rbp)
  40daf8:	48 8b 7d f8          	mov    -0x8(%rbp),%rdi
  40dafc:	48 c7 07 00 00 00 00 	movq   $0x0,(%rdi)
  40db03:	5d                   	pop    %rbp
  40db04:	c3                   	retq   
--
  40db11:	48 89 e5             	mov    %rsp,%rbp
  40db14:	48 89 7d f8          	mov    %rdi,-0x8(%rbp)
  40db18:	48 8b 7d f8          	mov    -0x8(%rbp),%rdi
  40db1c:	48 8b 07             	mov    (%rdi),%rax
  40db1f:	5d                   	pop    %rbp
  40db20:	c3                   	retq   
--
  40db5a:	48 89 c6             	mov    %rax,%rsi
  40db5d:	e8 7e 76 01 00       	callq  4251e0 <_ZN5boost16exception_detail12refcount_ptrINS0_20error_info_containerEE5adoptEPS2_628>
  40db62:	48 8b 45 e0          	mov    -0x20(%rbp),%rax
  40db66:	48 83 c4 20          	add    $0x20,%rsp
  40db6a:	5d                   	pop    %rbp
  40db6b:	c3                   	retq   
--
  40db94:	48 8b 7d e8          	mov    -0x18(%rbp),%rdi
  40db98:	48 89 37             	mov    %rsi,(%rdi)
  40db9b:	e8 10 e7 00 00       	callq  41c2b0 <_ZN5boost16exception_detail12refcount_ptrINS0_20error_info_containerEE7add_refEv178>
  40dba0:	48 83 c4 20          	add    $0x20,%rsp
  40dba4:	5d                   	pop    %rbp
  40dba5:	c3                   	retq   
--
  40dbf9:	48 8b 55 d8          	mov    -0x28(%rbp),%rdx
  40dbfd:	48 89 02             	mov    %rax,(%rdx)
  40dc00:	48 89 4a 08          	mov    %rcx,0x8(%rdx)
  40dc04:	48 83 c4 30          	add    $0x30,%rsp
  40dc08:	5d                   	pop    %rbp
  40dc09:	c3                   	retq   
--
  40dc71:	48 c7 40 18 00 00 00 	movq   $0x0,0x18(%rax)
  40dc78:	00 
  40dc79:	c7 40 20 ff ff ff ff 	movl   $0xffffffff,0x20(%rax)
  40dc80:	48 83 c4 10          	add    $0x10,%rsp
  40dc84:	5d                   	pop    %rbp
  40dc85:	c3                   	retq   
--
  40dd35:	48 89 c6             	mov    %rax,%rsi
  40dd38:	e8 c3 0d 01 00       	callq  41eb00 <_ZN5boost16exception_detail20copy_boost_exceptionEPNS_9exceptionEPKS1_315>
  40dd3d:	e9 00 00 00 00       	jmpq   40dd42 <_ZN5boost16exception_detail10clone_implINS0_19error_info_injectorINS_12bad_any_castEEEEC1ERKS4_+0xb2>
  40dd42:	48 83 c4 40          	add    $0x40,%rsp
  40dd46:	5d                   	pop    %rbp
  40dd47:	c3                   	retq   
--
  40ddd1:	48 89 45 e8          	mov    %rax,-0x18(%rbp)
  40ddd5:	e9 00 00 00 00       	jmpq   40ddda <_ZNK5boost3any4typeEv+0x4a>
  40ddda:	48 8b 45 e8          	mov    -0x18(%rbp),%rax
  40ddde:	48 83 c4 20          	add    $0x20,%rsp
  40dde2:	5d                   	pop    %rbp
  40dde3:	c3                   	retq   
--
  40de2b:	48 8b 45 f0          	mov    -0x10(%rbp),%rax
  40de2f:	48 8b 48 08          	mov    0x8(%rax),%rcx
  40de33:	48 89 4d e8          	mov    %rcx,-0x18(%rbp)
  40de37:	48 8b 45 e8          	mov    -0x18(%rbp),%rax
  40de3b:	5d                   	pop    %rbp
  40de3c:	c3                   	retq   
--
  40de7e:	8a 45 f7             	mov    -0x9(%rbp),%al
  40de81:	24 01                	and    $0x1,%al
  40de83:	0f b6 c0             	movzbl %al,%eax
  40de86:	48 83 c4 10          	add    $0x10,%rsp
  40de8a:	5d                   	pop    %rbp
  40de8b:	c3                   	retq   
--
  40de91:	48 89 e5             	mov    %rsp,%rbp
  40de94:	48 89 7d f8          	mov    %rdi,-0x8(%rbp)
  40de98:	48 8b 7d f8          	mov    -0x8(%rbp),%rdi
  40de9c:	8b 07                	mov    (%rdi),%eax
  40de9e:	5d                   	pop    %rbp
  40de9f:	c3                   	retq   
--
  40dea8:	48 89 7d f8          	mov    %rdi,-0x8(%rbp)
  40deac:	48 8b 7d f8          	mov    -0x8(%rbp),%rdi
  40deb0:	e8 5b 03 01 00       	callq  41e210 <_ZN5boost8any_castIRKSsEET_RNS_3anyE282>
  40deb5:	48 83 c4 10          	add    $0x10,%rsp
  40deb9:	5d                   	pop    %rbp
  40deba:	c3                   	retq   
--
  40df1a:	e8 21 ea 00 00       	callq  41c940 <_ZN5boost12bad_any_castD2Ev197>
  40df1f:	e9 0a 00 00 00       	jmpq   40df2e <_ZN5boost8any_castIRKSsEET_RNS_3anyE+0x6e>
  40df24:	48 8b 45 f0          	mov    -0x10(%rbp),%rax
  40df28:	48 83 c4 30          	add    $0x30,%rsp
  40df2c:	5d                   	pop    %rbp
  40df2d:	c3                   	retq   
--
  40dfb6:	48 89 4d e0          	mov    %rcx,-0x20(%rbp)
  40dfba:	e9 00 00 00 00       	jmpq   40dfbf <_ZN5boost8any_castIKSsEEPT_PNS_3anyE+0x7f>
  40dfbf:	48 8b 45 e0          	mov    -0x20(%rbp),%rax
  40dfc3:	48 83 c4 30          	add    $0x30,%rsp
  40dfc7:	5d                   	pop    %rbp
  40dfc8:	c3                   	retq   
--
  40e087:	48 8b 45 e0          	mov    -0x20(%rbp),%rax
  40e08b:	48 89 45 f8          	mov    %rax,-0x8(%rbp)
  40e08f:	48 8b 45 f8          	mov    -0x8(%rbp),%rax
  40e093:	48 83 c4 40          	add    $0x40,%rsp
  40e097:	5d                   	pop    %rbp
  40e098:	c3                   	retq   
--
  40e0b7:	48 3b 37             	cmp    (%rdi),%rsi
  40e0ba:	0f 94 c0             	sete   %al
  40e0bd:	24 01                	and    $0x1,%al
  40e0bf:	0f b6 c0             	movzbl %al,%eax
  40e0c2:	5d                   	pop    %rbp
  40e0c3:	c3                   	retq   
--
  40e0ef:	e8 ac 61 01 00       	callq  4242a0 <_ZNSt23_Rb_tree_const_iteratorISt4pairIKSsN5boost15program_options14variable_valueEEEC2EPKSt13_Rb_tree_nodeIS5_E576>
  40e0f4:	e9 00 00 00 00       	jmpq   40e0f9 <_ZNKSt8_Rb_treeISsSt4pairIKSsN5boost15program_options14variable_valueEESt10_Select1stIS5_ESt4lessISsESaIS5_EE3endEv+0x29>
  40e0f9:	48 8b 45 f8          	mov    -0x8(%rbp),%rax
  40e0fd:	48 83 c4 20          	add    $0x20,%rsp
  40e101:	5d                   	pop    %rbp
  40e102:	c3                   	retq   
--
  40e118:	48 89 75 f0          	mov    %rsi,-0x10(%rbp)
  40e11c:	48 8b 75 f8          	mov    -0x8(%rbp),%rsi
  40e120:	48 8b 7d f0          	mov    -0x10(%rbp),%rdi
  40e124:	48 89 3e             	mov    %rdi,(%rsi)
  40e127:	5d                   	pop    %rbp
  40e128:	c3                   	retq   
--
  40e1b5:	48 8b 75 e0          	mov    -0x20(%rbp),%rsi
  40e1b9:	e8 e2 60 01 00       	callq  4242a0 <_ZNSt23_Rb_tree_const_iteratorISt4pairIKSsN5boost15program_options14variable_valueEEEC2EPKSt13_Rb_tree_nodeIS5_E576>
  40e1be:	48 8b 45 f8          	mov    -0x8(%rbp),%rax
  40e1c2:	48 83 c4 30          	add    $0x30,%rsp
  40e1c6:	5d                   	pop    %rbp
  40e1c7:	c3                   	retq   
--
  40e1d4:	48 89 7d f8          	mov    %rdi,-0x8(%rbp)
  40e1d8:	48 8b 7d f8          	mov    -0x8(%rbp),%rdi
  40e1dc:	48 8b 7f 10          	mov    0x10(%rdi),%rdi
  40e1e0:	48 89 f8             	mov    %rdi,%rax
  40e1e3:	5d                   	pop    %rbp
  40e1e4:	c3                   	retq   
--
  40e1f4:	48 89 7d f8          	mov    %rdi,-0x8(%rbp)
  40e1f8:	48 8b 7d f8          	mov    -0x8(%rbp),%rdi
  40e1fc:	48 81 c7 08 00 00 00 	add    $0x8,%rdi
  40e203:	48 89 f8             	mov    %rdi,%rax
  40e206:	5d                   	pop    %rbp
  40e207:	c3                   	retq   
--
  40e22c:	e8 6f 2d 01 00       	callq  420fa0 <_ZStltIcSt11char_traitsIcESaIcEEbRKSbIT_T0_T1_ES8_412>
  40e231:	24 01                	and    $0x1,%al
  40e233:	0f b6 c0             	movzbl %al,%eax
  40e236:	48 83 c4 20          	add    $0x20,%rsp
  40e23a:	5d                   	pop    %rbp
  40e23b:	c3                   	retq   
--
  40e255:	48 8d 7d f0          	lea    -0x10(%rbp),%rdi
  40e259:	48 89 c6             	mov    %rax,%rsi
  40e25c:	e8 2f 01 01 00       	callq  41e390 <_ZNKSt10_Select1stISt4pairIKSsN5boost15program_options14variable_valueEEEclERKS5_288>
  40e261:	48 83 c4 10          	add    $0x10,%rsp
  40e265:	5d                   	pop    %rbp
  40e266:	c3                   	retq   
--
  40e271:	48 89 e5             	mov    %rsp,%rbp
  40e274:	48 89 7d f8          	mov    %rdi,-0x8(%rbp)
  40e278:	48 89 75 f0          	mov    %rsi,-0x10(%rbp)
  40e27c:	48 8b 45 f0          	mov    -0x10(%rbp),%rax
  40e280:	5d                   	pop    %rbp
  40e281:	c3                   	retq   
--
  40e294:	48 89 7d f8          	mov    %rdi,-0x8(%rbp)
  40e298:	48 8b 7d f8          	mov    -0x8(%rbp),%rdi
  40e29c:	48 81 c7 20 00 00 00 	add    $0x20,%rdi
  40e2a3:	48 89 f8             	mov    %rdi,%rax
  40e2a6:	5d                   	pop    %rbp
  40e2a7:	c3                   	retq   
--
  40e2d2:	0f 9c c1             	setl   %cl
  40e2d5:	80 e1 01             	and    $0x1,%cl
  40e2d8:	0f b6 c1             	movzbl %cl,%eax
  40e2db:	48 83 c4 10          	add    $0x10,%rsp
  40e2df:	5d                   	pop    %rbp
  40e2e0:	c3                   	retq   
--
  40e305:	48 8d 7d f0          	lea    -0x10(%rbp),%rdi
  40e309:	48 89 c6             	mov    %rax,%rsi
  40e30c:	e8 7f 00 01 00       	callq  41e390 <_ZNKSt10_Select1stISt4pairIKSsN5boost15program_options14variable_valueEEEclERKS5_288>
  40e311:	48 83 c4 10          	add    $0x10,%rsp
  40e315:	5d                   	pop    %rbp
  40e316:	c3                   	retq   
--
  40e324:	48 89 7d f8          	mov    %rdi,-0x8(%rbp)
  40e328:	48 8b 7d f8          	mov    -0x8(%rbp),%rdi
  40e32c:	48 8b 7f 10          	mov    0x10(%rdi),%rdi
  40e330:	48 89 f8             	mov    %rdi,%rax
  40e333:	5d                   	pop    %rbp
  40e334:	c3                   	retq   
--
  40e344:	48 89 7d f8          	mov    %rdi,-0x8(%rbp)
  40e348:	48 8b 7d f8          	mov    -0x8(%rbp),%rdi
  40e34c:	48 8b 7f 18          	mov    0x18(%rdi),%rdi
  40e350:	48 89 f8             	mov    %rdi,%rax
  40e353:	5d                   	pop    %rbp
  40e354:	c3                   	retq   
--
  40e364:	48 89 7d f8          	mov    %rdi,-0x8(%rbp)
  40e368:	48 8b 7d f8          	mov    -0x8(%rbp),%rdi
  40e36c:	48 81 c7 20 00 00 00 	add    $0x20,%rdi
  40e373:	48 89 f8             	mov    %rdi,%rax
  40e376:	5d                   	pop    %rbp
  40e377:	c3                   	retq   
--
  40e3b2:	e8 69 59 01 00       	callq  423d20 <_ZN5boost9function1ISt4pairISsSsERKSsED2Ev555>
  40e3b7:	48 8b 7d f0          	mov    -0x10(%rbp),%rdi
  40e3bb:	e8 40 f4 00 00       	callq  41d800 <_ZNSt6vectorISsSaISsEED2Ev244>
  40e3c0:	48 83 c4 10          	add    $0x10,%rsp
  40e3c4:	5d                   	pop    %rbp
  40e3c5:	c3                   	retq   
--
  40e3d8:	48 89 7d f8          	mov    %rdi,-0x8(%rbp)
  40e3dc:	e8 8f 1b 01 00       	callq  41ff70 <_ZN5boost9function1ISt6vectorINS_15program_options12basic_optionIcEESaIS4_EERS1_ISsSaISsEEE5clearEv368>
  40e3e1:	e9 00 00 00 00       	jmpq   40e3e6 <_ZN5boost9function1ISt6vectorINS_15program_options12basic_optionIcEESaIS4_EERS1_ISsSaISsEEED2Ev+0x16>
  40e3e6:	48 83 c4 10          	add    $0x10,%rsp
  40e3ea:	5d                   	pop    %rbp
  40e3eb:	c3                   	retq   
--
  40e408:	48 89 7d f8          	mov    %rdi,-0x8(%rbp)
  40e40c:	e8 7f fe 00 00       	callq  41e290 <_ZN5boost9function1ISt4pairISsSsERKSsE5clearEv283>
  40e411:	e9 00 00 00 00       	jmpq   40e416 <_ZN5boost9function1ISt4pairISsSsERKSsED2Ev+0x16>
  40e416:	48 83 c4 10          	add    $0x10,%rsp
  40e41a:	5d                   	pop    %rbp
  40e41b:	c3                   	retq   
--
  40e46c:	48 8b 45 d8          	mov    -0x28(%rbp),%rax
  40e470:	48 89 c7             	mov    %rax,%rdi
  40e473:	e8 98 47 01 00       	callq  422c10 <_ZNSt12_Vector_baseISsSaISsEED2Ev488>
  40e478:	48 83 c4 30          	add    $0x30,%rsp
  40e47c:	5d                   	pop    %rbp
  40e47d:	c3                   	retq   
--
  40e4b4:	48 8b 7d f8          	mov    -0x8(%rbp),%rdi
  40e4b8:	48 8b 75 f0          	mov    -0x10(%rbp),%rsi
  40e4bc:	e8 0f cc 00 00       	callq  41b0d0 <_ZSt8_DestroyIPSsEvT_S1_110>
  40e4c1:	48 83 c4 20          	add    $0x20,%rsp
  40e4c5:	5d                   	pop    %rbp
  40e4c6:	c3                   	retq   
--
  40e4d1:	48 89 e5             	mov    %rsp,%rbp
  40e4d4:	48 89 7d f8          	mov    %rdi,-0x8(%rbp)
  40e4d8:	48 8b 7d f8          	mov    -0x8(%rbp),%rdi
  40e4dc:	48 89 f8             	mov    %rdi,%rax
  40e4df:	5d                   	pop    %rbp
  40e4e0:	c3                   	retq   
--
  40e519:	e9 00 00 00 00       	jmpq   40e51e <_ZNSt12_Vector_baseISsSaISsEED2Ev+0x2e>
  40e51e:	48 8b 7d e0          	mov    -0x20(%rbp),%rdi
  40e522:	e8 f9 f5 00 00       	callq  41db20 <_ZNSt12_Vector_baseISsSaISsEE12_Vector_implD2Ev254>
  40e527:	48 83 c4 20          	add    $0x20,%rsp
  40e52b:	5d                   	pop    %rbp
  40e52c:	c3                   	retq   
--
  40e582:	48 8b 55 e8          	mov    -0x18(%rbp),%rdx
  40e586:	48 89 c7             	mov    %rax,%rdi
  40e589:	e8 92 cf 00 00       	callq  41b520 <_ZN9__gnu_cxx13new_allocatorISsE10deallocateEPSsm128>
  40e58e:	48 83 c4 20          	add    $0x20,%rsp
  40e592:	5d                   	pop    %rbp
  40e593:	c3                   	retq   
--
  40e5a8:	48 89 7d f8          	mov    %rdi,-0x8(%rbp)
  40e5ac:	48 8b 7d f8          	mov    -0x8(%rbp),%rdi
  40e5b0:	e8 fb f9 00 00       	callq  41dfb0 <_ZNSaISsED2Ev271>
  40e5b5:	48 83 c4 10          	add    $0x10,%rsp
  40e5b9:	5d                   	pop    %rbp
  40e5ba:	c3                   	retq   
--
000000000040e5c0 <_ZN9__gnu_cxx13new_allocatorISsED2Ev>:
  40e5c0:	55                   	push   %rbp
  40e5c1:	48 89 e5             	mov    %rsp,%rbp
  40e5c4:	48 89 7d f8          	mov    %rdi,-0x8(%rbp)
  40e5c8:	5d                   	pop    %rbp
  40e5c9:	c3                   	retq   
--
  40e5e4:	48 8b 55 f0          	mov    -0x10(%rbp),%rdx
  40e5e8:	48 89 d7             	mov    %rdx,%rdi
  40e5eb:	e8 80 90 ff ff       	callq  407670 <_ZdlPv@plt>
  40e5f0:	48 83 c4 20          	add    $0x20,%rsp
  40e5f4:	5d                   	pop    %rbp
  40e5f5:	c3                   	retq   
--
  40e610:	48 8b 7d f8          	mov    -0x8(%rbp),%rdi
  40e614:	48 8b 75 f0          	mov    -0x10(%rbp),%rsi
  40e618:	e8 e3 5c 01 00       	callq  424300 <_ZNSt12_Destroy_auxILb0EE9__destroyIPSsEEvT_S3_578>
  40e61d:	48 83 c4 10          	add    $0x10,%rsp
  40e621:	5d                   	pop    %rbp
  40e622:	c3                   	retq   
--
  40e663:	48 05 08 00 00 00    	add    $0x8,%rax
  40e669:	48 89 45 f8          	mov    %rax,-0x8(%rbp)
  40e66d:	e9 ce ff ff ff       	jmpq   40e640 <_ZNSt12_Destroy_auxILb0EE9__destroyIPSsEEvT_S3_+0x10>
  40e672:	48 83 c4 10          	add    $0x10,%rsp
  40e676:	5d                   	pop    %rbp
  40e677:	c3                   	retq   
--
  40e688:	48 89 7d f8          	mov    %rdi,-0x8(%rbp)
  40e68c:	48 8b 7d f8          	mov    -0x8(%rbp),%rdi
  40e690:	e8 6b 91 ff ff       	callq  407800 <_ZNSsD1Ev@plt>
  40e695:	48 83 c4 10          	add    $0x10,%rsp
  40e699:	5d                   	pop    %rbp
  40e69a:	c3                   	retq   
--
  40e6a1:	48 89 e5             	mov    %rsp,%rbp
  40e6a4:	48 89 7d f8          	mov    %rdi,-0x8(%rbp)
  40e6a8:	48 8b 7d f8          	mov    -0x8(%rbp),%rdi
  40e6ac:	48 89 f8             	mov    %rdi,%rax
  40e6af:	5d                   	pop    %rbp
  40e6b0:	c3                   	retq   
--
  40e714:	e8 67 26 01 00       	callq  420d80 <_ZNK5boost6detail8function13basic_vtable1ISt4pairISsSsERKSsE5clearERNS1_15function_bufferE406>
  40e719:	48 8b 45 f0          	mov    -0x10(%rbp),%rax
  40e71d:	48 c7 00 00 00 00 00 	movq   $0x0,(%rax)
  40e724:	48 83 c4 20          	add    $0x20,%rsp
  40e728:	5d                   	pop    %rbp
  40e729:	c3                   	retq   
--
  40e746:	48 81 ff 00 00 00 00 	cmp    $0x0,%rdi
  40e74d:	0f 95 c0             	setne  %al
  40e750:	24 01                	and    $0x1,%al
  40e752:	0f b6 c0             	movzbl %al,%eax
  40e755:	5d                   	pop    %rbp
  40e756:	c3                   	retq   
--
  40e768:	48 8b 7d f8          	mov    -0x8(%rbp),%rdi
  40e76c:	48 8b 3f             	mov    (%rdi),%rdi
  40e76f:	48 81 e7 fe ff ff ff 	and    $0xfffffffffffffffe,%rdi
  40e776:	48 89 f8             	mov    %rdi,%rax
  40e779:	5d                   	pop    %rbp
  40e77a:	c3                   	retq   
--
  40e7b1:	48 8b 7d f0          	mov    -0x10(%rbp),%rdi
  40e7b5:	48 8b 75 f0          	mov    -0x10(%rbp),%rsi
  40e7b9:	ff d1                	callq  *%rcx
  40e7bb:	48 83 c4 20          	add    $0x20,%rsp
  40e7bf:	5d                   	pop    %rbp
  40e7c0:	c3                   	retq   
--
  40e824:	e8 57 e9 00 00       	callq  41d180 <_ZNK5boost6detail8function13basic_vtable1ISt6vectorINS_15program_options12basic_optionIcEESaIS6_EERS3_ISsSaISsEEE5clearERNS1_15function_bufferE225>
  40e829:	48 8b 45 f0          	mov    -0x10(%rbp),%rax
  40e82d:	48 c7 00 00 00 00 00 	movq   $0x0,(%rax)
  40e834:	48 83 c4 20          	add    $0x20,%rsp
  40e838:	5d                   	pop    %rbp
  40e839:	c3                   	retq   
--
  40e848:	48 8b 7d f8          	mov    -0x8(%rbp),%rdi
  40e84c:	48 8b 3f             	mov    (%rdi),%rdi
  40e84f:	48 81 e7 fe ff ff ff 	and    $0xfffffffffffffffe,%rdi
  40e856:	48 89 f8             	mov    %rdi,%rax
  40e859:	5d                   	pop    %rbp
  40e85a:	c3                   	retq   
--
  40e891:	48 8b 7d f0          	mov    -0x10(%rbp),%rdi
  40e895:	48 8b 75 f0          	mov    -0x10(%rbp),%rsi
  40e899:	ff d1                	callq  *%rcx
  40e89b:	48 83 c4 20          	add    $0x20,%rsp
  40e89f:	5d                   	pop    %rbp
  40e8a0:	c3                   	retq   
--
  40e8ec:	48 8b 45 d8          	mov    -0x28(%rbp),%rax
  40e8f0:	48 89 c7             	mov    %rax,%rdi
  40e8f3:	e8 c8 7e 01 00       	callq  4267c0 <_ZNSt12_Vector_baseIN5boost15program_options12basic_optionIcEESaIS3_EED2Ev686>
  40e8f8:	48 83 c4 30          	add    $0x30,%rsp
  40e8fc:	5d                   	pop    %rbp
  40e8fd:	c3                   	retq   
--
  40e934:	48 8b 7d f8          	mov    -0x8(%rbp),%rdi
  40e938:	48 8b 75 f0          	mov    -0x10(%rbp),%rsi
  40e93c:	e8 7f 6c 01 00       	callq  4255c0 <_ZSt8_DestroyIPN5boost15program_options12basic_optionIcEEEvT_S5_643>
  40e941:	48 83 c4 20          	add    $0x20,%rsp
  40e945:	5d                   	pop    %rbp
  40e946:	c3                   	retq   
--
  40e951:	48 89 e5             	mov    %rsp,%rbp
  40e954:	48 89 7d f8          	mov    %rdi,-0x8(%rbp)
  40e958:	48 8b 7d f8          	mov    -0x8(%rbp),%rdi
  40e95c:	48 89 f8             	mov    %rdi,%rax
  40e95f:	5d                   	pop    %rbp
  40e960:	c3                   	retq   
--
  40e9a7:	e9 00 00 00 00       	jmpq   40e9ac <_ZNSt12_Vector_baseIN5boost15program_options12basic_optionIcEESaIS3_EED2Ev+0x3c>
  40e9ac:	48 8b 7d e0          	mov    -0x20(%rbp),%rdi
  40e9b0:	e8 9b e0 00 00       	callq  41ca50 <_ZNSt12_Vector_baseIN5boost15program_options12basic_optionIcEESaIS3_EE12_Vector_implD2Ev204>
  40e9b5:	48 83 c4 20          	add    $0x20,%rsp
  40e9b9:	5d                   	pop    %rbp
  40e9ba:	c3                   	retq   
--
  40ea12:	48 8b 55 e8          	mov    -0x18(%rbp),%rdx
  40ea16:	48 89 c7             	mov    %rax,%rdi
  40ea19:	e8 c2 24 01 00       	callq  420ee0 <_ZN9__gnu_cxx13new_allocatorIN5boost15program_options12basic_optionIcEEE10deallocateEPS4_m409>
  40ea1e:	48 83 c4 20          	add    $0x20,%rsp
  40ea22:	5d                   	pop    %rbp
  40ea23:	c3                   	retq   
--
  40ea38:	48 89 7d f8          	mov    %rdi,-0x8(%rbp)
  40ea3c:	48 8b 7d f8          	mov    -0x8(%rbp),%rdi
  40ea40:	e8 db d8 00 00       	callq  41c320 <_ZNSaIN5boost15program_options12basic_optionIcEEED2Ev180>
  40ea45:	48 83 c4 10          	add    $0x10,%rsp
  40ea49:	5d                   	pop    %rbp
  40ea4a:	c3                   	retq   
--
000000000040ea50 <_ZN9__gnu_cxx13new_allocatorIN5boost15program_options12basic_optionIcEEED2Ev>:
  40ea50:	55                   	push   %rbp
  40ea51:	48 89 e5             	mov    %rsp,%rbp
  40ea54:	48 89 7d f8          	mov    %rdi,-0x8(%rbp)
  40ea58:	5d                   	pop    %rbp
  40ea59:	c3                   	retq   
--
  40ea74:	48 8b 55 f0          	mov    -0x10(%rbp),%rdx
  40ea78:	48 89 d7             	mov    %rdx,%rdi
  40ea7b:	e8 f0 8b ff ff       	callq  407670 <_ZdlPv@plt>
  40ea80:	48 83 c4 20          	add    $0x20,%rsp
  40ea84:	5d                   	pop    %rbp
  40ea85:	c3                   	retq   
--
  40eaa0:	48 8b 7d f8          	mov    -0x8(%rbp),%rdi
  40eaa4:	48 8b 75 f0          	mov    -0x10(%rbp),%rsi
  40eaa8:	e8 a3 1c 01 00       	callq  420750 <_ZNSt12_Destroy_auxILb0EE9__destroyIPN5boost15program_options12basic_optionIcEEEEvT_S7_398>
  40eaad:	48 83 c4 10          	add    $0x10,%rsp
  40eab1:	5d                   	pop    %rbp
  40eab2:	c3                   	retq   
--
  40eaf3:	48 05 48 00 00 00    	add    $0x48,%rax
  40eaf9:	48 89 45 f8          	mov    %rax,-0x8(%rbp)
  40eafd:	e9 ce ff ff ff       	jmpq   40ead0 <_ZNSt12_Destroy_auxILb0EE9__destroyIPN5boost15program_options12basic_optionIcEEEEvT_S7_+0x10>
  40eb02:	48 83 c4 10          	add    $0x10,%rsp
  40eb06:	5d                   	pop    %rbp
  40eb07:	c3                   	retq   
--
  40eb18:	48 89 7d f8          	mov    %rdi,-0x8(%rbp)
  40eb1c:	48 8b 7d f8          	mov    -0x8(%rbp),%rdi
  40eb20:	e8 6b ac 00 00       	callq  419790 <_ZN5boost15program_options12basic_optionIcED2Ev32>
  40eb25:	48 83 c4 10          	add    $0x10,%rsp
  40eb29:	5d                   	pop    %rbp
  40eb2a:	c3                   	retq   
--
  40eb31:	48 89 e5             	mov    %rsp,%rbp
  40eb34:	48 89 7d f8          	mov    %rdi,-0x8(%rbp)
  40eb38:	48 8b 7d f8          	mov    -0x8(%rbp),%rdi
  40eb3c:	48 89 f8             	mov    %rdi,%rax
  40eb3f:	5d                   	pop    %rbp
  40eb40:	c3                   	retq   
--
  40eb82:	e8 79 ec 00 00       	callq  41d800 <_ZNSt6vectorISsSaISsEED2Ev244>
  40eb87:	48 8b 7d f0          	mov    -0x10(%rbp),%rdi
  40eb8b:	e8 70 8c ff ff       	callq  407800 <_ZNSsD1Ev@plt>
  40eb90:	48 83 c4 10          	add    $0x10,%rsp
  40eb94:	5d                   	pop    %rbp
  40eb95:	c3                   	retq   
--
  40ebcb:	48 89 77 18          	mov    %rsi,0x18(%rdi)
  40ebcf:	8b 55 ec             	mov    -0x14(%rbp),%edx
  40ebd2:	89 57 20             	mov    %edx,0x20(%rdi)
  40ebd5:	48 83 c4 20          	add    $0x20,%rsp
  40ebd9:	5d                   	pop    %rbp
  40ebda:	c3                   	retq   
--
  40ec09:	48 89 c6             	mov    %rax,%rsi
  40ec0c:	e8 1f d8 00 00       	callq  41c430 <_ZNSt6vectorIN5boost15program_options12basic_optionIcEESaIS3_EE14_M_move_assignEOS5_St17integral_constantIbLb1EE183>
  40ec11:	48 8b 45 e0          	mov    -0x20(%rbp),%rax
  40ec15:	48 83 c4 20          	add    $0x20,%rsp
  40ec19:	5d                   	pop    %rbp
  40ec1a:	c3                   	retq   
--
  40ec5b:	48 89 77 18          	mov    %rsi,0x18(%rdi)
  40ec5f:	8b 48 20             	mov    0x20(%rax),%ecx
  40ec62:	89 4f 20             	mov    %ecx,0x20(%rdi)
  40ec65:	48 83 c4 20          	add    $0x20,%rsp
  40ec69:	5d                   	pop    %rbp
  40ec6a:	c3                   	retq   
--
  40ed19:	48 8b 45 c0          	mov    -0x40(%rbp),%rax
  40ed1d:	48 8b 4d a0          	mov    -0x60(%rbp),%rcx
  40ed21:	48 89 48 08          	mov    %rcx,0x8(%rax)
  40ed25:	48 83 c4 60          	add    $0x60,%rsp
  40ed29:	5d                   	pop    %rbp
  40ed2a:	c3                   	retq   
--
  40ed7a:	48 29 fa             	sub    %rdi,%rdx
  40ed7d:	48 89 d0             	mov    %rdx,%rax
  40ed80:	48 99                	cqto   
  40ed82:	48 f7 f9             	idiv   %rcx
  40ed85:	5d                   	pop    %rbp
  40ed86:	c3                   	retq   
--
  40eda3:	48 89 45 f0          	mov    %rax,-0x10(%rbp)
  40eda7:	e8 b4 e9 00 00       	callq  41d760 <_ZNSt16allocator_traitsISaIN5boost15program_options12basic_optionIcEEEE37select_on_container_copy_constructionERKS4_241>
  40edac:	48 8b 45 f0          	mov    -0x10(%rbp),%rax
  40edb0:	48 83 c4 10          	add    $0x10,%rsp
  40edb4:	5d                   	pop    %rbp
  40edb5:	c3                   	retq   
--
  40edc1:	48 89 e5             	mov    %rsp,%rbp
  40edc4:	48 89 7d f8          	mov    %rdi,-0x8(%rbp)
  40edc8:	48 8b 7d f8          	mov    -0x8(%rbp),%rdi
  40edcc:	48 89 f8             	mov    %rdi,%rax
  40edcf:	5d                   	pop    %rbp
  40edd0:	c3                   	retq   
--
  40ee0b:	48 8b 7d d0          	mov    -0x30(%rbp),%rdi
  40ee0f:	e8 8c 61 01 00       	callq  424fa0 <_ZNSt12_Vector_baseIN5boost15program_options12basic_optionIcEESaIS3_EE17_M_create_storageEm619>
  40ee14:	e9 00 00 00 00       	jmpq   40ee19 <_ZNSt12_Vector_baseIN5boost15program_options12basic_optionIcEESaIS3_EEC2EmRKS4_+0x39>
  40ee19:	48 83 c4 30          	add    $0x30,%rsp
  40ee1d:	5d                   	pop    %rbp
  40ee1e:	c3                   	retq   
--
  40ee48:	48 89 7d f8          	mov    %rdi,-0x8(%rbp)
  40ee4c:	48 8b 7d f8          	mov    -0x8(%rbp),%rdi
  40ee50:	e8 eb ac 00 00       	callq  419b40 <_ZN9__gnu_cxx13new_allocatorIN5boost15program_options12basic_optionIcEEED2Ev50>
  40ee55:	48 83 c4 10          	add    $0x10,%rsp
  40ee59:	5d                   	pop    %rbp
  40ee5a:	c3                   	retq   
--
  40ee8c:	48 8b 7d d8          	mov    -0x28(%rbp),%rdi
  40ee90:	48 8b 75 d0          	mov    -0x30(%rbp),%rsi
  40ee94:	e8 27 bd 00 00       	callq  41abc0 <_ZSt18uninitialized_copyIN9__gnu_cxx17__normal_iteratorIPKN5boost15program_options12basic_optionIcEESt6vectorIS5_SaIS5_EEEEPS5_ET0_T_SE_SD_89>
  40ee99:	48 83 c4 30          	add    $0x30,%rsp
  40ee9d:	5d                   	pop    %rbp
  40ee9e:	c3                   	retq   
--
  40eebb:	e8 f0 e5 00 00       	callq  41d4b0 <_ZN9__gnu_cxx17__normal_iteratorIPKN5boost15program_options12basic_optionIcEESt6vectorIS4_SaIS4_EEEC2ERKS6_234>
  40eec0:	e9 00 00 00 00       	jmpq   40eec5 <_ZNKSt6vectorIN5boost15program_options12basic_optionIcEESaIS3_EE5beginEv+0x25>
  40eec5:	48 8b 45 f8          	mov    -0x8(%rbp),%rax
  40eec9:	48 83 c4 20          	add    $0x20,%rsp
  40eecd:	5d                   	pop    %rbp
  40eece:	c3                   	retq   
--
  40eefc:	e8 af e5 00 00       	callq  41d4b0 <_ZN9__gnu_cxx17__normal_iteratorIPKN5boost15program_options12basic_optionIcEESt6vectorIS4_SaIS4_EEEC2ERKS6_234>
  40ef01:	e9 00 00 00 00       	jmpq   40ef06 <_ZNKSt6vectorIN5boost15program_options12basic_optionIcEESaIS3_EE3endEv+0x26>
  40ef06:	48 8b 45 f8          	mov    -0x8(%rbp),%rax
  40ef0a:	48 83 c4 20          	add    $0x20,%rsp
  40ef0e:	5d                   	pop    %rbp
  40ef0f:	c3                   	retq   
--
  40ef2c:	48 8b 75 f8          	mov    -0x8(%rbp),%rsi
  40ef30:	48 8b 7d f0          	mov    -0x10(%rbp),%rdi
  40ef34:	48 8b 3f             	mov    (%rdi),%rdi
  40ef37:	48 89 3e             	mov    %rdi,(%rsi)
  40ef3a:	5d                   	pop    %rbp
  40ef3b:	c3                   	retq   
--
  40ef68:	48 8b 7d e0          	mov    -0x20(%rbp),%rdi
  40ef6c:	48 8b 75 d8          	mov    -0x28(%rbp),%rsi
  40ef70:	e8 2b b9 00 00       	callq  41a8a0 <_ZNSt20__uninitialized_copyILb0EE13__uninit_copyIN9__gnu_cxx17__normal_iteratorIPKN5boost15program_options12basic_optionIcEESt6vectorIS7_SaIS7_EEEEPS7_EET0_T_SG_SF_84>
  40ef75:	48 83 c4 30          	add    $0x30,%rsp
  40ef79:	5d                   	pop    %rbp
  40ef7a:	c3                   	retq   
--
  40f02e:	48 8b 7d e8          	mov    -0x18(%rbp),%rdi
  40f032:	48 8b 75 e0          	mov    -0x20(%rbp),%rsi
  40f036:	48 89 45 b0          	mov    %rax,-0x50(%rbp)
  40f03a:	e8 81 65 01 00       	callq  4255c0 <_ZSt8_DestroyIPN5boost15program_options12basic_optionIcEEEvT_S5_643>
  40f03f:	e9 00 00 00 00       	jmpq   40f044 <_ZNSt20__uninitialized_copyILb0EE13__uninit_copyIN9__gnu_cxx17__normal_iteratorIPKN5boost15program_options12basic_optionIcEESt6vectorIS7_SaIS7_EEEEPS7_EET0_T_SG_SF_+0xc4>
  40f044:	e8 87 86 ff ff       	callq  4076d0 <__cxa_rethrow@plt>
  40f049:	e9 38 00 00 00       	jmpq   40f086 <_ZNSt20__uninitialized_copyILb0EE13__uninit_copyIN9__gnu_cxx17__normal_iteratorIPKN5boost15program_options12basic_optionIcEESt6vectorIS7_SaIS7_EEEEPS7_EET0_T_SG_SF_+0x106>
  40f04e:	48 8b 45 e0          	mov    -0x20(%rbp),%rax
  40f052:	48 83 c4 60          	add    $0x60,%rsp
  40f056:	5d                   	pop    %rbp
  40f057:	c3                   	retq   
--
  40f0c0:	0f 95 c1             	setne  %cl
  40f0c3:	80 e1 01             	and    $0x1,%cl
  40f0c6:	0f b6 c1             	movzbl %cl,%eax
  40f0c9:	48 83 c4 20          	add    $0x20,%rsp
  40f0cd:	5d                   	pop    %rbp
  40f0ce:	c3                   	retq   
--
  40f106:	48 8b 7d e0          	mov    -0x20(%rbp),%rdi
  40f10a:	48 89 c6             	mov    %rax,%rsi
  40f10d:	e8 8e e8 00 00       	callq  41d9a0 <_ZN5boost15program_options12basic_optionIcEC2ERKS2_251>
  40f112:	48 83 c4 20          	add    $0x20,%rsp
  40f116:	5d                   	pop    %rbp
  40f117:	c3                   	retq   
--
  40f121:	48 89 e5             	mov    %rsp,%rbp
  40f124:	48 89 7d f8          	mov    %rdi,-0x8(%rbp)
  40f128:	48 8b 7d f8          	mov    -0x8(%rbp),%rdi
  40f12c:	48 8b 07             	mov    (%rdi),%rax
  40f12f:	5d                   	pop    %rbp
  40f130:	c3                   	retq   
--
  40f14c:	48 8b 07             	mov    (%rdi),%rax
  40f14f:	48 05 48 00 00 00    	add    $0x48,%rax
  40f155:	48 89 07             	mov    %rax,(%rdi)
  40f158:	48 89 f8             	mov    %rdi,%rax
  40f15b:	5d                   	pop    %rbp
  40f15c:	c3                   	retq   
--
  40f160:	55                   	push   %rbp
  40f161:	48 89 e5             	mov    %rsp,%rbp
  40f164:	48 89 7d f8          	mov    %rdi,-0x8(%rbp)
  40f168:	48 8b 45 f8          	mov    -0x8(%rbp),%rax
  40f16c:	5d                   	pop    %rbp
  40f16d:	c3                   	retq   
--
  40f1ed:	66 8b 48 40          	mov    0x40(%rax),%cx
  40f1f1:	48 8b 45 d0          	mov    -0x30(%rbp),%rax
  40f1f5:	66 89 48 40          	mov    %cx,0x40(%rax)
  40f1f9:	48 83 c4 40          	add    $0x40,%rsp
  40f1fd:	5d                   	pop    %rbp
  40f1fe:	c3                   	retq   
--
  40f2e9:	48 8b 45 c0          	mov    -0x40(%rbp),%rax
  40f2ed:	48 8b 4d a0          	mov    -0x60(%rbp),%rcx
  40f2f1:	48 89 48 08          	mov    %rcx,0x8(%rax)
  40f2f5:	48 83 c4 60          	add    $0x60,%rsp
  40f2f9:	5d                   	pop    %rbp
  40f2fa:	c3                   	retq   
--
  40f33c:	48 8b 47 08          	mov    0x8(%rdi),%rax
  40f340:	48 8b 3f             	mov    (%rdi),%rdi
  40f343:	48 29 f8             	sub    %rdi,%rax
  40f346:	48 c1 f8 03          	sar    $0x3,%rax
  40f34a:	5d                   	pop    %rbp
  40f34b:	c3                   	retq   
--
  40f363:	48 89 45 f0          	mov    %rax,-0x10(%rbp)
  40f367:	e8 94 a6 00 00       	callq  419a00 <_ZNSt16allocator_traitsISaISsEE37select_on_container_copy_constructionERKS0_45>
  40f36c:	48 8b 45 f0          	mov    -0x10(%rbp),%rax
  40f370:	48 83 c4 10          	add    $0x10,%rsp
  40f374:	5d                   	pop    %rbp
  40f375:	c3                   	retq   
--
  40f381:	48 89 e5             	mov    %rsp,%rbp
  40f384:	48 89 7d f8          	mov    %rdi,-0x8(%rbp)
  40f388:	48 8b 7d f8          	mov    -0x8(%rbp),%rdi
  40f38c:	48 89 f8             	mov    %rdi,%rax
  40f38f:	5d                   	pop    %rbp
  40f390:	c3                   	retq   
--
  40f3cb:	48 8b 7d d0          	mov    -0x30(%rbp),%rdi
  40f3cf:	e8 7c 20 01 00       	callq  421450 <_ZNSt12_Vector_baseISsSaISsEE17_M_create_storageEm419>
  40f3d4:	e9 00 00 00 00       	jmpq   40f3d9 <_ZNSt12_Vector_baseISsSaISsEEC2EmRKS0_+0x39>
  40f3d9:	48 83 c4 30          	add    $0x30,%rsp
  40f3dd:	5d                   	pop    %rbp
  40f3de:	c3                   	retq   
--
  40f408:	48 89 7d f8          	mov    %rdi,-0x8(%rbp)
  40f40c:	48 8b 7d f8          	mov    -0x8(%rbp),%rdi
  40f410:	e8 fb 60 01 00       	callq  425510 <_ZN9__gnu_cxx13new_allocatorISsED2Ev641>
  40f415:	48 83 c4 10          	add    $0x10,%rsp
  40f419:	5d                   	pop    %rbp
  40f41a:	c3                   	retq   
--
  40f44c:	48 8b 7d d8          	mov    -0x28(%rbp),%rdi
  40f450:	48 8b 75 d0          	mov    -0x30(%rbp),%rsi
  40f454:	e8 57 9e 00 00       	callq  4192b0 <_ZSt18uninitialized_copyIN9__gnu_cxx17__normal_iteratorIPKSsSt6vectorISsSaISsEEEEPSsET0_T_SA_S9_12>
  40f459:	48 83 c4 30          	add    $0x30,%rsp
  40f45d:	5d                   	pop    %rbp
  40f45e:	c3                   	retq   
--
  40f47b:	e8 10 1f 01 00       	callq  421390 <_ZN9__gnu_cxx17__normal_iteratorIPKSsSt6vectorISsSaISsEEEC2ERKS2_415>
  40f480:	e9 00 00 00 00       	jmpq   40f485 <_ZNKSt6vectorISsSaISsEE5beginEv+0x25>
  40f485:	48 8b 45 f8          	mov    -0x8(%rbp),%rax
  40f489:	48 83 c4 20          	add    $0x20,%rsp
  40f48d:	5d                   	pop    %rbp
  40f48e:	c3                   	retq   
--
  40f4bc:	e8 cf 1e 01 00       	callq  421390 <_ZN9__gnu_cxx17__normal_iteratorIPKSsSt6vectorISsSaISsEEEC2ERKS2_415>
  40f4c1:	e9 00 00 00 00       	jmpq   40f4c6 <_ZNKSt6vectorISsSaISsEE3endEv+0x26>
  40f4c6:	48 8b 45 f8          	mov    -0x8(%rbp),%rax
  40f4ca:	48 83 c4 20          	add    $0x20,%rsp
  40f4ce:	5d                   	pop    %rbp
  40f4cf:	c3                   	retq   
--
  40f4ec:	48 8b 75 f8          	mov    -0x8(%rbp),%rsi
  40f4f0:	48 8b 7d f0          	mov    -0x10(%rbp),%rdi
  40f4f4:	48 8b 3f             	mov    (%rdi),%rdi
  40f4f7:	48 89 3e             	mov    %rdi,(%rsi)
  40f4fa:	5d                   	pop    %rbp
  40f4fb:	c3                   	retq   
--
  40f528:	48 8b 7d e0          	mov    -0x20(%rbp),%rdi
  40f52c:	48 8b 75 d8          	mov    -0x28(%rbp),%rsi
  40f530:	e8 8b c2 00 00       	callq  41b7c0 <_ZNSt20__uninitialized_copyILb0EE13__uninit_copyIN9__gnu_cxx17__normal_iteratorIPKSsSt6vectorISsSaISsEEEEPSsEET0_T_SC_SB_140>
  40f535:	48 83 c4 30          	add    $0x30,%rsp
  40f539:	5d                   	pop    %rbp
  40f53a:	c3                   	retq   
--
  40f5ee:	48 8b 7d e8          	mov    -0x18(%rbp),%rdi
  40f5f2:	48 8b 75 e0          	mov    -0x20(%rbp),%rsi
  40f5f6:	48 89 45 b0          	mov    %rax,-0x50(%rbp)
  40f5fa:	e8 d1 ba 00 00       	callq  41b0d0 <_ZSt8_DestroyIPSsEvT_S1_110>
  40f5ff:	e9 00 00 00 00       	jmpq   40f604 <_ZNSt20__uninitialized_copyILb0EE13__uninit_copyIN9__gnu_cxx17__normal_iteratorIPKSsSt6vectorISsSaISsEEEEPSsEET0_T_SC_SB_+0xc4>
  40f604:	e8 c7 80 ff ff       	callq  4076d0 <__cxa_rethrow@plt>
  40f609:	e9 38 00 00 00       	jmpq   40f646 <_ZNSt20__uninitialized_copyILb0EE13__uninit_copyIN9__gnu_cxx17__normal_iteratorIPKSsSt6vectorISsSaISsEEEEPSsEET0_T_SC_SB_+0x106>
  40f60e:	48 8b 45 e0          	mov    -0x20(%rbp),%rax
  40f612:	48 83 c4 60          	add    $0x60,%rsp
  40f616:	5d                   	pop    %rbp
  40f617:	c3                   	retq   
--
  40f680:	0f 95 c1             	setne  %cl
  40f683:	80 e1 01             	and    $0x1,%cl
  40f686:	0f b6 c1             	movzbl %cl,%eax
  40f689:	48 83 c4 20          	add    $0x20,%rsp
  40f68d:	5d                   	pop    %rbp
  40f68e:	c3                   	retq   
--
  40f6c6:	48 8b 7d e0          	mov    -0x20(%rbp),%rdi
  40f6ca:	48 89 c6             	mov    %rax,%rsi
  40f6cd:	e8 be 80 ff ff       	callq  407790 <_ZNSsC1ERKSs@plt>
  40f6d2:	48 83 c4 20          	add    $0x20,%rsp
  40f6d6:	5d                   	pop    %rbp
  40f6d7:	c3                   	retq   
--
  40f6e1:	48 89 e5             	mov    %rsp,%rbp
  40f6e4:	48 89 7d f8          	mov    %rdi,-0x8(%rbp)
  40f6e8:	48 8b 7d f8          	mov    -0x8(%rbp),%rdi
  40f6ec:	48 8b 07             	mov    (%rdi),%rax
  40f6ef:	5d                   	pop    %rbp
  40f6f0:	c3                   	retq   
--
  40f70c:	48 8b 07             	mov    (%rdi),%rax
  40f70f:	48 05 08 00 00 00    	add    $0x8,%rax
  40f715:	48 89 07             	mov    %rax,(%rdi)
  40f718:	48 89 f8             	mov    %rdi,%rax
  40f71b:	5d                   	pop    %rbp
  40f71c:	c3                   	retq   
--
  40f720:	55                   	push   %rbp
  40f721:	48 89 e5             	mov    %rsp,%rbp
  40f724:	48 89 7d f8          	mov    %rdi,-0x8(%rbp)
  40f728:	48 8b 45 f8          	mov    -0x8(%rbp),%rax
  40f72c:	5d                   	pop    %rbp
  40f72d:	c3                   	retq   
--
  40f730:	55                   	push   %rbp
  40f731:	48 89 e5             	mov    %rsp,%rbp
  40f734:	48 89 7d f8          	mov    %rdi,-0x8(%rbp)
  40f738:	48 8b 45 f8          	mov    -0x8(%rbp),%rax
  40f73c:	5d                   	pop    %rbp
  40f73d:	c3                   	retq   
--
  40f779:	00 
  40f77a:	48 c7 40 10 00 00 00 	movq   $0x0,0x10(%rax)
  40f781:	00 
  40f782:	48 83 c4 20          	add    $0x20,%rsp
  40f786:	5d                   	pop    %rbp
  40f787:	c3                   	retq   
--
  40f7d4:	48 c1 e7 03          	shl    $0x3,%rdi
  40f7d8:	48 01 f8             	add    %rdi,%rax
  40f7db:	48 89 46 10          	mov    %rax,0x10(%rsi)
  40f7df:	48 83 c4 20          	add    $0x20,%rsp
  40f7e3:	5d                   	pop    %rbp
  40f7e4:	c3                   	retq   
--
  40f837:	48 89 4d e0          	mov    %rcx,-0x20(%rbp)
  40f83b:	e9 00 00 00 00       	jmpq   40f840 <_ZNSt12_Vector_baseISsSaISsEE11_M_allocateEm+0x50>
  40f840:	48 8b 45 e0          	mov    -0x20(%rbp),%rax
  40f844:	48 83 c4 20          	add    $0x20,%rsp
  40f848:	5d                   	pop    %rbp
  40f849:	c3                   	retq   
--
  40f88b:	48 c1 e0 03          	shl    $0x3,%rax
  40f88f:	48 89 c7             	mov    %rax,%rdi
  40f892:	e8 a9 83 ff ff       	callq  407c40 <_Znwm@plt>
  40f897:	48 83 c4 20          	add    $0x20,%rsp
  40f89b:	5d                   	pop    %rbp
  40f89c:	c3                   	retq   
--
  40f8a1:	48 89 e5             	mov    %rsp,%rbp
  40f8a4:	48 b8 ff ff ff ff ff 	movabs $0x1fffffffffffffff,%rax
  40f8ab:	ff ff 1f 
  40f8ae:	48 89 7d f8          	mov    %rdi,-0x8(%rbp)
  40f8b2:	5d                   	pop    %rbp
  40f8b3:	c3                   	retq   
--
  40f8c0:	55                   	push   %rbp
  40f8c1:	48 89 e5             	mov    %rsp,%rbp
  40f8c4:	48 89 7d f8          	mov    %rdi,-0x8(%rbp)
  40f8c8:	48 89 75 f0          	mov    %rsi,-0x10(%rbp)
  40f8cc:	5d                   	pop    %rbp
  40f8cd:	c3                   	retq   
--
  40f8e3:	48 89 45 f0          	mov    %rax,-0x10(%rbp)
  40f8e7:	e8 c4 41 01 00       	callq  423ab0 <_ZNSt16allocator_traitsISaISsEE9_S_selectIKS0_EENSt9enable_ifIXntsr15__select_helperIT_EE5valueES5_E4typeERS5_545>
  40f8ec:	48 8b 45 f0          	mov    -0x10(%rbp),%rax
  40f8f0:	48 83 c4 10          	add    $0x10,%rsp
  40f8f4:	5d                   	pop    %rbp
  40f8f5:	c3                   	retq   
--
  40f913:	48 89 45 f0          	mov    %rax,-0x10(%rbp)
  40f917:	e8 94 c3 00 00       	callq  41bcb0 <_ZNSaISsEC2ERKS_158>
  40f91c:	48 8b 45 f0          	mov    -0x10(%rbp),%rax
  40f920:	48 83 c4 10          	add    $0x10,%rsp
  40f924:	5d                   	pop    %rbp
  40f925:	c3                   	retq   
--
  40f94c:	48 89 f7             	mov    %rsi,%rdi
  40f94f:	48 8b 75 e8          	mov    -0x18(%rbp),%rsi
  40f953:	e8 58 27 01 00       	callq  4220b0 <_ZN9__gnu_cxx13new_allocatorISsEC2ERKS1_456>
  40f958:	48 83 c4 20          	add    $0x20,%rsp
  40f95c:	5d                   	pop    %rbp
  40f95d:	c3                   	retq   
--
  40f960:	55                   	push   %rbp
  40f961:	48 89 e5             	mov    %rsp,%rbp
  40f964:	48 89 7d f8          	mov    %rdi,-0x8(%rbp)
  40f968:	48 8b 45 f8          	mov    -0x8(%rbp),%rax
  40f96c:	5d                   	pop    %rbp
  40f96d:	c3                   	retq   
--
  40f9a9:	00 
  40f9aa:	48 c7 40 10 00 00 00 	movq   $0x0,0x10(%rax)
  40f9b1:	00 
  40f9b2:	48 83 c4 20          	add    $0x20,%rsp
  40f9b6:	5d                   	pop    %rbp
  40f9b7:	c3                   	retq   
--
  40fa07:	00 
  40fa08:	48 01 f8             	add    %rdi,%rax
  40fa0b:	48 89 46 10          	mov    %rax,0x10(%rsi)
  40fa0f:	48 83 c4 20          	add    $0x20,%rsp
  40fa13:	5d                   	pop    %rbp
  40fa14:	c3                   	retq   
--
  40fa67:	48 89 4d e0          	mov    %rcx,-0x20(%rbp)
  40fa6b:	e9 00 00 00 00       	jmpq   40fa70 <_ZNSt12_Vector_baseIN5boost15program_options12basic_optionIcEESaIS3_EE11_M_allocateEm+0x50>
  40fa70:	48 8b 45 e0          	mov    -0x20(%rbp),%rax
  40fa74:	48 83 c4 20          	add    $0x20,%rsp
  40fa78:	5d                   	pop    %rbp
  40fa79:	c3                   	retq   
--
  40fab7:	48 69 7d f0 48 00 00 	imul   $0x48,-0x10(%rbp),%rdi
  40fabe:	00 
  40fabf:	e8 7c 81 ff ff       	callq  407c40 <_Znwm@plt>
  40fac4:	48 83 c4 20          	add    $0x20,%rsp
  40fac8:	5d                   	pop    %rbp
  40fac9:	c3                   	retq   
--
  40fad1:	48 89 e5             	mov    %rsp,%rbp
  40fad4:	48 b8 8e e3 38 8e e3 	movabs $0x38e38e38e38e38e,%rax
  40fadb:	38 8e 03 
  40fade:	48 89 7d f8          	mov    %rdi,-0x8(%rbp)
  40fae2:	5d                   	pop    %rbp
  40fae3:	c3                   	retq   
--
  40faf0:	55                   	push   %rbp
  40faf1:	48 89 e5             	mov    %rsp,%rbp
  40faf4:	48 89 7d f8          	mov    %rdi,-0x8(%rbp)
  40faf8:	48 89 75 f0          	mov    %rsi,-0x10(%rbp)
  40fafc:	5d                   	pop    %rbp
  40fafd:	c3                   	retq   
--
  40fb13:	48 89 45 f0          	mov    %rax,-0x10(%rbp)
  40fb17:	e8 b4 9e 00 00       	callq  4199d0 <_ZNSt16allocator_traitsISaIN5boost15program_options12basic_optionIcEEEE9_S_selectIKS4_EENSt9enable_ifIXntsr15__select_helperIT_EE5valueES9_E4typeERS9_44>
  40fb1c:	48 8b 45 f0          	mov    -0x10(%rbp),%rax
  40fb20:	48 83 c4 10          	add    $0x10,%rsp
  40fb24:	5d                   	pop    %rbp
  40fb25:	c3                   	retq   
--
  40fb43:	48 89 45 f0          	mov    %rax,-0x10(%rbp)
  40fb47:	e8 e4 61 01 00       	callq  425d30 <_ZNSaIN5boost15program_options12basic_optionIcEEEC2ERKS3_668>
  40fb4c:	48 8b 45 f0          	mov    -0x10(%rbp),%rax
  40fb50:	48 83 c4 10          	add    $0x10,%rsp
  40fb54:	5d                   	pop    %rbp
  40fb55:	c3                   	retq   
--
  40fb7c:	48 89 f7             	mov    %rsi,%rdi
  40fb7f:	48 8b 75 e8          	mov    -0x18(%rbp),%rsi
  40fb83:	e8 48 96 00 00       	callq  4191d0 <_ZN9__gnu_cxx13new_allocatorIN5boost15program_options12basic_optionIcEEEC2ERKS5_5>
  40fb88:	48 83 c4 20          	add    $0x20,%rsp
  40fb8c:	5d                   	pop    %rbp
  40fb8d:	c3                   	retq   
--
  40fc16:	e9 00 00 00 00       	jmpq   40fc1b <_ZNSt6vectorIN5boost15program_options12basic_optionIcEESaIS3_EE14_M_move_assignEOS5_St17integral_constantIbLb1EE+0x8b>
  40fc1b:	48 8d 7d d0          	lea    -0x30(%rbp),%rdi
  40fc1f:	e8 1c b6 00 00       	callq  41b240 <_ZNSt6vectorIN5boost15program_options12basic_optionIcEESaIS3_EED2Ev115>
  40fc24:	48 83 c4 60          	add    $0x60,%rsp
  40fc28:	5d                   	pop    %rbp
  40fc29:	c3                   	retq   
--
  40fc60:	55                   	push   %rbp
  40fc61:	48 89 e5             	mov    %rsp,%rbp
  40fc64:	48 89 7d f8          	mov    %rdi,-0x8(%rbp)
  40fc68:	48 8b 45 f8          	mov    -0x8(%rbp),%rax
  40fc6c:	5d                   	pop    %rbp
  40fc6d:	c3                   	retq   
--
  40fc97:	48 89 c6             	mov    %rax,%rsi
  40fc9a:	e8 91 60 01 00       	callq  425d30 <_ZNSaIN5boost15program_options12basic_optionIcEEEC2ERKS3_668>
  40fc9f:	48 8b 45 e8          	mov    -0x18(%rbp),%rax
  40fca3:	48 83 c4 20          	add    $0x20,%rsp
  40fca7:	5d                   	pop    %rbp
  40fca8:	c3                   	retq   
--
  40fccc:	48 89 f7             	mov    %rsi,%rdi
  40fccf:	48 8b 75 e8          	mov    -0x18(%rbp),%rsi
  40fcd3:	e8 a8 e2 00 00       	callq  41df80 <_ZNSt12_Vector_baseIN5boost15program_options12basic_optionIcEESaIS3_EEC2ERKS4_270>
  40fcd8:	48 83 c4 20          	add    $0x20,%rsp
  40fcdc:	5d                   	pop    %rbp
  40fcdd:	c3                   	retq   
--
  40fd3a:	48 81 c6 10 00 00 00 	add    $0x10,%rsi
  40fd41:	48 89 c7             	mov    %rax,%rdi
  40fd44:	e8 b7 50 01 00       	callq  424e00 <_ZSt4swapIPN5boost15program_options12basic_optionIcEEEvRT_S6_612>
  40fd49:	48 83 c4 20          	add    $0x20,%rsp
  40fd4d:	5d                   	pop    %rbp
  40fd4e:	c3                   	retq   
--
  40fd60:	48 8b 7d f8          	mov    -0x8(%rbp),%rdi
  40fd64:	48 8b 75 f0          	mov    -0x10(%rbp),%rsi
  40fd68:	e8 93 5c 01 00       	callq  425a00 <_ZSt18__do_alloc_on_moveISaIN5boost15program_options12basic_optionIcEEEEvRT_S6_St17integral_constantIbLb1EE662>
  40fd6d:	48 83 c4 20          	add    $0x20,%rsp
  40fd71:	5d                   	pop    %rbp
  40fd72:	c3                   	retq   
--
  40fd90:	48 8b 7d e8          	mov    -0x18(%rbp),%rdi
  40fd94:	e8 37 3e 01 00       	callq  423bd0 <_ZSt4moveIRSaIN5boost15program_options12basic_optionIcEEEEONSt16remove_referenceIT_E4typeEOS7_550>
  40fd99:	48 89 45 e0          	mov    %rax,-0x20(%rbp)
  40fd9d:	48 83 c4 20          	add    $0x20,%rsp
  40fda1:	5d                   	pop    %rbp
  40fda2:	c3                   	retq   
--
  40fdb0:	55                   	push   %rbp
  40fdb1:	48 89 e5             	mov    %rsp,%rbp
  40fdb4:	48 89 7d f8          	mov    %rdi,-0x8(%rbp)
  40fdb8:	48 8b 45 f8          	mov    -0x8(%rbp),%rax
  40fdbc:	5d                   	pop    %rbp
  40fdbd:	c3                   	retq   
--
  40fdfc:	48 8b 00             	mov    (%rax),%rax
  40fdff:	48 8b 75 f0          	mov    -0x10(%rbp),%rsi
  40fe03:	48 89 06             	mov    %rax,(%rsi)
  40fe06:	48 83 c4 20          	add    $0x20,%rsp
  40fe0a:	5d                   	pop    %rbp
  40fe0b:	c3                   	retq   
--
  40fe10:	55                   	push   %rbp
  40fe11:	48 89 e5             	mov    %rsp,%rbp
  40fe14:	48 89 7d f8          	mov    %rdi,-0x8(%rbp)
  40fe18:	48 8b 45 f8          	mov    -0x8(%rbp),%rax
  40fe1c:	5d                   	pop    %rbp
  40fe1d:	c3                   	retq   
--
  40fe30:	48 8b 7d f8          	mov    -0x8(%rbp),%rdi
  40fe34:	48 8b 75 f0          	mov    -0x10(%rbp),%rsi
  40fe38:	e8 a3 fb 00 00       	callq  41f9e0 <_ZNSt12_Vector_baseIN5boost15program_options12basic_optionIcEESaIS3_EE12_Vector_implC2ERKS4_353>
  40fe3d:	48 83 c4 10          	add    $0x10,%rsp
  40fe41:	5d                   	pop    %rbp
  40fe42:	c3                   	retq   
--
  40fe58:	48 89 7d f8          	mov    %rdi,-0x8(%rbp)
  40fe5c:	48 8b 7d f8          	mov    -0x8(%rbp),%rdi
  40fe60:	e8 db 4e 01 00       	callq  424d40 <_ZNSt12_Vector_baseIN5boost15program_options12basic_optionIcEESaIS3_EEC2Ev605>
  40fe65:	48 83 c4 10          	add    $0x10,%rsp
  40fe69:	5d                   	pop    %rbp
  40fe6a:	c3                   	retq   
--
  40fe78:	48 89 7d f8          	mov    %rdi,-0x8(%rbp)
  40fe7c:	48 8b 7d f8          	mov    -0x8(%rbp),%rdi
  40fe80:	e8 8b a2 00 00       	callq  41a110 <_ZNSt12_Vector_baseIN5boost15program_options12basic_optionIcEESaIS3_EE12_Vector_implC2Ev71>
  40fe85:	48 83 c4 10          	add    $0x10,%rsp
  40fe89:	5d                   	pop    %rbp
  40fe8a:	c3                   	retq   
--
  40fec1:	00 
  40fec2:	48 c7 40 10 00 00 00 	movq   $0x0,0x10(%rax)
  40fec9:	00 
  40feca:	48 83 c4 10          	add    $0x10,%rsp
  40fece:	5d                   	pop    %rbp
  40fecf:	c3                   	retq   
--
  40fed8:	48 89 7d f8          	mov    %rdi,-0x8(%rbp)
  40fedc:	48 8b 7d f8          	mov    -0x8(%rbp),%rdi
  40fee0:	e8 9b 3e 01 00       	callq  423d80 <_ZN9__gnu_cxx13new_allocatorIN5boost15program_options12basic_optionIcEEEC2Ev557>
  40fee5:	48 83 c4 10          	add    $0x10,%rsp
  40fee9:	5d                   	pop    %rbp
  40feea:	c3                   	retq   
--
000000000040fef0 <_ZN9__gnu_cxx13new_allocatorIN5boost15program_options12basic_optionIcEEEC2Ev>:
  40fef0:	55                   	push   %rbp
  40fef1:	48 89 e5             	mov    %rsp,%rbp
  40fef4:	48 89 7d f8          	mov    %rdi,-0x8(%rbp)
  40fef8:	5d                   	pop    %rbp
  40fef9:	c3                   	retq   
--
  40ffd4:	48 8b 7d d0          	mov    -0x30(%rbp),%rdi
  40ffd8:	e8 23 d8 00 00       	callq  41d800 <_ZNSt6vectorISsSaISsEED2Ev244>
  40ffdd:	48 8b 45 c8          	mov    -0x38(%rbp),%rax
  40ffe1:	48 83 c4 50          	add    $0x50,%rsp
  40ffe5:	5d                   	pop    %rbp
  40ffe6:	c3                   	retq   
--
  4100e6:	48 8b 7d c0          	mov    -0x40(%rbp),%rdi
  4100ea:	e8 11 d7 00 00       	callq  41d800 <_ZNSt6vectorISsSaISsEED2Ev244>
  4100ef:	48 8b 45 b8          	mov    -0x48(%rbp),%rax
  4100f3:	48 83 c4 60          	add    $0x60,%rsp
  4100f7:	5d                   	pop    %rbp
  4100f8:	c3                   	retq   
--
  410118:	48 89 7d f8          	mov    %rdi,-0x8(%rbp)
  41011c:	48 8b 7d f8          	mov    -0x8(%rbp),%rdi
  410120:	e8 9b e0 00 00       	callq  41e1c0 <_ZNSt12_Vector_baseISsSaISsEEC2Ev280>
  410125:	48 83 c4 10          	add    $0x10,%rsp
  410129:	5d                   	pop    %rbp
  41012a:	c3                   	retq   
--
  410154:	48 8b 7d e8          	mov    -0x18(%rbp),%rdi
  410158:	48 89 c6             	mov    %rax,%rsi
  41015b:	e8 70 00 01 00       	callq  4201d0 <_ZNSt6vectorISsSaISsEE12emplace_backIJSsEEEvDpOT_379>
  410160:	48 83 c4 20          	add    $0x20,%rsp
  410164:	5d                   	pop    %rbp
  410165:	c3                   	retq   
--
  4101e4:	48 8b 7d e8          	mov    -0x18(%rbp),%rdi
  4101e8:	48 89 c6             	mov    %rax,%rsi
  4101eb:	e8 d0 fa 00 00       	callq  41fcc0 <_ZNSt6vectorISsSaISsEE19_M_emplace_back_auxIJSsEEEvDpOT_366>
  4101f0:	48 83 c4 30          	add    $0x30,%rsp
  4101f4:	5d                   	pop    %rbp
  4101f5:	c3                   	retq   
--
  410200:	55                   	push   %rbp
  410201:	48 89 e5             	mov    %rsp,%rbp
  410204:	48 89 7d f8          	mov    %rdi,-0x8(%rbp)
  410208:	48 8b 45 f8          	mov    -0x8(%rbp),%rax
  41020c:	5d                   	pop    %rbp
  41020d:	c3                   	retq   
--
  410244:	48 8b 75 d8          	mov    -0x28(%rbp),%rsi
  410248:	48 89 c2             	mov    %rax,%rdx
  41024b:	e8 d0 3b 01 00       	callq  423e20 <_ZNSt16allocator_traitsISaISsEE12_S_constructISsJSsEEENSt9enable_ifIXsr18__construct_helperIT_DpT0_EE5valueEvE4typeERS0_PS4_DpOS5_560>
  410250:	48 83 c4 30          	add    $0x30,%rsp
  410254:	5d                   	pop    %rbp
  410255:	c3                   	retq   
--
  410260:	55                   	push   %rbp
  410261:	48 89 e5             	mov    %rsp,%rbp
  410264:	48 89 7d f8          	mov    %rdi,-0x8(%rbp)
  410268:	48 8b 45 f8          	mov    -0x8(%rbp),%rax
  41026c:	5d                   	pop    %rbp
  41026d:	c3                   	retq   
--
  41040e:	48 8b 75 e0          	mov    -0x20(%rbp),%rsi
  410412:	48 8b 55 e8          	mov    -0x18(%rbp),%rdx
  410416:	48 8b 7d b8          	mov    -0x48(%rbp),%rdi
  41041a:	e8 c1 ff 00 00       	callq  4203e0 <_ZNSt12_Vector_baseISsSaISsEE13_M_deallocateEPSsm386>
  41041f:	e9 00 00 00 00       	jmpq   410424 <_ZNSt6vectorISsSaISsEE19_M_emplace_back_auxIJSsEEEvDpOT_+0x1b4>
  410424:	e8 a7 72 ff ff       	callq  4076d0 <__cxa_rethrow@plt>
--
  4104b4:	48 c1 e2 03          	shl    $0x3,%rdx
  4104b8:	48 01 d0             	add    %rdx,%rax
  4104bb:	48 89 41 10          	mov    %rax,0x10(%rcx)
  4104bf:	48 81 c4 c0 00 00 00 	add    $0xc0,%rsp
  4104c6:	5d                   	pop    %rbp
  4104c7:	c3                   	retq   
--
  4105bb:	48 8b 45 e0          	mov    -0x20(%rbp),%rax
  4105bf:	48 89 45 a8          	mov    %rax,-0x58(%rbp)
  4105c3:	48 8b 45 a8          	mov    -0x58(%rbp),%rax
  4105c7:	48 83 c4 60          	add    $0x60,%rsp
  4105cb:	5d                   	pop    %rbp
  4105cc:	c3                   	retq   
--
  41060a:	48 8b 7d d8          	mov    -0x28(%rbp),%rdi
  41060e:	48 8b 75 d0          	mov    -0x30(%rbp),%rsi
  410612:	e8 a9 4d 01 00       	callq  4253c0 <_ZSt22__uninitialized_copy_aISt13move_iteratorIPSsES1_SsET0_T_S4_S3_RSaIT1_E635>
  410617:	48 83 c4 30          	add    $0x30,%rsp
  41061b:	5d                   	pop    %rbp
  41061c:	c3                   	retq   
--
  410630:	48 8b 7d f8          	mov    -0x8(%rbp),%rdi
  410634:	48 8b 75 f0          	mov    -0x10(%rbp),%rsi
  410638:	e8 93 3d 01 00       	callq  4243d0 <_ZNSt16allocator_traitsISaISsEE10_S_destroyISsEENSt9enable_ifIXsr16__destroy_helperIT_EE5valueEvE4typeERS0_PS4_581>
  41063d:	48 83 c4 10          	add    $0x10,%rsp
  410641:	5d                   	pop    %rbp
  410642:	c3                   	retq   
--
  41066c:	48 89 f7             	mov    %rsi,%rdi
  41066f:	48 8b 75 e8          	mov    -0x18(%rbp),%rsi
  410673:	e8 38 47 01 00       	callq  424db0 <_ZN9__gnu_cxx13new_allocatorISsE7destroyISsEEvPT_609>
  410678:	48 83 c4 20          	add    $0x20,%rsp
  41067c:	5d                   	pop    %rbp
  41067d:	c3                   	retq   
--
  41068c:	48 89 75 f0          	mov    %rsi,-0x10(%rbp)
  410690:	48 8b 7d f0          	mov    -0x10(%rbp),%rdi
  410694:	e8 67 71 ff ff       	callq  407800 <_ZNSsD1Ev@plt>
  410699:	48 83 c4 10          	add    $0x10,%rsp
  41069d:	5d                   	pop    %rbp
  41069e:	c3                   	retq   
--
  4106cc:	48 8b 7d d8          	mov    -0x28(%rbp),%rdi
  4106d0:	48 8b 75 d0          	mov    -0x30(%rbp),%rsi
  4106d4:	e8 07 d4 00 00       	callq  41dae0 <_ZSt18uninitialized_copyISt13move_iteratorIPSsES1_ET0_T_S4_S3_253>
  4106d9:	48 83 c4 30          	add    $0x30,%rsp
  4106dd:	5d                   	pop    %rbp
  4106de:	c3                   	retq   
--
  4106f4:	48 89 c7             	mov    %rax,%rdi
  4106f7:	e8 24 52 01 00       	callq  425920 <_ZNSt13move_iteratorIPSsEC2ES0_657>
  4106fc:	48 8b 45 f8          	mov    -0x8(%rbp),%rax
  410700:	48 83 c4 10          	add    $0x10,%rsp
  410704:	5d                   	pop    %rbp
  410705:	c3                   	retq   
--
  410718:	48 89 75 f0          	mov    %rsi,-0x10(%rbp)
  41071c:	48 8b 75 f8          	mov    -0x8(%rbp),%rsi
  410720:	48 8b 7d f0          	mov    -0x10(%rbp),%rdi
  410724:	48 89 3e             	mov    %rdi,(%rsi)
  410727:	5d                   	pop    %rbp
  410728:	c3                   	retq   
--
  410758:	48 8b 7d e0          	mov    -0x20(%rbp),%rdi
  41075c:	48 8b 75 d8          	mov    -0x28(%rbp),%rsi
  410760:	e8 2b 21 01 00       	callq  422890 <_ZNSt20__uninitialized_copyILb0EE13__uninit_copyISt13move_iteratorIPSsES3_EET0_T_S6_S5_483>
  410765:	48 83 c4 30          	add    $0x30,%rsp
  410769:	5d                   	pop    %rbp
  41076a:	c3                   	retq   
--
  41081e:	48 8b 7d e8          	mov    -0x18(%rbp),%rdi
  410822:	48 8b 75 e0          	mov    -0x20(%rbp),%rsi
  410826:	48 89 45 b0          	mov    %rax,-0x50(%rbp)
  41082a:	e8 a1 a8 00 00       	callq  41b0d0 <_ZSt8_DestroyIPSsEvT_S1_110>
  41082f:	e9 00 00 00 00       	jmpq   410834 <_ZNSt20__uninitialized_copyILb0EE13__uninit_copyISt13move_iteratorIPSsES3_EET0_T_S6_S5_+0xc4>
  410834:	e8 97 6e ff ff       	callq  4076d0 <__cxa_rethrow@plt>
  410839:	e9 38 00 00 00       	jmpq   410876 <_ZNSt20__uninitialized_copyILb0EE13__uninit_copyISt13move_iteratorIPSsES3_EET0_T_S6_S5_+0x106>
  41083e:	48 8b 45 e0          	mov    -0x20(%rbp),%rax
  410842:	48 83 c4 60          	add    $0x60,%rsp
  410846:	5d                   	pop    %rbp
  410847:	c3                   	retq   
--
  41089d:	34 01                	xor    $0x1,%al
  41089f:	24 01                	and    $0x1,%al
  4108a1:	0f b6 c0             	movzbl %al,%eax
  4108a4:	48 83 c4 10          	add    $0x10,%rsp
  4108a8:	5d                   	pop    %rbp
  4108a9:	c3                   	retq   
--
  4108e6:	48 8b 7d e0          	mov    -0x20(%rbp),%rdi
  4108ea:	48 89 c6             	mov    %rax,%rsi
  4108ed:	e8 1e 73 ff ff       	callq  407c10 <_ZNSsC1EOSs@plt>
  4108f2:	48 83 c4 20          	add    $0x20,%rsp
  4108f6:	5d                   	pop    %rbp
  4108f7:	c3                   	retq   
--
  41090c:	48 8b 7d f8          	mov    -0x8(%rbp),%rdi
  410910:	48 8b 3f             	mov    (%rdi),%rdi
  410913:	e8 48 24 01 00       	callq  422d60 <_ZSt4moveIRSsEONSt16remove_referenceIT_E4typeEOS2_493>
  410918:	48 83 c4 10          	add    $0x10,%rsp
  41091c:	5d                   	pop    %rbp
  41091d:	c3                   	retq   
--
  41092c:	48 8b 07             	mov    (%rdi),%rax
  41092f:	48 05 08 00 00 00    	add    $0x8,%rax
  410935:	48 89 07             	mov    %rax,(%rdi)
  410938:	48 89 f8             	mov    %rdi,%rax
  41093b:	5d                   	pop    %rbp
  41093c:	c3                   	retq   
--
  41096d:	0f 94 c1             	sete   %cl
  410970:	80 e1 01             	and    $0x1,%cl
  410973:	0f b6 c1             	movzbl %cl,%eax
  410976:	48 83 c4 20          	add    $0x20,%rsp
  41097a:	5d                   	pop    %rbp
  41097b:	c3                   	retq   
--
  410981:	48 89 e5             	mov    %rsp,%rbp
  410984:	48 89 7d f8          	mov    %rdi,-0x8(%rbp)
  410988:	48 8b 7d f8          	mov    -0x8(%rbp),%rdi
  41098c:	48 8b 07             	mov    (%rdi),%rax
  41098f:	5d                   	pop    %rbp
  410990:	c3                   	retq   
--
  4109b9:	48 89 45 f0          	mov    %rax,-0x10(%rbp)
  4109bd:	e9 00 00 00 00       	jmpq   4109c2 <_ZNKSt6vectorISsSaISsEE8max_sizeEv+0x22>
  4109c2:	48 8b 45 f0          	mov    -0x10(%rbp),%rax
  4109c6:	48 83 c4 20          	add    $0x20,%rsp
  4109ca:	5d                   	pop    %rbp
  4109cb:	c3                   	retq   
--
  410a08:	e9 08 00 00 00       	jmpq   410a15 <_ZSt3maxImERKT_S2_S2_+0x35>
  410a0d:	48 8b 45 f0          	mov    -0x10(%rbp),%rax
  410a11:	48 89 45 f8          	mov    %rax,-0x8(%rbp)
  410a15:	48 8b 45 f8          	mov    -0x8(%rbp),%rax
  410a19:	5d                   	pop    %rbp
  410a1a:	c3                   	retq   
--
  410a28:	48 89 7d f8          	mov    %rdi,-0x8(%rbp)
  410a2c:	48 8b 7d f8          	mov    -0x8(%rbp),%rdi
  410a30:	e8 9b eb 00 00       	callq  41f5d0 <_ZNSt16allocator_traitsISaISsEE11_S_max_sizeIKS0_EENSt9enable_ifIXsr16__maxsize_helperIT_EE5valueEmE4typeERS5_335>
  410a35:	48 83 c4 10          	add    $0x10,%rsp
  410a39:	5d                   	pop    %rbp
  410a3a:	c3                   	retq   
--
  410a48:	48 89 7d f8          	mov    %rdi,-0x8(%rbp)
  410a4c:	48 8b 7d f8          	mov    -0x8(%rbp),%rdi
  410a50:	e8 bb b1 00 00       	callq  41bc10 <_ZNK9__gnu_cxx13new_allocatorISsE8max_sizeEv154>
  410a55:	48 83 c4 10          	add    $0x10,%rsp
  410a59:	5d                   	pop    %rbp
  410a5a:	c3                   	retq   
--
  410a91:	48 8b 75 d8          	mov    -0x28(%rbp),%rsi
  410a95:	48 89 c2             	mov    %rax,%rdx
  410a98:	e8 a3 c5 00 00       	callq  41d040 <_ZN9__gnu_cxx13new_allocatorISsE9constructISsJSsEEEvPT_DpOT0_217>
  410a9d:	48 83 c4 30          	add    $0x30,%rsp
  410aa1:	5d                   	pop    %rbp
  410aa2:	c3                   	retq   
--
  410aea:	48 8b 7d d8          	mov    -0x28(%rbp),%rdi
  410aee:	48 89 c6             	mov    %rax,%rsi
  410af1:	e8 1a 71 ff ff       	callq  407c10 <_ZNSsC1EOSs@plt>
  410af6:	48 83 c4 30          	add    $0x30,%rsp
  410afa:	5d                   	pop    %rbp
  410afb:	c3                   	retq   
--
  410b08:	48 89 7d f8          	mov    %rdi,-0x8(%rbp)
  410b0c:	48 8b 7d f8          	mov    -0x8(%rbp),%rdi
  410b10:	e8 fb 91 00 00       	callq  419d10 <_ZNSt12_Vector_baseISsSaISsEE12_Vector_implC2Ev59>
  410b15:	48 83 c4 10          	add    $0x10,%rsp
  410b19:	5d                   	pop    %rbp
  410b1a:	c3                   	retq   
--
  410b51:	00 
  410b52:	48 c7 40 10 00 00 00 	movq   $0x0,0x10(%rax)
  410b59:	00 
  410b5a:	48 83 c4 10          	add    $0x10,%rsp
  410b5e:	5d                   	pop    %rbp
  410b5f:	c3                   	retq   
--
  410b68:	48 89 7d f8          	mov    %rdi,-0x8(%rbp)
  410b6c:	48 8b 7d f8          	mov    -0x8(%rbp),%rdi
  410b70:	e8 3b 28 01 00       	callq  4233b0 <_ZN9__gnu_cxx13new_allocatorISsEC2Ev526>
  410b75:	48 83 c4 10          	add    $0x10,%rsp
  410b79:	5d                   	pop    %rbp
  410b7a:	c3                   	retq   
--
0000000000410b80 <_ZN9__gnu_cxx13new_allocatorISsEC2Ev>:
  410b80:	55                   	push   %rbp
  410b81:	48 89 e5             	mov    %rsp,%rbp
  410b84:	48 89 7d f8          	mov    %rdi,-0x8(%rbp)
  410b88:	5d                   	pop    %rbp
  410b89:	c3                   	retq   
--
  410ba3:	48 8b 7d f0          	mov    -0x10(%rbp),%rdi
  410ba7:	48 c1 e7 03          	shl    $0x3,%rdi
  410bab:	48 01 fe             	add    %rdi,%rsi
  410bae:	48 89 f0             	mov    %rsi,%rax
  410bb1:	5d                   	pop    %rbp
  410bb2:	c3                   	retq   
--
  410bf7:	48 8b 45 d0          	mov    -0x30(%rbp),%rax
  410bfb:	48 89 45 f0          	mov    %rax,-0x10(%rbp)
  410bff:	48 8b 45 f0          	mov    -0x10(%rbp),%rax
  410c03:	48 83 c4 30          	add    $0x30,%rsp
  410c07:	5d                   	pop    %rbp
  410c08:	c3                   	retq   
--
  410d0c:	48 89 c7             	mov    %rax,%rdi
  410d0f:	e8 ec 21 01 00       	callq  422f00 <_ZN5boost9function1IvRKtEC2Ev502>
  410d14:	e9 00 00 00 00       	jmpq   410d19 <_ZN5boost15program_options11typed_valueItcEC2EPt+0xe9>
  410d19:	48 83 c4 50          	add    $0x50,%rsp
  410d1d:	5d                   	pop    %rbp
  410d1e:	c3                   	retq   
--
  410dd6:	48 05 10 00 00 00    	add    $0x10,%rax
  410ddc:	48 8b 7d f0          	mov    -0x10(%rbp),%rdi
  410de0:	48 89 07             	mov    %rax,(%rdi)
  410de3:	48 83 c4 10          	add    $0x10,%rsp
  410de7:	5d                   	pop    %rbp
  410de8:	c3                   	retq   
--
  410dfb:	48 05 10 00 00 00    	add    $0x10,%rax
  410e01:	48 89 7d f8          	mov    %rdi,-0x8(%rbp)
  410e05:	48 8b 7d f8          	mov    -0x8(%rbp),%rdi
  410e09:	48 89 07             	mov    %rax,(%rdi)
  410e0c:	5d                   	pop    %rbp
  410e0d:	c3                   	retq   
--
  410e11:	48 89 e5             	mov    %rsp,%rbp
  410e14:	48 89 7d f8          	mov    %rdi,-0x8(%rbp)
  410e18:	48 8b 7d f8          	mov    -0x8(%rbp),%rdi
  410e1c:	48 c7 07 00 00 00 00 	movq   $0x0,(%rdi)
  410e23:	5d                   	pop    %rbp
  410e24:	c3                   	retq   
--
  410e38:	48 89 7d f8          	mov    %rdi,-0x8(%rbp)
  410e3c:	48 8b 7d f8          	mov    -0x8(%rbp),%rdi
  410e40:	e8 4b 8a 00 00       	callq  419890 <_ZN5boost13function_baseC2Ev37>
  410e45:	48 83 c4 10          	add    $0x10,%rsp
  410e49:	5d                   	pop    %rbp
  410e4a:	c3                   	retq   
--
  410e58:	48 89 7d f8          	mov    %rdi,-0x8(%rbp)
  410e5c:	48 8b 7d f8          	mov    -0x8(%rbp),%rdi
  410e60:	e8 bb 18 01 00       	callq  422720 <_ZN5boost15program_options14value_semanticD2Ev476>
  410e65:	48 83 c4 10          	add    $0x10,%rsp
  410e69:	5d                   	pop    %rbp
  410e6a:	c3                   	retq   
--
  4111c4:	48 8b 7d 90          	mov    -0x70(%rbp),%rdi
  4111c8:	e8 c3 65 ff ff       	callq  407790 <_ZNSsC1ERKSs@plt>
  4111cd:	48 8b 45 88          	mov    -0x78(%rbp),%rax
  4111d1:	48 81 c4 a0 00 00 00 	add    $0xa0,%rsp
  4111d8:	5d                   	pop    %rbp
  4111d9:	c3                   	retq   
--
  41122f:	e9 07 00 00 00       	jmpq   41123b <_ZNK5boost15program_options11typed_valueItcE10min_tokensEv+0x4b>
  411234:	c7 45 fc 01 00 00 00 	movl   $0x1,-0x4(%rbp)
  41123b:	8b 45 fc             	mov    -0x4(%rbp),%eax
  41123e:	48 83 c4 20          	add    $0x20,%rsp
  411242:	5d                   	pop    %rbp
  411243:	c3                   	retq   
--
  411284:	c7 45 fc 00 00 00 00 	movl   $0x0,-0x4(%rbp)
  41128b:	e9 07 00 00 00       	jmpq   411297 <_ZNK5boost15program_options11typed_valueItcE10max_tokensEv+0x47>
  411290:	c7 45 fc 01 00 00 00 	movl   $0x1,-0x4(%rbp)
  411297:	8b 45 fc             	mov    -0x4(%rbp),%eax
  41129a:	5d                   	pop    %rbp
  41129b:	c3                   	retq   
--
  4112a8:	48 8b 7d f8          	mov    -0x8(%rbp),%rdi
  4112ac:	8a 47 40             	mov    0x40(%rdi),%al
  4112af:	24 01                	and    $0x1,%al
  4112b1:	0f b6 c0             	movzbl %al,%eax
  4112b4:	5d                   	pop    %rbp
  4112b5:	c3                   	retq   
--
  4112c8:	48 8b 7d f8          	mov    -0x8(%rbp),%rdi
  4112cc:	8a 47 44             	mov    0x44(%rdi),%al
  4112cf:	24 01                	and    $0x1,%al
  4112d1:	0f b6 c0             	movzbl %al,%eax
  4112d4:	5d                   	pop    %rbp
  4112d5:	c3                   	retq   
--
  41133b:	8a 45 ff             	mov    -0x1(%rbp),%al
  41133e:	24 01                	and    $0x1,%al
  411340:	0f b6 c0             	movzbl %al,%eax
  411343:	48 83 c4 30          	add    $0x30,%rsp
  411347:	5d                   	pop    %rbp
  411348:	c3                   	retq   
--
  4113c5:	48 8b 75 e8          	mov    -0x18(%rbp),%rsi
  4113c9:	48 89 c7             	mov    %rax,%rdi
  4113cc:	e8 9f b2 00 00       	callq  41c670 <_ZNK5boost9function1IvRKtEclES2_188>
  4113d1:	48 83 c4 30          	add    $0x30,%rsp
  4113d5:	5d                   	pop    %rbp
  4113d6:	c3                   	retq   
--
  41148f:	48 8b 45 f0          	mov    -0x10(%rbp),%rax
  411493:	48 89 c7             	mov    %rax,%rdi
  411496:	e8 15 2a 01 00       	callq  423eb0 <_ZN5boost15program_options29value_semantic_codecvt_helperIcED2Ev562>
  41149b:	48 83 c4 10          	add    $0x10,%rsp
  41149f:	5d                   	pop    %rbp
  4114a0:	c3                   	retq   
--
  4114c4:	e8 27 f3 00 00       	callq  4207f0 <_ZN5boost15program_options11typed_valueItcED2Ev401>
  4114c9:	48 8b 7d f0          	mov    -0x10(%rbp),%rdi
  4114cd:	e8 9e 61 ff ff       	callq  407670 <_ZdlPv@plt>
  4114d2:	48 83 c4 10          	add    $0x10,%rsp
  4114d6:	5d                   	pop    %rbp
  4114d7:	c3                   	retq   
--
  411553:	48 8b 75 e8          	mov    -0x18(%rbp),%rsi
  411557:	48 89 ca             	mov    %rcx,%rdx
  41155a:	e8 01 7b 00 00       	callq  419060 <_ZN5boost15program_options8validateItcEEvRNS_3anyERKSt6vectorISbIT0_St11char_traitsIS5_ESaIS5_EESaIS9_EEPT_l4>
  41155f:	48 83 c4 30          	add    $0x30,%rsp
  411563:	5d                   	pop    %rbp
  411564:	c3                   	retq   
--
  411570:	55                   	push   %rbp
  411571:	48 89 e5             	mov    %rsp,%rbp
  411574:	48 8b 05 0d 8a 22 00 	mov    0x228a0d(%rip),%rax        # 639f88 <_DYNAMIC+0x250>
  41157b:	48 89 7d f8          	mov    %rdi,-0x8(%rbp)
  41157f:	5d                   	pop    %rbp
  411580:	c3                   	retq   
--
  41159c:	48 8b 7d f8          	mov    -0x8(%rbp),%rdi
  4115a0:	48 81 c7 f8 ff ff ff 	add    $0xfffffffffffffff8,%rdi
  4115a7:	e8 44 bc 00 00       	callq  41d1f0 <_ZNK5boost15program_options11typed_valueItcE10value_typeEv227>
  4115ac:	48 83 c4 10          	add    $0x10,%rsp
  4115b0:	5d                   	pop    %rbp
  4115b1:	c3                   	retq   
--
  4115cc:	48 8b 7d f8          	mov    -0x8(%rbp),%rdi
  4115d0:	48 81 c7 f8 ff ff ff 	add    $0xfffffffffffffff8,%rdi
  4115d7:	e8 14 f2 00 00       	callq  4207f0 <_ZN5boost15program_options11typed_valueItcED2Ev401>
  4115dc:	48 83 c4 10          	add    $0x10,%rsp
  4115e0:	5d                   	pop    %rbp
  4115e1:	c3                   	retq   
--
  4115fc:	48 8b 7d f8          	mov    -0x8(%rbp),%rdi
  411600:	48 81 c7 f8 ff ff ff 	add    $0xfffffffffffffff8,%rdi
  411607:	e8 b4 89 00 00       	callq  419fc0 <_ZN5boost15program_options11typed_valueItcED0Ev65>
  41160c:	48 83 c4 10          	add    $0x10,%rsp
  411610:	5d                   	pop    %rbp
  411611:	c3                   	retq   
--
  41165b:	8a 45 df             	mov    -0x21(%rbp),%al
  41165e:	24 01                	and    $0x1,%al
  411660:	0f b6 c0             	movzbl %al,%eax
  411663:	48 83 c4 30          	add    $0x30,%rsp
  411667:	5d                   	pop    %rbp
  411668:	c3                   	retq   
--
  411693:	0f 95 c0             	setne  %al
  411696:	34 01                	xor    $0x1,%al
  411698:	24 01                	and    $0x1,%al
  41169a:	0f b6 c0             	movzbl %al,%eax
  41169d:	5d                   	pop    %rbp
  41169e:	c3                   	retq   
--
  4116e4:	48 89 45 d0          	mov    %rax,-0x30(%rbp)
  4116e8:	e8 13 0d 01 00       	callq  422400 <_ZN5boost3anyD2Ev465>
  4116ed:	48 8b 45 d8          	mov    -0x28(%rbp),%rax
  4116f1:	48 83 c4 30          	add    $0x30,%rsp
  4116f5:	5d                   	pop    %rbp
  4116f6:	c3                   	retq   
--
  41182a:	e9 12 00 00 00       	jmpq   411841 <_ZN5boost15program_options8validateItcEEvRNS_3anyERKSt6vectorISbIT0_St11char_traitsIS5_ESaIS5_EESaIS9_EEPT_l+0x141>
  41182f:	48 8d 7d d8          	lea    -0x28(%rbp),%rdi
  411833:	e8 c8 5f ff ff       	callq  407800 <_ZNSsD1Ev@plt>
  411838:	48 81 c4 10 01 00 00 	add    $0x110,%rsp
  41183f:	5d                   	pop    %rbp
  411840:	c3                   	retq   
--
  411b87:	48 8d 05 7a 88 22 00 	lea    0x22887a(%rip),%rax        # 63a408 <_ZZN5boost15program_options10validators17get_single_stringIcEERKSbIT_St11char_traitsIS3_ESaIS3_EERKSt6vectorIS7_SaIS7_EEbE5empty>
  411b8e:	48 89 45 f8          	mov    %rax,-0x8(%rbp)
  411b92:	48 8b 45 f8          	mov    -0x8(%rbp),%rax
  411b96:	48 81 c4 b0 01 00 00 	add    $0x1b0,%rsp
  411b9d:	5d                   	pop    %rbp
  411b9e:	c3                   	retq   
--
  411bef:	48 89 45 d0          	mov    %rax,-0x30(%rbp)
  411bf3:	e8 08 08 01 00       	callq  422400 <_ZN5boost3anyD2Ev465>
  411bf8:	48 8b 45 e0          	mov    -0x20(%rbp),%rax
  411bfc:	48 83 c4 30          	add    $0x30,%rsp
  411c00:	5d                   	pop    %rbp
  411c01:	c3                   	retq   
--
  411c1c:	48 8b 7d f8          	mov    -0x8(%rbp),%rdi
  411c20:	e8 6b 8e 00 00       	callq  41aa90 <_ZN5boost6detail20lexical_cast_do_castItSsE17lexical_cast_implERKSs87>
  411c25:	0f b7 c0             	movzwl %ax,%eax
  411c28:	48 83 c4 10          	add    $0x10,%rsp
  411c2c:	5d                   	pop    %rbp
  411c2d:	c3                   	retq   
--
  411c82:	48 8b 45 c0          	mov    -0x40(%rbp),%rax
  411c86:	48 8b 4d d0          	mov    -0x30(%rbp),%rcx
  411c8a:	48 89 01             	mov    %rax,(%rcx)
  411c8d:	48 83 c4 50          	add    $0x50,%rsp
  411c91:	5d                   	pop    %rbp
  411c92:	c3                   	retq   
--
  411cda:	48 8b 75 f8          	mov    -0x8(%rbp),%rsi
  411cde:	48 8d 8d 40 ff ff ff 	lea    -0xc0(%rbp),%rcx
  411ce5:	48 89 bd 28 ff ff ff 	mov    %rdi,-0xd8(%rbp)
  411cec:	48 89 cf             	mov    %rcx,%rdi
  411cef:	48 89 85 20 ff ff ff 	mov    %rax,-0xe0(%rbp)
  411cf6:	e8 c5 3b 01 00       	callq  4258c0 <_ZN5boost17enable_error_infoINS_15program_options20invalid_option_valueEEENS_16exception_detail29enable_error_info_return_typeIT_E4typeERKS5_655>
--
  411da8:	48 89 7d f8          	mov    %rdi,-0x8(%rbp)
  411dac:	48 8b 7d f8          	mov    -0x8(%rbp),%rdi
  411db0:	e8 2b 7d 00 00       	callq  419ae0 <_ZN5boost15program_options16validation_errorD2Ev48>
  411db5:	48 83 c4 10          	add    $0x10,%rsp
  411db9:	5d                   	pop    %rbp
  411dba:	c3                   	retq   
--
  411e2b:	48 8b 45 f0          	mov    -0x10(%rbp),%rax
  411e2f:	48 89 c7             	mov    %rax,%rdi
  411e32:	e8 29 7b 00 00       	callq  419960 <_ZN5boost15program_options5errorD2Ev41>
  411e37:	48 83 c4 10          	add    $0x10,%rsp
  411e3b:	5d                   	pop    %rbp
  411e3c:	c3                   	retq   
--
  411e48:	48 89 7d f8          	mov    %rdi,-0x8(%rbp)
  411e4c:	48 8b 7d f8          	mov    -0x8(%rbp),%rdi
  411e50:	e8 eb 7d 00 00       	callq  419c40 <_ZNSt8_Rb_treeISsSt4pairIKSsS0_ISsSsEESt10_Select1stIS3_ESt4lessISsESaIS3_EED2Ev56>
  411e55:	48 83 c4 10          	add    $0x10,%rsp
  411e59:	5d                   	pop    %rbp
  411e5a:	c3                   	retq   
--
  411e8e:	e9 00 00 00 00       	jmpq   411e93 <_ZNSt8_Rb_treeISsSt4pairIKSsS0_ISsSsEESt10_Select1stIS3_ESt4lessISsESaIS3_EED2Ev+0x33>
  411e93:	48 8b 7d e0          	mov    -0x20(%rbp),%rdi
  411e97:	e8 d4 77 00 00       	callq  419670 <_ZNSt8_Rb_treeISsSt4pairIKSsS0_ISsSsEESt10_Select1stIS3_ESt4lessISsESaIS3_EE13_Rb_tree_implIS7_Lb1EED2Ev26>
  411e9c:	48 83 c4 30          	add    $0x30,%rsp
  411ea0:	5d                   	pop    %rbp
  411ea1:	c3                   	retq   
--
  411f1b:	48 8b 45 e8          	mov    -0x18(%rbp),%rax
  411f1f:	48 89 45 f0          	mov    %rax,-0x10(%rbp)
  411f23:	e9 b0 ff ff ff       	jmpq   411ed8 <_ZNSt8_Rb_treeISsSt4pairIKSsS0_ISsSsEESt10_Select1stIS3_ESt4lessISsESaIS3_EE8_M_eraseEPSt13_Rb_tree_nodeIS3_E+0x18>
  411f28:	48 83 c4 20          	add    $0x20,%rsp
  411f2c:	5d                   	pop    %rbp
  411f2d:	c3                   	retq   
--
  411f34:	48 89 7d f8          	mov    %rdi,-0x8(%rbp)
  411f38:	48 8b 7d f8          	mov    -0x8(%rbp),%rdi
  411f3c:	48 8b 7f 10          	mov    0x10(%rdi),%rdi
  411f40:	48 89 f8             	mov    %rdi,%rax
  411f43:	5d                   	pop    %rbp
  411f44:	c3                   	retq   
--
  411f58:	48 89 7d f8          	mov    %rdi,-0x8(%rbp)
  411f5c:	48 8b 7d f8          	mov    -0x8(%rbp),%rdi
  411f60:	e8 3b bf 00 00       	callq  41dea0 <_ZNSaISt13_Rb_tree_nodeISt4pairIKSsS0_ISsSsEEEED2Ev267>
  411f65:	48 83 c4 10          	add    $0x10,%rsp
  411f69:	5d                   	pop    %rbp
  411f6a:	c3                   	retq   
--
  411f78:	48 89 7d f8          	mov    %rdi,-0x8(%rbp)
  411f7c:	48 8b 7d f8          	mov    -0x8(%rbp),%rdi
  411f80:	e8 9b 3f 01 00       	callq  425f20 <_ZN9__gnu_cxx13new_allocatorISt13_Rb_tree_nodeISt4pairIKSsS2_ISsSsEEEED2Ev674>
  411f85:	48 83 c4 10          	add    $0x10,%rsp
  411f89:	5d                   	pop    %rbp
  411f8a:	c3                   	retq   
--
0000000000411f90 <_ZN9__gnu_cxx13new_allocatorISt13_Rb_tree_nodeISt4pairIKSsS2_ISsSsEEEED2Ev>:
  411f90:	55                   	push   %rbp
  411f91:	48 89 e5             	mov    %rsp,%rbp
  411f94:	48 89 7d f8          	mov    %rdi,-0x8(%rbp)
  411f98:	5d                   	pop    %rbp
  411f99:	c3                   	retq   
--
  411fa4:	48 89 7d f8          	mov    %rdi,-0x8(%rbp)
  411fa8:	48 8b 7d f8          	mov    -0x8(%rbp),%rdi
  411fac:	48 8b 7f 18          	mov    0x18(%rdi),%rdi
  411fb0:	48 89 f8             	mov    %rdi,%rax
  411fb3:	5d                   	pop    %rbp
  411fb4:	c3                   	retq   
--
  411fc4:	48 89 7d f8          	mov    %rdi,-0x8(%rbp)
  411fc8:	48 8b 7d f8          	mov    -0x8(%rbp),%rdi
  411fcc:	48 8b 7f 10          	mov    0x10(%rdi),%rdi
  411fd0:	48 89 f8             	mov    %rdi,%rax
  411fd3:	5d                   	pop    %rbp
  411fd4:	c3                   	retq   
--
  41200c:	48 8b 75 f0          	mov    -0x10(%rbp),%rsi
  412010:	48 8b 7d e8          	mov    -0x18(%rbp),%rdi
  412014:	e8 67 7d 00 00       	callq  419d80 <_ZNSt8_Rb_treeISsSt4pairIKSsS0_ISsSsEESt10_Select1stIS3_ESt4lessISsESaIS3_EE11_M_put_nodeEPSt13_Rb_tree_nodeIS3_E61>
  412019:	48 83 c4 20          	add    $0x20,%rsp
  41201d:	5d                   	pop    %rbp
  41201e:	c3                   	retq   
--
  412021:	48 89 e5             	mov    %rsp,%rbp
  412024:	48 89 7d f8          	mov    %rdi,-0x8(%rbp)
  412028:	48 8b 7d f8          	mov    -0x8(%rbp),%rdi
  41202c:	48 89 f8             	mov    %rdi,%rax
  41202f:	5d                   	pop    %rbp
  412030:	c3                   	retq   
--
  41204c:	48 89 75 f0          	mov    %rsi,-0x10(%rbp)
  412050:	48 8b 7d f0          	mov    -0x10(%rbp),%rdi
  412054:	e8 f7 7c 00 00       	callq  419d50 <_ZNSt13_Rb_tree_nodeISt4pairIKSsS0_ISsSsEEED2Ev60>
  412059:	48 83 c4 10          	add    $0x10,%rsp
  41205d:	5d                   	pop    %rbp
  41205e:	c3                   	retq   
--
  412083:	48 89 f7             	mov    %rsi,%rdi
  412086:	48 8b 75 e8          	mov    -0x18(%rbp),%rsi
  41208a:	e8 71 12 01 00       	callq  423300 <_ZN9__gnu_cxx13new_allocatorISt13_Rb_tree_nodeISt4pairIKSsS2_ISsSsEEEE10deallocateEPS6_m521>
  41208f:	48 83 c4 20          	add    $0x20,%rsp
  412093:	5d                   	pop    %rbp
  412094:	c3                   	retq   
--
  4120b4:	48 8b 55 f0          	mov    -0x10(%rbp),%rdx
  4120b8:	48 89 d7             	mov    %rdx,%rdi
  4120bb:	e8 b0 55 ff ff       	callq  407670 <_ZdlPv@plt>
  4120c0:	48 83 c4 20          	add    $0x20,%rsp
  4120c4:	5d                   	pop    %rbp
  4120c5:	c3                   	retq   
--
  4120dc:	48 8b 7d f8          	mov    -0x8(%rbp),%rdi
  4120e0:	48 81 c7 20 00 00 00 	add    $0x20,%rdi
  4120e7:	e8 d4 0b 01 00       	callq  422cc0 <_ZNSt4pairIKSsS_ISsSsEED2Ev491>
  4120ec:	48 83 c4 10          	add    $0x10,%rsp
  4120f0:	5d                   	pop    %rbp
  4120f1:	c3                   	retq   
--
  412120:	e8 eb 8b 00 00       	callq  41ad10 <_ZNSt4pairISsSsED2Ev93>
  412125:	48 8b 7d f0          	mov    -0x10(%rbp),%rdi
  412129:	e8 d2 56 ff ff       	callq  407800 <_ZNSsD1Ev@plt>
  41212e:	48 83 c4 10          	add    $0x10,%rsp
  412132:	5d                   	pop    %rbp
  412133:	c3                   	retq   
--
  412160:	e8 9b 56 ff ff       	callq  407800 <_ZNSsD1Ev@plt>
  412165:	48 8b 7d f0          	mov    -0x10(%rbp),%rdi
  412169:	e8 92 56 ff ff       	callq  407800 <_ZNSsD1Ev@plt>
  41216e:	48 83 c4 10          	add    $0x10,%rsp
  412172:	5d                   	pop    %rbp
  412173:	c3                   	retq   
--
  412193:	48 89 45 f0          	mov    %rax,-0x10(%rbp)
  412197:	e8 64 a3 00 00       	callq  41c500 <_ZN5boost16exception_detail10clone_implINS0_19error_info_injectorINS_15program_options20invalid_option_valueEEEEC1ERKS5_184>
  41219c:	48 8b 45 f0          	mov    -0x10(%rbp),%rax
  4121a0:	48 83 c4 10          	add    $0x10,%rsp
  4121a4:	5d                   	pop    %rbp
  4121a5:	c3                   	retq   
  4121a6:	66 2e 0f 1f 84 00 00 	nopw   %cs:0x0(%rax,%rax,1)
  4121ad:	00 00 00 

00000000004121b0 <_ZN5boost17enable_error_infoINS_15program_options20invalid_option_valueEEENS_16exception_detail29enable_error_info_return_typeIT_E4typeERKS5_>:
--
  4121c3:	48 89 45 f0          	mov    %rax,-0x10(%rbp)
  4121c7:	e8 04 0f 01 00       	callq  4230d0 <_ZN5boost16exception_detail19error_info_injectorINS_15program_options20invalid_option_valueEEC2ERKS3_511>
  4121cc:	48 8b 45 f0          	mov    -0x10(%rbp),%rax
  4121d0:	48 83 c4 10          	add    $0x10,%rsp
  4121d4:	5d                   	pop    %rbp
  4121d5:	c3                   	retq   
--
  412204:	48 81 c6 b8 00 00 00 	add    $0xb8,%rsi
  41220b:	48 89 f7             	mov    %rsi,%rdi
  41220e:	e8 1d da 00 00       	callq  41fc30 <_ZN5boost16exception_detail10clone_baseD2Ev363>
  412213:	48 83 c4 10          	add    $0x10,%rsp
  412217:	5d                   	pop    %rbp
  412218:	c3                   	retq   
--
  412245:	48 8b 45 f0          	mov    -0x10(%rbp),%rax
  412249:	48 89 c7             	mov    %rax,%rdi
  41224c:	e8 5f 0e 01 00       	callq  4230b0 <_ZN5boost15program_options20invalid_option_valueD2Ev510>
  412251:	48 83 c4 10          	add    $0x10,%rsp
  412255:	5d                   	pop    %rbp
  412256:	c3                   	retq   
--
  41226c:	48 8b 7d f8          	mov    -0x8(%rbp),%rdi
  412270:	48 81 c7 70 ff ff ff 	add    $0xffffffffffffff70,%rdi
  412277:	e8 94 cf 00 00       	callq  41f210 <_ZN5boost16exception_detail19error_info_injectorINS_15program_options20invalid_option_valueEED2Ev329>
  41227c:	48 83 c4 10          	add    $0x10,%rsp
  412280:	5d                   	pop    %rbp
  412281:	c3                   	retq   
--
  4122a0:	48 8b 75 f8          	mov    -0x8(%rbp),%rsi
  4122a4:	48 89 f7             	mov    %rsi,%rdi
  4122a7:	e8 64 cf 00 00       	callq  41f210 <_ZN5boost16exception_detail19error_info_injectorINS_15program_options20invalid_option_valueEED2Ev329>
  4122ac:	48 83 c4 10          	add    $0x10,%rsp
  4122b0:	5d                   	pop    %rbp
  4122b1:	c3                   	retq   
--
  4122cc:	48 8b 7d f8          	mov    -0x8(%rbp),%rdi
  4122d0:	48 81 c7 70 ff ff ff 	add    $0xffffffffffffff70,%rdi
  4122d7:	e8 24 c6 00 00       	callq  41e900 <_ZN5boost16exception_detail10clone_implINS0_19error_info_injectorINS_15program_options20invalid_option_valueEEEED1Ev306>
  4122dc:	48 83 c4 10          	add    $0x10,%rsp
  4122e0:	5d                   	pop    %rbp
  4122e1:	c3                   	retq   
--
  412306:	48 03 47 d8          	add    -0x28(%rdi),%rax
  41230a:	48 89 c7             	mov    %rax,%rdi
  41230d:	e8 ee c5 00 00       	callq  41e900 <_ZN5boost16exception_detail10clone_implINS0_19error_info_injectorINS_15program_options20invalid_option_valueEEEED1Ev306>
  412312:	48 83 c4 10          	add    $0x10,%rsp
  412316:	5d                   	pop    %rbp
  412317:	c3                   	retq   
--
  412334:	e8 c7 c5 00 00       	callq  41e900 <_ZN5boost16exception_detail10clone_implINS0_19error_info_injectorINS_15program_options20invalid_option_valueEEEED1Ev306>
  412339:	48 8b 7d f0          	mov    -0x10(%rbp),%rdi
  41233d:	e8 2e 53 ff ff       	callq  407670 <_ZdlPv@plt>
  412342:	48 83 c4 10          	add    $0x10,%rsp
  412346:	5d                   	pop    %rbp
  412347:	c3                   	retq   
--
  4123ab:	e8 50 54 ff ff       	callq  407800 <_ZNSsD1Ev@plt>
  4123b0:	48 8d 7d e0          	lea    -0x20(%rbp),%rdi
  4123b4:	e8 d7 56 ff ff       	callq  407a90 <_ZNSaIcED1Ev@plt>
  4123b9:	48 83 c4 40          	add    $0x40,%rsp
  4123bd:	5d                   	pop    %rbp
  4123be:	c3                   	retq   
--
  412462:	48 01 c8             	add    %rcx,%rax
  412465:	48 89 45 c0          	mov    %rax,-0x40(%rbp)
  412469:	48 8b 45 c0          	mov    -0x40(%rbp),%rax
  41246d:	48 83 c4 40          	add    $0x40,%rsp
  412471:	5d                   	pop    %rbp
  412472:	c3                   	retq   
--
  412480:	e8 eb 51 ff ff       	callq  407670 <_ZdlPv@plt>
  412485:	48 8b 7d e8          	mov    -0x18(%rbp),%rdi
  412489:	e8 d2 57 ff ff       	callq  407c60 <_Unwind_Resume@plt>
  41248e:	66 90                	xchg   %ax,%ax

0000000000412490 <_ZNK5boost16exception_detail10clone_implINS0_19error_info_injectorINS_15program_options20invalid_option_valueEEEE7rethrowEv>:
--
  4124af:	48 89 c1             	mov    %rax,%rcx
  4124b2:	48 89 c7             	mov    %rax,%rdi
  4124b5:	48 8b 75 e0          	mov    -0x20(%rbp),%rsi
  4124b9:	48 89 4d d8          	mov    %rcx,-0x28(%rbp)
  4124bd:	e8 7e 94 00 00       	callq  41b940 <_ZN5boost16exception_detail10clone_implINS0_19error_info_injectorINS_15program_options20invalid_option_valueEEEEC1ERKS6_142>
  4124c2:	e9 00 00 00 00       	jmpq   4124c7 <_ZNK5boost16exception_detail10clone_implINS0_19error_info_injectorINS_15program_options20invalid_option_valueEEEE7rethrowEv+0x37>
--
  41250c:	48 8b 7d f8          	mov    -0x8(%rbp),%rdi
  412510:	48 81 c7 70 ff ff ff 	add    $0xffffffffffffff70,%rdi
  412517:	e8 84 c0 00 00       	callq  41e5a0 <_ZN5boost16exception_detail10clone_implINS0_19error_info_injectorINS_15program_options20invalid_option_valueEEEED0Ev296>
  41251c:	48 83 c4 10          	add    $0x10,%rsp
  412520:	5d                   	pop    %rbp
  412521:	c3                   	retq   
--
  412546:	48 03 47 e8          	add    -0x18(%rdi),%rax
  41254a:	48 89 c7             	mov    %rax,%rdi
  41254d:	e8 5e 1b 01 00       	callq  4240b0 <_ZNK5boost16exception_detail10clone_implINS0_19error_info_injectorINS_15program_options20invalid_option_valueEEEE5cloneEv566>
  412552:	48 83 c4 10          	add    $0x10,%rsp
  412556:	5d                   	pop    %rbp
  412557:	c3                   	retq   
  412558:	0f 1f 84 00 00 00 00 	nopl   0x0(%rax,%rax,1)
  41255f:	00 

0000000000412560 <_ZTv0_n32_NK5boost16exception_detail10clone_implINS0_19error_info_injectorINS_15program_options20invalid_option_valueEEEE7rethrowEv>:
--
  41256c:	48 8b 7d f8          	mov    -0x8(%rbp),%rdi
  412570:	48 89 f8             	mov    %rdi,%rax
  412573:	48 8b 3f             	mov    (%rdi),%rdi
  412576:	48 03 47 e0          	add    -0x20(%rdi),%rax
  41257a:	48 89 c7             	mov    %rax,%rdi
  41257d:	e8 8e 7c 00 00       	callq  41a210 <_ZNK5boost16exception_detail10clone_implINS0_19error_info_injectorINS_15program_options20invalid_option_valueEEEE7rethrowEv73>
  412582:	48 83 c4 10          	add    $0x10,%rsp
  412586:	5d                   	pop    %rbp
  412587:	c3                   	retq   
--
  4125a6:	48 03 47 d8          	add    -0x28(%rdi),%rax
  4125aa:	48 89 c7             	mov    %rax,%rdi
  4125ad:	e8 ee bf 00 00       	callq  41e5a0 <_ZN5boost16exception_detail10clone_implINS0_19error_info_injectorINS_15program_options20invalid_option_valueEEEED0Ev296>
  4125b2:	48 83 c4 10          	add    $0x10,%rsp
  4125b6:	5d                   	pop    %rbp
  4125b7:	c3                   	retq   
--
  41262a:	48 89 06             	mov    %rax,(%rsi)
  41262d:	48 89 96 90 00 00 00 	mov    %rdx,0x90(%rsi)
  412634:	48 89 8e b8 00 00 00 	mov    %rcx,0xb8(%rsi)
  41263b:	48 83 c4 30          	add    $0x30,%rsp
  41263f:	5d                   	pop    %rbp
  412640:	c3                   	retq   
--
  4126cf:	48 8b 55 d8          	mov    -0x28(%rbp),%rdx
  4126d3:	48 89 02             	mov    %rax,(%rdx)
  4126d6:	48 89 8a 90 00 00 00 	mov    %rcx,0x90(%rdx)
  4126dd:	48 83 c4 30          	add    $0x30,%rsp
  4126e1:	5d                   	pop    %rbp
  4126e2:	c3                   	retq   
--
  41273e:	48 05 10 00 00 00    	add    $0x10,%rax
  412744:	48 8b 75 e8          	mov    -0x18(%rbp),%rsi
  412748:	48 89 06             	mov    %rax,(%rsi)
  41274b:	48 83 c4 20          	add    $0x20,%rsp
  41274f:	5d                   	pop    %rbp
  412750:	c3                   	retq   
--
  412774:	e8 97 ca 00 00       	callq  41f210 <_ZN5boost16exception_detail19error_info_injectorINS_15program_options20invalid_option_valueEED2Ev329>
  412779:	48 8b 7d f0          	mov    -0x10(%rbp),%rdi
  41277d:	e8 ee 4e ff ff       	callq  407670 <_ZdlPv@plt>
  412782:	48 83 c4 10          	add    $0x10,%rsp
  412786:	5d                   	pop    %rbp
  412787:	c3                   	retq   
--
  41279c:	48 8b 7d f8          	mov    -0x8(%rbp),%rdi
  4127a0:	48 81 c7 70 ff ff ff 	add    $0xffffffffffffff70,%rdi
  4127a7:	e8 44 20 01 00       	callq  4247f0 <_ZN5boost16exception_detail19error_info_injectorINS_15program_options20invalid_option_valueEED0Ev592>
  4127ac:	48 83 c4 10          	add    $0x10,%rsp
  4127b0:	5d                   	pop    %rbp
  4127b1:	c3                   	retq   
--
  4127fb:	48 8b 45 f0          	mov    -0x10(%rbp),%rax
  4127ff:	8b 88 88 00 00 00    	mov    0x88(%rax),%ecx
  412805:	89 8e 88 00 00 00    	mov    %ecx,0x88(%rsi)
  41280b:	48 83 c4 20          	add    $0x20,%rsp
  41280f:	5d                   	pop    %rbp
  412810:	c3                   	retq   
--
  412834:	e8 77 08 01 00       	callq  4230b0 <_ZN5boost15program_options20invalid_option_valueD2Ev510>
  412839:	48 8b 7d f0          	mov    -0x10(%rbp),%rdi
  41283d:	e8 2e 4e ff ff       	callq  407670 <_ZdlPv@plt>
  412842:	48 83 c4 10          	add    $0x10,%rsp
  412846:	5d                   	pop    %rbp
  412847:	c3                   	retq   
--
  41292d:	8b 48 10             	mov    0x10(%rax),%ecx
  412930:	48 8b 45 d8          	mov    -0x28(%rbp),%rax
  412934:	89 48 10             	mov    %ecx,0x10(%rax)
  412937:	48 83 c4 40          	add    $0x40,%rsp
  41293b:	5d                   	pop    %rbp
  41293c:	c3                   	retq   
--
  4129a8:	48 89 7d f8          	mov    %rdi,-0x8(%rbp)
  4129ac:	48 8b 7d f8          	mov    -0x8(%rbp),%rdi
  4129b0:	e8 9b ce 00 00       	callq  41f850 <_ZN5boost15program_options22error_with_option_nameD2Ev347>
  4129b5:	48 83 c4 10          	add    $0x10,%rsp
  4129b9:	5d                   	pop    %rbp
  4129ba:	c3                   	retq   
--
  4129d4:	e8 07 71 00 00       	callq  419ae0 <_ZN5boost15program_options16validation_errorD2Ev48>
  4129d9:	48 8b 7d f0          	mov    -0x10(%rbp),%rdi
  4129dd:	e8 8e 4c ff ff       	callq  407670 <_ZdlPv@plt>
  4129e2:	48 83 c4 10          	add    $0x10,%rsp
  4129e6:	5d                   	pop    %rbp
  4129e7:	c3                   	retq   
--
  412a1e:	48 05 10 00 00 00    	add    $0x10,%rax
  412a24:	48 8b 75 e8          	mov    -0x18(%rbp),%rsi
  412a28:	48 89 06             	mov    %rax,(%rsi)
  412a2b:	48 83 c4 20          	add    $0x20,%rsp
  412a2f:	5d                   	pop    %rbp
  412a30:	c3                   	retq   
--
  412a50:	48 8b 7d f8          	mov    -0x8(%rbp),%rdi
  412a54:	48 8b 75 f0          	mov    -0x10(%rbp),%rsi
  412a58:	e8 03 21 01 00       	callq  424b60 <_ZNSt8_Rb_treeISsSt4pairIKSsSsESt10_Select1stIS2_ESt4lessISsESaIS2_EEC2ERKS8_602>
  412a5d:	48 83 c4 10          	add    $0x10,%rsp
  412a61:	5d                   	pop    %rbp
  412a62:	c3                   	retq   
--
  412a80:	48 8b 7d f8          	mov    -0x8(%rbp),%rdi
  412a84:	48 8b 75 f0          	mov    -0x10(%rbp),%rsi
  412a88:	e8 73 c8 00 00       	callq  41f300 <_ZNSt8_Rb_treeISsSt4pairIKSsS0_ISsSsEESt10_Select1stIS3_ESt4lessISsESaIS3_EEC2ERKS9_332>
  412a8d:	48 83 c4 10          	add    $0x10,%rsp
  412a91:	5d                   	pop    %rbp
  412a92:	c3                   	retq   
--
  412c1b:	48 8b 7d d8          	mov    -0x28(%rbp),%rdi
  412c1f:	e8 4c 6a 00 00       	callq  419670 <_ZNSt8_Rb_treeISsSt4pairIKSsS0_ISsSsEESt10_Select1stIS3_ESt4lessISsESaIS3_EE13_Rb_tree_implIS7_Lb1EED2Ev26>
  412c24:	e9 09 00 00 00       	jmpq   412c32 <_ZNSt8_Rb_treeISsSt4pairIKSsS0_ISsSsEESt10_Select1stIS3_ESt4lessISsESaIS3_EEC2ERKS9_+0x192>
  412c29:	48 81 c4 a0 00 00 00 	add    $0xa0,%rsp
  412c30:	5d                   	pop    %rbp
  412c31:	c3                   	retq   
--
  412c41:	48 89 e5             	mov    %rsp,%rbp
  412c44:	48 89 7d f8          	mov    %rdi,-0x8(%rbp)
  412c48:	48 8b 7d f8          	mov    -0x8(%rbp),%rdi
  412c4c:	48 89 f8             	mov    %rdi,%rax
  412c4f:	5d                   	pop    %rbp
  412c50:	c3                   	retq   
--
  412c9e:	48 89 d7             	mov    %rdx,%rdi
  412ca1:	e8 2a 03 01 00       	callq  422fd0 <_ZNSt8_Rb_treeISsSt4pairIKSsS0_ISsSsEESt10_Select1stIS3_ESt4lessISsESaIS3_EE13_Rb_tree_implIS7_Lb1EE13_M_initializeEv505>
  412ca6:	e9 00 00 00 00       	jmpq   412cab <_ZNSt8_Rb_treeISsSt4pairIKSsS0_ISsSsEESt10_Select1stIS3_ESt4lessISsESaIS3_EE13_Rb_tree_implIS7_Lb1EEC2ERKS7_RKSaISt13_Rb_tree_nodeIS3_EE+0x4b>
  412cab:	48 83 c4 30          	add    $0x30,%rsp
  412caf:	5d                   	pop    %rbp
  412cb0:	c3                   	retq   
--
  412cd1:	48 89 e5             	mov    %rsp,%rbp
  412cd4:	48 89 7d f8          	mov    %rdi,-0x8(%rbp)
  412cd8:	48 8b 7d f8          	mov    -0x8(%rbp),%rdi
  412cdc:	48 8b 47 10          	mov    0x10(%rdi),%rax
  412ce0:	5d                   	pop    %rbp
  412ce1:	c3                   	retq   
--
  412d8c:	48 8b 75 e0          	mov    -0x20(%rbp),%rsi
  412d90:	48 8b 7d c0          	mov    -0x40(%rbp),%rdi
  412d94:	48 89 45 a8          	mov    %rax,-0x58(%rbp)
  412d98:	e8 23 a1 00 00       	callq  41cec0 <_ZNSt8_Rb_treeISsSt4pairIKSsS0_ISsSsEESt10_Select1stIS3_ESt4lessISsESaIS3_EE8_M_eraseEPSt13_Rb_tree_nodeIS3_E213>
  412d9d:	e9 00 00 00 00       	jmpq   412da2 <_ZNSt8_Rb_treeISsSt4pairIKSsS0_ISsSsEESt10_Select1stIS3_ESt4lessISsESaIS3_EE7_M_copyEPKSt13_Rb_tree_nodeIS3_EPSB_+0xb2>
  412da2:	e8 29 49 ff ff       	callq  4076d0 <__cxa_rethrow@plt>
--
  412e96:	e9 00 00 00 00       	jmpq   412e9b <_ZNSt8_Rb_treeISsSt4pairIKSsS0_ISsSsEESt10_Select1stIS3_ESt4lessISsESaIS3_EE7_M_copyEPKSt13_Rb_tree_nodeIS3_EPSB_+0x1ab>
  412e9b:	e9 0d 00 00 00       	jmpq   412ead <_ZNSt8_Rb_treeISsSt4pairIKSsS0_ISsSsEESt10_Select1stIS3_ESt4lessISsESaIS3_EE7_M_copyEPKSt13_Rb_tree_nodeIS3_EPSB_+0x1bd>
  412ea0:	48 8b 45 e0          	mov    -0x20(%rbp),%rax
  412ea4:	48 81 c4 90 00 00 00 	add    $0x90,%rsp
  412eab:	5d                   	pop    %rbp
  412eac:	c3                   	retq   
--
  412ed4:	48 89 7d f8          	mov    %rdi,-0x8(%rbp)
  412ed8:	48 8b 7d f8          	mov    -0x8(%rbp),%rdi
  412edc:	48 8b 7f 10          	mov    0x10(%rdi),%rdi
  412ee0:	48 89 f8             	mov    %rdi,%rax
  412ee3:	5d                   	pop    %rbp
  412ee4:	c3                   	retq   
--
  412ef4:	48 89 7d f8          	mov    %rdi,-0x8(%rbp)
  412ef8:	48 8b 7d f8          	mov    -0x8(%rbp),%rdi
  412efc:	48 81 c7 08 00 00 00 	add    $0x8,%rdi
  412f03:	48 89 f8             	mov    %rdi,%rax
  412f06:	5d                   	pop    %rbp
  412f07:	c3                   	retq   
--
  412f18:	48 8b 7d f8          	mov    -0x8(%rbp),%rdi
  412f1c:	48 81 c7 08 00 00 00 	add    $0x8,%rdi
  412f23:	48 81 c7 08 00 00 00 	add    $0x8,%rdi
  412f2a:	48 89 f8             	mov    %rdi,%rax
  412f2d:	5d                   	pop    %rbp
  412f2e:	c3                   	retq   
--
  412f38:	48 89 7d f8          	mov    %rdi,-0x8(%rbp)
  412f3c:	48 8b 7d f8          	mov    -0x8(%rbp),%rdi
  412f40:	e8 2b 39 01 00       	callq  426870 <_ZNSt18_Rb_tree_node_base10_S_minimumEPS_689>
  412f45:	48 83 c4 10          	add    $0x10,%rsp
  412f49:	5d                   	pop    %rbp
  412f4a:	c3                   	retq   
--
  412f58:	48 8b 7d f8          	mov    -0x8(%rbp),%rdi
  412f5c:	48 81 c7 08 00 00 00 	add    $0x8,%rdi
  412f63:	48 81 c7 10 00 00 00 	add    $0x10,%rdi
  412f6a:	48 89 f8             	mov    %rdi,%rax
  412f6d:	5d                   	pop    %rbp
  412f6e:	c3                   	retq   
--
  412f78:	48 89 7d f8          	mov    %rdi,-0x8(%rbp)
  412f7c:	48 8b 7d f8          	mov    -0x8(%rbp),%rdi
  412f80:	e8 5b 65 00 00       	callq  4194e0 <_ZNSt18_Rb_tree_node_base10_S_maximumEPS_18>
  412f85:	48 83 c4 10          	add    $0x10,%rsp
  412f89:	5d                   	pop    %rbp
  412f8a:	c3                   	retq   
--
  412f98:	48 8b 7d f8          	mov    -0x8(%rbp),%rdi
  412f9c:	48 81 c7 08 00 00 00 	add    $0x8,%rdi
  412fa3:	48 81 c7 18 00 00 00 	add    $0x18,%rdi
  412faa:	48 89 f8             	mov    %rdi,%rax
  412fad:	5d                   	pop    %rbp
  412fae:	c3                   	retq   
--
  412fce:	48 8b 40 18          	mov    0x18(%rax),%rax
  412fd2:	48 89 45 f8          	mov    %rax,-0x8(%rbp)
  412fd6:	e9 dd ff ff ff       	jmpq   412fb8 <_ZNSt18_Rb_tree_node_base10_S_maximumEPS_+0x8>
  412fdb:	48 8b 45 f8          	mov    -0x8(%rbp),%rax
  412fdf:	5d                   	pop    %rbp
  412fe0:	c3                   	retq   
--
  41300e:	48 8b 40 10          	mov    0x10(%rax),%rax
  413012:	48 89 45 f8          	mov    %rax,-0x8(%rbp)
  413016:	e9 dd ff ff ff       	jmpq   412ff8 <_ZNSt18_Rb_tree_node_base10_S_minimumEPS_+0x8>
  41301b:	48 8b 45 f8          	mov    -0x8(%rbp),%rax
  41301f:	5d                   	pop    %rbp
  413020:	c3                   	retq   
--
  413074:	48 c7 40 18 00 00 00 	movq   $0x0,0x18(%rax)
  41307b:	00 
  41307c:	48 8b 45 e8          	mov    -0x18(%rbp),%rax
  413080:	48 83 c4 20          	add    $0x20,%rsp
  413084:	5d                   	pop    %rbp
  413085:	c3                   	retq   
--
  413094:	48 89 7d f8          	mov    %rdi,-0x8(%rbp)
  413098:	48 8b 7d f8          	mov    -0x8(%rbp),%rdi
  41309c:	48 8b 7f 18          	mov    0x18(%rdi),%rdi
  4130a0:	48 89 f8             	mov    %rdi,%rax
  4130a3:	5d                   	pop    %rbp
  4130a4:	c3                   	retq   
--
  4130b4:	48 89 7d f8          	mov    %rdi,-0x8(%rbp)
  4130b8:	48 8b 7d f8          	mov    -0x8(%rbp),%rdi
  4130bc:	48 8b 7f 10          	mov    0x10(%rdi),%rdi
  4130c0:	48 89 f8             	mov    %rdi,%rax
  4130c3:	5d                   	pop    %rbp
  4130c4:	c3                   	retq   
--
  41313e:	48 8b 75 e8          	mov    -0x18(%rbp),%rsi
  413142:	48 8b 7d d0          	mov    -0x30(%rbp),%rdi
  413146:	48 89 45 b8          	mov    %rax,-0x48(%rbp)
  41314a:	e8 31 6c 00 00       	callq  419d80 <_ZNSt8_Rb_treeISsSt4pairIKSsS0_ISsSsEESt10_Select1stIS3_ESt4lessISsESaIS3_EE11_M_put_nodeEPSt13_Rb_tree_nodeIS3_E61>
  41314f:	e9 00 00 00 00       	jmpq   413154 <_ZNSt8_Rb_treeISsSt4pairIKSsS0_ISsSsEESt10_Select1stIS3_ESt4lessISsESaIS3_EE14_M_create_nodeIJRKS3_EEEPSt13_Rb_tree_nodeIS3_EDpOT_+0x84>
  413154:	e8 77 45 ff ff       	callq  4076d0 <__cxa_rethrow@plt>
--
  41316c:	e9 00 00 00 00       	jmpq   413171 <_ZNSt8_Rb_treeISsSt4pairIKSsS0_ISsSsEESt10_Select1stIS3_ESt4lessISsESaIS3_EE14_M_create_nodeIJRKS3_EEEPSt13_Rb_tree_nodeIS3_EDpOT_+0xa1>
  413171:	e9 0a 00 00 00       	jmpq   413180 <_ZNSt8_Rb_treeISsSt4pairIKSsS0_ISsSsEESt10_Select1stIS3_ESt4lessISsESaIS3_EE14_M_create_nodeIJRKS3_EEEPSt13_Rb_tree_nodeIS3_EDpOT_+0xb0>
  413176:	48 8b 45 e8          	mov    -0x18(%rbp),%rax
  41317a:	48 83 c4 50          	add    $0x50,%rsp
  41317e:	5d                   	pop    %rbp
  41317f:	c3                   	retq   
--
  4131b3:	48 89 7d f8          	mov    %rdi,-0x8(%rbp)
  4131b7:	48 8b 7d f8          	mov    -0x8(%rbp),%rdi
  4131bb:	e8 d0 05 01 00       	callq  423790 <_ZN9__gnu_cxx13new_allocatorISt13_Rb_tree_nodeISt4pairIKSsS2_ISsSsEEEE8allocateEmPKv537>
  4131c0:	48 83 c4 10          	add    $0x10,%rsp
  4131c4:	5d                   	pop    %rbp
  4131c5:	c3                   	retq   
--
  413204:	48 8b 75 d8          	mov    -0x28(%rbp),%rsi
  413208:	48 89 c2             	mov    %rax,%rdx
  41320b:	e8 90 82 00 00       	callq  41b4a0 <_ZNSt16allocator_traitsISaISt13_Rb_tree_nodeISt4pairIKSsS1_ISsSsEEEEE12_S_constructIS5_JRKS4_EEENSt9enable_ifIXsr18__construct_helperIT_DpT0_EE5valueEvE4typeERS6_PSC_DpOSD_125>
  413210:	48 83 c4 30          	add    $0x30,%rsp
  413214:	5d                   	pop    %rbp
  413215:	c3                   	retq   
--
  413220:	55                   	push   %rbp
  413221:	48 89 e5             	mov    %rsp,%rbp
  413224:	48 89 7d f8          	mov    %rdi,-0x8(%rbp)
  413228:	48 8b 45 f8          	mov    -0x8(%rbp),%rax
  41322c:	5d                   	pop    %rbp
  41322d:	c3                   	retq   
--
  413261:	48 8b 75 d8          	mov    -0x28(%rbp),%rsi
  413265:	48 89 c2             	mov    %rax,%rdx
  413268:	e8 73 cd 00 00       	callq  41ffe0 <_ZN9__gnu_cxx13new_allocatorISt13_Rb_tree_nodeISt4pairIKSsS2_ISsSsEEEE9constructIS6_JRKS5_EEEvPT_DpOT0_369>
  41326d:	48 83 c4 30          	add    $0x30,%rsp
  413271:	5d                   	pop    %rbp
  413272:	c3                   	retq   
--
  4132ba:	48 8b 7d d8          	mov    -0x28(%rbp),%rdi
  4132be:	48 89 c6             	mov    %rax,%rsi
  4132c1:	e8 6a 09 01 00       	callq  423c30 <_ZNSt13_Rb_tree_nodeISt4pairIKSsS0_ISsSsEEEC2IJRKS3_EEEDpOT_552>
  4132c6:	48 83 c4 30          	add    $0x30,%rsp
  4132ca:	5d                   	pop    %rbp
  4132cb:	c3                   	retq   
--
  413313:	48 8b 7d e0          	mov    -0x20(%rbp),%rdi
  413317:	48 89 c6             	mov    %rax,%rsi
  41331a:	e8 f1 ab 00 00       	callq  41df10 <_ZNSt4pairIKSsS_ISsSsEEC2ERKS2_269>
  41331f:	48 83 c4 20          	add    $0x20,%rsp
  413323:	5d                   	pop    %rbp
  413324:	c3                   	retq   
--
  413364:	48 8b 75 d0          	mov    -0x30(%rbp),%rsi
  413368:	e8 63 70 00 00       	callq  41a3d0 <_ZNSt4pairISsSsEC2ERKS0_78>
  41336d:	e9 00 00 00 00       	jmpq   413372 <_ZNSt4pairIKSsS_ISsSsEEC2ERKS2_+0x42>
  413372:	48 83 c4 30          	add    $0x30,%rsp
  413376:	5d                   	pop    %rbp
  413377:	c3                   	retq   
--
  4133d4:	48 8b 75 d0          	mov    -0x30(%rbp),%rsi
  4133d8:	e8 b3 43 ff ff       	callq  407790 <_ZNSsC1ERKSs@plt>
  4133dd:	e9 00 00 00 00       	jmpq   4133e2 <_ZNSt4pairISsSsEC2ERKS0_+0x42>
  4133e2:	48 83 c4 30          	add    $0x30,%rsp
  4133e6:	5d                   	pop    %rbp
  4133e7:	c3                   	retq   
--
  413447:	48 69 7d f0 38 00 00 	imul   $0x38,-0x10(%rbp),%rdi
  41344e:	00 
  41344f:	e8 ec 47 ff ff       	callq  407c40 <_Znwm@plt>
  413454:	48 83 c4 20          	add    $0x20,%rsp
  413458:	5d                   	pop    %rbp
  413459:	c3                   	retq   
--
  413461:	48 89 e5             	mov    %rsp,%rbp
  413464:	48 b8 92 24 49 92 24 	movabs $0x492492492492492,%rax
  41346b:	49 92 04 
  41346e:	48 89 7d f8          	mov    %rdi,-0x8(%rbp)
  413472:	5d                   	pop    %rbp
  413473:	c3                   	retq   
--
  41349c:	48 89 f7             	mov    %rsi,%rdi
  41349f:	48 8b 75 e8          	mov    -0x18(%rbp),%rsi
  4134a3:	e8 38 8c 00 00       	callq  41c0e0 <_ZN9__gnu_cxx13new_allocatorISt13_Rb_tree_nodeISt4pairIKSsS2_ISsSsEEEEC2ERKS7_171>
  4134a8:	48 83 c4 20          	add    $0x20,%rsp
  4134ac:	5d                   	pop    %rbp
  4134ad:	c3                   	retq   
--
  4134d4:	48 89 47 18          	mov    %rax,0x18(%rdi)
  4134d8:	48 89 f8             	mov    %rdi,%rax
  4134db:	48 05 08 00 00 00    	add    $0x8,%rax
  4134e1:	48 89 47 20          	mov    %rax,0x20(%rdi)
  4134e5:	5d                   	pop    %rbp
  4134e6:	c3                   	retq   
--
  4134f0:	55                   	push   %rbp
  4134f1:	48 89 e5             	mov    %rsp,%rbp
  4134f4:	48 89 7d f8          	mov    %rdi,-0x8(%rbp)
  4134f8:	48 89 75 f0          	mov    %rsi,-0x10(%rbp)
  4134fc:	5d                   	pop    %rbp
  4134fd:	c3                   	retq   
--
  41367b:	48 8b 7d d8          	mov    -0x28(%rbp),%rdi
  41367f:	e8 8c 59 00 00       	callq  419010 <_ZNSt8_Rb_treeISsSt4pairIKSsSsESt10_Select1stIS2_ESt4lessISsESaIS2_EE13_Rb_tree_implIS6_Lb1EED2Ev1>
  413684:	e9 09 00 00 00       	jmpq   413692 <_ZNSt8_Rb_treeISsSt4pairIKSsSsESt10_Select1stIS2_ESt4lessISsESaIS2_EEC2ERKS8_+0x192>
  413689:	48 81 c4 a0 00 00 00 	add    $0xa0,%rsp
  413690:	5d                   	pop    %rbp
  413691:	c3                   	retq   
--
  4136a1:	48 89 e5             	mov    %rsp,%rbp
  4136a4:	48 89 7d f8          	mov    %rdi,-0x8(%rbp)
  4136a8:	48 8b 7d f8          	mov    -0x8(%rbp),%rdi
  4136ac:	48 89 f8             	mov    %rdi,%rax
  4136af:	5d                   	pop    %rbp
  4136b0:	c3                   	retq   
--
  4136fe:	48 89 d7             	mov    %rdx,%rdi
  413701:	e8 da c9 00 00       	callq  4200e0 <_ZNSt8_Rb_treeISsSt4pairIKSsSsESt10_Select1stIS2_ESt4lessISsESaIS2_EE13_Rb_tree_implIS6_Lb1EE13_M_initializeEv374>
  413706:	e9 00 00 00 00       	jmpq   41370b <_ZNSt8_Rb_treeISsSt4pairIKSsSsESt10_Select1stIS2_ESt4lessISsESaIS2_EE13_Rb_tree_implIS6_Lb1EEC2ERKS6_RKSaISt13_Rb_tree_nodeIS2_EE+0x4b>
  41370b:	48 83 c4 30          	add    $0x30,%rsp
  41370f:	5d                   	pop    %rbp
  413710:	c3                   	retq   
--
  413731:	48 89 e5             	mov    %rsp,%rbp
  413734:	48 89 7d f8          	mov    %rdi,-0x8(%rbp)
  413738:	48 8b 7d f8          	mov    -0x8(%rbp),%rdi
  41373c:	48 8b 47 10          	mov    0x10(%rdi),%rax
  413740:	5d                   	pop    %rbp
  413741:	c3                   	retq   
--
  4137ec:	48 8b 75 e0          	mov    -0x20(%rbp),%rsi
  4137f0:	48 8b 7d c0          	mov    -0x40(%rbp),%rdi
  4137f4:	48 89 45 a8          	mov    %rax,-0x58(%rbp)
  4137f8:	e8 93 fa 00 00       	callq  423290 <_ZNSt8_Rb_treeISsSt4pairIKSsSsESt10_Select1stIS2_ESt4lessISsESaIS2_EE8_M_eraseEPSt13_Rb_tree_nodeIS2_E519>
  4137fd:	e9 00 00 00 00       	jmpq   413802 <_ZNSt8_Rb_treeISsSt4pairIKSsSsESt10_Select1stIS2_ESt4lessISsESaIS2_EE7_M_copyEPKSt13_Rb_tree_nodeIS2_EPSA_+0xb2>
  413802:	e8 c9 3e ff ff       	callq  4076d0 <__cxa_rethrow@plt>
--
  4138f6:	e9 00 00 00 00       	jmpq   4138fb <_ZNSt8_Rb_treeISsSt4pairIKSsSsESt10_Select1stIS2_ESt4lessISsESaIS2_EE7_M_copyEPKSt13_Rb_tree_nodeIS2_EPSA_+0x1ab>
  4138fb:	e9 0d 00 00 00       	jmpq   41390d <_ZNSt8_Rb_treeISsSt4pairIKSsSsESt10_Select1stIS2_ESt4lessISsESaIS2_EE7_M_copyEPKSt13_Rb_tree_nodeIS2_EPSA_+0x1bd>
  413900:	48 8b 45 e0          	mov    -0x20(%rbp),%rax
  413904:	48 81 c4 90 00 00 00 	add    $0x90,%rsp
  41390b:	5d                   	pop    %rbp
  41390c:	c3                   	retq   
--
  413934:	48 89 7d f8          	mov    %rdi,-0x8(%rbp)
  413938:	48 8b 7d f8          	mov    -0x8(%rbp),%rdi
  41393c:	48 8b 7f 10          	mov    0x10(%rdi),%rdi
  413940:	48 89 f8             	mov    %rdi,%rax
  413943:	5d                   	pop    %rbp
  413944:	c3                   	retq   
--
  413954:	48 89 7d f8          	mov    %rdi,-0x8(%rbp)
  413958:	48 8b 7d f8          	mov    -0x8(%rbp),%rdi
  41395c:	48 81 c7 08 00 00 00 	add    $0x8,%rdi
  413963:	48 89 f8             	mov    %rdi,%rax
  413966:	5d                   	pop    %rbp
  413967:	c3                   	retq   
--
  413978:	48 8b 7d f8          	mov    -0x8(%rbp),%rdi
  41397c:	48 81 c7 08 00 00 00 	add    $0x8,%rdi
  413983:	48 81 c7 08 00 00 00 	add    $0x8,%rdi
  41398a:	48 89 f8             	mov    %rdi,%rax
  41398d:	5d                   	pop    %rbp
  41398e:	c3                   	retq   
--
  413998:	48 89 7d f8          	mov    %rdi,-0x8(%rbp)
  41399c:	48 8b 7d f8          	mov    -0x8(%rbp),%rdi
  4139a0:	e8 cb 2e 01 00       	callq  426870 <_ZNSt18_Rb_tree_node_base10_S_minimumEPS_689>
  4139a5:	48 83 c4 10          	add    $0x10,%rsp
  4139a9:	5d                   	pop    %rbp
  4139aa:	c3                   	retq   
--
  4139b8:	48 8b 7d f8          	mov    -0x8(%rbp),%rdi
  4139bc:	48 81 c7 08 00 00 00 	add    $0x8,%rdi
  4139c3:	48 81 c7 10 00 00 00 	add    $0x10,%rdi
  4139ca:	48 89 f8             	mov    %rdi,%rax
  4139cd:	5d                   	pop    %rbp
  4139ce:	c3                   	retq   
--
  4139d8:	48 89 7d f8          	mov    %rdi,-0x8(%rbp)
  4139dc:	48 8b 7d f8          	mov    -0x8(%rbp),%rdi
  4139e0:	e8 fb 5a 00 00       	callq  4194e0 <_ZNSt18_Rb_tree_node_base10_S_maximumEPS_18>
  4139e5:	48 83 c4 10          	add    $0x10,%rsp
  4139e9:	5d                   	pop    %rbp
  4139ea:	c3                   	retq   
--
  4139f8:	48 8b 7d f8          	mov    -0x8(%rbp),%rdi
  4139fc:	48 81 c7 08 00 00 00 	add    $0x8,%rdi
  413a03:	48 81 c7 18 00 00 00 	add    $0x18,%rdi
  413a0a:	48 89 f8             	mov    %rdi,%rax
  413a0d:	5d                   	pop    %rbp
  413a0e:	c3                   	retq   
--
  413a54:	48 c7 40 18 00 00 00 	movq   $0x0,0x18(%rax)
  413a5b:	00 
  413a5c:	48 8b 45 e8          	mov    -0x18(%rbp),%rax
  413a60:	48 83 c4 20          	add    $0x20,%rsp
  413a64:	5d                   	pop    %rbp
  413a65:	c3                   	retq   
--
  413a74:	48 89 7d f8          	mov    %rdi,-0x8(%rbp)
  413a78:	48 8b 7d f8          	mov    -0x8(%rbp),%rdi
  413a7c:	48 8b 7f 18          	mov    0x18(%rdi),%rdi
  413a80:	48 89 f8             	mov    %rdi,%rax
  413a83:	5d                   	pop    %rbp
  413a84:	c3                   	retq   
--
  413a94:	48 89 7d f8          	mov    %rdi,-0x8(%rbp)
  413a98:	48 8b 7d f8          	mov    -0x8(%rbp),%rdi
  413a9c:	48 8b 7f 10          	mov    0x10(%rdi),%rdi
  413aa0:	48 89 f8             	mov    %rdi,%rax
  413aa3:	5d                   	pop    %rbp
  413aa4:	c3                   	retq   
--
  413b1e:	48 8b 75 e8          	mov    -0x18(%rbp),%rsi
  413b22:	48 8b 7d d0          	mov    -0x30(%rbp),%rdi
  413b26:	48 89 45 b8          	mov    %rax,-0x48(%rbp)
  413b2a:	e8 61 9c 00 00       	callq  41d790 <_ZNSt8_Rb_treeISsSt4pairIKSsSsESt10_Select1stIS2_ESt4lessISsESaIS2_EE11_M_put_nodeEPSt13_Rb_tree_nodeIS2_E242>
  413b2f:	e9 00 00 00 00       	jmpq   413b34 <_ZNSt8_Rb_treeISsSt4pairIKSsSsESt10_Select1stIS2_ESt4lessISsESaIS2_EE14_M_create_nodeIJRKS2_EEEPSt13_Rb_tree_nodeIS2_EDpOT_+0x84>
  413b34:	e8 97 3b ff ff       	callq  4076d0 <__cxa_rethrow@plt>
--
  413b4c:	e9 00 00 00 00       	jmpq   413b51 <_ZNSt8_Rb_treeISsSt4pairIKSsSsESt10_Select1stIS2_ESt4lessISsESaIS2_EE14_M_create_nodeIJRKS2_EEEPSt13_Rb_tree_nodeIS2_EDpOT_+0xa1>
  413b51:	e9 0a 00 00 00       	jmpq   413b60 <_ZNSt8_Rb_treeISsSt4pairIKSsSsESt10_Select1stIS2_ESt4lessISsESaIS2_EE14_M_create_nodeIJRKS2_EEEPSt13_Rb_tree_nodeIS2_EDpOT_+0xb0>
  413b56:	48 8b 45 e8          	mov    -0x18(%rbp),%rax
  413b5a:	48 83 c4 50          	add    $0x50,%rsp
  413b5e:	5d                   	pop    %rbp
  413b5f:	c3                   	retq   
--
  413b93:	48 89 7d f8          	mov    %rdi,-0x8(%rbp)
  413b97:	48 8b 7d f8          	mov    -0x8(%rbp),%rdi
  413b9b:	e8 50 78 00 00       	callq  41b3f0 <_ZN9__gnu_cxx13new_allocatorISt13_Rb_tree_nodeISt4pairIKSsSsEEE8allocateEmPKv122>
  413ba0:	48 83 c4 10          	add    $0x10,%rsp
  413ba4:	5d                   	pop    %rbp
  413ba5:	c3                   	retq   
--
  413be4:	48 8b 75 d8          	mov    -0x28(%rbp),%rsi
  413be8:	48 89 c2             	mov    %rax,%rdx
  413beb:	e8 30 97 00 00       	callq  41d320 <_ZNSt16allocator_traitsISaISt13_Rb_tree_nodeISt4pairIKSsSsEEEE12_S_constructIS4_JRKS3_EEENSt9enable_ifIXsr18__construct_helperIT_DpT0_EE5valueEvE4typeERS5_PSB_DpOSC_230>
  413bf0:	48 83 c4 30          	add    $0x30,%rsp
  413bf4:	5d                   	pop    %rbp
  413bf5:	c3                   	retq   
--
  413c00:	55                   	push   %rbp
  413c01:	48 89 e5             	mov    %rsp,%rbp
  413c04:	48 89 7d f8          	mov    %rdi,-0x8(%rbp)
  413c08:	48 8b 45 f8          	mov    -0x8(%rbp),%rax
  413c0c:	5d                   	pop    %rbp
  413c0d:	c3                   	retq   
--
  413c41:	48 8b 75 d8          	mov    -0x28(%rbp),%rsi
  413c45:	48 89 c2             	mov    %rax,%rdx
  413c48:	e8 d3 05 01 00       	callq  424220 <_ZN9__gnu_cxx13new_allocatorISt13_Rb_tree_nodeISt4pairIKSsSsEEE9constructIS5_JRKS4_EEEvPT_DpOT0_573>
  413c4d:	48 83 c4 30          	add    $0x30,%rsp
  413c51:	5d                   	pop    %rbp
  413c52:	c3                   	retq   
--
  413c9a:	48 8b 7d d8          	mov    -0x28(%rbp),%rdi
  413c9e:	48 89 c6             	mov    %rax,%rsi
  413ca1:	e8 5a 14 01 00       	callq  425100 <_ZNSt13_Rb_tree_nodeISt4pairIKSsSsEEC2IJRKS2_EEEDpOT_625>
  413ca6:	48 83 c4 30          	add    $0x30,%rsp
  413caa:	5d                   	pop    %rbp
  413cab:	c3                   	retq   
--
  413cf3:	48 8b 7d e0          	mov    -0x20(%rbp),%rdi
  413cf7:	48 89 c6             	mov    %rax,%rsi
  413cfa:	e8 d1 7b 00 00       	callq  41b8d0 <_ZNSt4pairIKSsSsEC2ERKS1_141>
  413cff:	48 83 c4 20          	add    $0x20,%rsp
  413d03:	5d                   	pop    %rbp
  413d04:	c3                   	retq   
--
  413d44:	48 8b 75 d0          	mov    -0x30(%rbp),%rsi
  413d48:	e8 43 3a ff ff       	callq  407790 <_ZNSsC1ERKSs@plt>
  413d4d:	e9 00 00 00 00       	jmpq   413d52 <_ZNSt4pairIKSsSsEC2ERKS1_+0x42>
  413d52:	48 83 c4 30          	add    $0x30,%rsp
  413d56:	5d                   	pop    %rbp
  413d57:	c3                   	retq   
--
  413db7:	48 69 7d f0 30 00 00 	imul   $0x30,-0x10(%rbp),%rdi
  413dbe:	00 
  413dbf:	e8 7c 3e ff ff       	callq  407c40 <_Znwm@plt>
  413dc4:	48 83 c4 20          	add    $0x20,%rsp
  413dc8:	5d                   	pop    %rbp
  413dc9:	c3                   	retq   
--
  413dd1:	48 89 e5             	mov    %rsp,%rbp
  413dd4:	48 b8 55 55 55 55 55 	movabs $0x555555555555555,%rax
  413ddb:	55 55 05 
  413dde:	48 89 7d f8          	mov    %rdi,-0x8(%rbp)
  413de2:	5d                   	pop    %rbp
  413de3:	c3                   	retq   
--
  413e0c:	48 89 f7             	mov    %rsi,%rdi
  413e0f:	48 8b 75 e8          	mov    -0x18(%rbp),%rsi
  413e13:	e8 18 bc 00 00       	callq  41fa30 <_ZN9__gnu_cxx13new_allocatorISt13_Rb_tree_nodeISt4pairIKSsSsEEEC2ERKS6_354>
  413e18:	48 83 c4 20          	add    $0x20,%rsp
  413e1c:	5d                   	pop    %rbp
  413e1d:	c3                   	retq   
--
  413e44:	48 89 47 18          	mov    %rax,0x18(%rdi)
  413e48:	48 89 f8             	mov    %rdi,%rax
  413e4b:	48 05 08 00 00 00    	add    $0x8,%rax
  413e51:	48 89 47 20          	mov    %rax,0x20(%rdi)
  413e55:	5d                   	pop    %rbp
  413e56:	c3                   	retq   
--
  413e60:	55                   	push   %rbp
  413e61:	48 89 e5             	mov    %rsp,%rbp
  413e64:	48 89 7d f8          	mov    %rdi,-0x8(%rbp)
  413e68:	48 89 75 f0          	mov    %rsi,-0x10(%rbp)
  413e6c:	5d                   	pop    %rbp
  413e6d:	c3                   	retq   
--
  413ea7:	48 83 c6 08          	add    $0x8,%rsi
  413eab:	e8 e0 38 ff ff       	callq  407790 <_ZNSsC1ERKSs@plt>
  413eb0:	e9 00 00 00 00       	jmpq   413eb5 <_ZNSt11logic_errorC2ERKS_+0x45>
  413eb5:	48 83 c4 30          	add    $0x30,%rsp
  413eb9:	5d                   	pop    %rbp
  413eba:	c3                   	retq   
--
  413ee8:	48 89 7d f8          	mov    %rdi,-0x8(%rbp)
  413eec:	48 8b 7d f8          	mov    -0x8(%rbp),%rdi
  413ef0:	e8 eb 3c ff ff       	callq  407be0 <_ZNSt11logic_errorD2Ev@plt>
  413ef5:	48 83 c4 10          	add    $0x10,%rsp
  413ef9:	5d                   	pop    %rbp
  413efa:	c3                   	retq   
--
  413f14:	e8 47 5a 00 00       	callq  419960 <_ZN5boost15program_options5errorD2Ev41>
  413f19:	48 8b 7d f0          	mov    -0x10(%rbp),%rdi
  413f1d:	e8 4e 37 ff ff       	callq  407670 <_ZdlPv@plt>
  413f22:	48 83 c4 10          	add    $0x10,%rsp
  413f26:	5d                   	pop    %rbp
  413f27:	c3                   	retq   
--
  413fde:	48 89 c6             	mov    %rax,%rsi
  413fe1:	e8 1a ab 00 00       	callq  41eb00 <_ZN5boost16exception_detail20copy_boost_exceptionEPNS_9exceptionEPKS1_315>
  413fe6:	e9 00 00 00 00       	jmpq   413feb <_ZN5boost16exception_detail10clone_implINS0_19error_info_injectorINS_15program_options20invalid_option_valueEEEEC1ERKS6_NS6_9clone_tagE+0xbb>
  413feb:	48 83 c4 50          	add    $0x50,%rsp
  413fef:	5d                   	pop    %rbp
  413ff0:	c3                   	retq   
--
  41405f:	48 89 c7             	mov    %rax,%rdi
  414062:	e8 29 3c ff ff       	callq  407c90 <_ZNSsaSERKSs@plt>
  414067:	48 89 45 e0          	mov    %rax,-0x20(%rbp)
  41406b:	48 83 c4 20          	add    $0x20,%rsp
  41406f:	5d                   	pop    %rbp
  414070:	c3                   	retq   
--
  41414e:	48 8d 7d e8          	lea    -0x18(%rbp),%rdi
  414152:	e8 79 f7 00 00       	callq  4238d0 <_ZNKSt17_Rb_tree_iteratorISt4pairIKSsSsEEdeEv540>
  414157:	48 05 08 00 00 00    	add    $0x8,%rax
  41415d:	48 83 c4 60          	add    $0x60,%rsp
  414161:	5d                   	pop    %rbp
  414162:	c3                   	retq   
--
  414188:	e8 53 80 00 00       	callq  41c1e0 <_ZNSt8_Rb_treeISsSt4pairIKSsSsESt10_Select1stIS2_ESt4lessISsESaIS2_EE11lower_boundERS1_174>
  41418d:	48 89 45 f8          	mov    %rax,-0x8(%rbp)
  414191:	48 8b 45 f8          	mov    -0x8(%rbp),%rax
  414195:	48 83 c4 20          	add    $0x20,%rsp
  414199:	5d                   	pop    %rbp
  41419a:	c3                   	retq   
--
  4141b7:	48 3b 37             	cmp    (%rdi),%rsi
  4141ba:	0f 94 c0             	sete   %al
  4141bd:	24 01                	and    $0x1,%al
  4141bf:	0f b6 c0             	movzbl %al,%eax
  4141c2:	5d                   	pop    %rbp
  4141c3:	c3                   	retq   
--
  4141e0:	e8 bb 58 00 00       	callq  419aa0 <_ZNSt8_Rb_treeISsSt4pairIKSsSsESt10_Select1stIS2_ESt4lessISsESaIS2_EE3endEv47>
  4141e5:	48 89 45 f8          	mov    %rax,-0x8(%rbp)
  4141e9:	48 8b 45 f8          	mov    -0x8(%rbp),%rax
  4141ed:	48 83 c4 10          	add    $0x10,%rsp
  4141f1:	5d                   	pop    %rbp
  4141f2:	c3                   	retq   
--
  414208:	48 89 7d f0          	mov    %rdi,-0x10(%rbp)
  41420c:	48 8b 7d f0          	mov    -0x10(%rbp),%rdi
  414210:	e8 0b 14 01 00       	callq  425620 <_ZNKSt8_Rb_treeISsSt4pairIKSsSsESt10_Select1stIS2_ESt4lessISsESaIS2_EE8key_compEv645>
  414215:	48 83 c4 20          	add    $0x20,%rsp
  414219:	5d                   	pop    %rbp
  41421a:	c3                   	retq   
--
  414228:	48 8b 7d f8          	mov    -0x8(%rbp),%rdi
  41422c:	48 8b 3f             	mov    (%rdi),%rdi
  41422f:	48 81 c7 20 00 00 00 	add    $0x20,%rdi
  414236:	48 89 f8             	mov    %rdi,%rax
  414239:	5d                   	pop    %rbp
  41423a:	c3                   	retq   
--
  414347:	48 8b 75 c8          	mov    -0x38(%rbp),%rsi
  41434b:	48 8b 7d 98          	mov    -0x68(%rbp),%rdi
  41434f:	48 89 85 60 ff ff ff 	mov    %rax,-0xa0(%rbp)
  414356:	e8 65 ff 00 00       	callq  4242c0 <_ZNSt8_Rb_treeISsSt4pairIKSsSsESt10_Select1stIS2_ESt4lessISsESaIS2_EE15_M_destroy_nodeEPSt13_Rb_tree_nodeIS2_E577>
  41435b:	e9 00 00 00 00       	jmpq   414360 <_ZNSt8_Rb_treeISsSt4pairIKSsSsESt10_Select1stIS2_ESt4lessISsESaIS2_EE22_M_emplace_hint_uniqueIJRKSt21piecewise_construct_tSt5tupleIJRS1_EESD_IJEEEEESt17_Rb_tree_iteratorIS2_ESt23_Rb_tree_const_iteratorIS2_EDpOT_+0x120>
  414360:	e8 6b 33 ff ff       	callq  4076d0 <__cxa_rethrow@plt>
--
  4143a1:	e9 00 00 00 00       	jmpq   4143a6 <_ZNSt8_Rb_treeISsSt4pairIKSsSsESt10_Select1stIS2_ESt4lessISsESaIS2_EE22_M_emplace_hint_uniqueIJRKSt21piecewise_construct_tSt5tupleIJRS1_EESD_IJEEEEESt17_Rb_tree_iteratorIS2_ESt23_Rb_tree_const_iteratorIS2_EDpOT_+0x166>
  4143a6:	e9 0d 00 00 00       	jmpq   4143b8 <_ZNSt8_Rb_treeISsSt4pairIKSsSsESt10_Select1stIS2_ESt4lessISsESaIS2_EE22_M_emplace_hint_uniqueIJRKSt21piecewise_construct_tSt5tupleIJRS1_EESD_IJEEEEESt17_Rb_tree_iteratorIS2_ESt23_Rb_tree_const_iteratorIS2_EDpOT_+0x178>
  4143ab:	48 8b 45 f8          	mov    -0x8(%rbp),%rax
  4143af:	48 81 c4 b0 00 00 00 	add    $0xb0,%rsp
  4143b6:	5d                   	pop    %rbp
  4143b7:	c3                   	retq   
--
  4143ec:	48 8b 75 f8          	mov    -0x8(%rbp),%rsi
  4143f0:	48 8b 7d f0          	mov    -0x10(%rbp),%rdi
  4143f4:	48 8b 3f             	mov    (%rdi),%rdi
  4143f7:	48 89 3e             	mov    %rdi,(%rsi)
  4143fa:	5d                   	pop    %rbp
  4143fb:	c3                   	retq   
--
  41441c:	48 89 f7             	mov    %rsi,%rdi
  41441f:	48 8b 75 e8          	mov    -0x18(%rbp),%rsi
  414423:	e8 38 6d 00 00       	callq  41b160 <_ZNSt11_Tuple_implILm0EJRKSsEEC2ES1_113>
  414428:	48 83 c4 20          	add    $0x20,%rsp
  41442c:	5d                   	pop    %rbp
  41442d:	c3                   	retq   
--
  41444c:	48 89 f7             	mov    %rsi,%rdi
  41444f:	48 8b 75 e8          	mov    -0x18(%rbp),%rsi
  414453:	e8 a8 82 00 00       	callq  41c700 <_ZNSt10_Head_baseILm0ERKSsLb0EEC2ES1_189>
  414458:	48 83 c4 20          	add    $0x20,%rsp
  41445c:	5d                   	pop    %rbp
  41445d:	c3                   	retq   
--
  414468:	48 89 75 f0          	mov    %rsi,-0x10(%rbp)
  41446c:	48 8b 75 f8          	mov    -0x8(%rbp),%rsi
  414470:	48 8b 7d f0          	mov    -0x10(%rbp),%rdi
  414474:	48 89 3e             	mov    %rdi,(%rsi)
  414477:	5d                   	pop    %rbp
  414478:	c3                   	retq   
--
  414518:	48 8b 75 d8          	mov    -0x28(%rbp),%rsi
  41451c:	48 8b 7d c0          	mov    -0x40(%rbp),%rdi
  414520:	48 89 45 98          	mov    %rax,-0x68(%rbp)
  414524:	e8 67 92 00 00       	callq  41d790 <_ZNSt8_Rb_treeISsSt4pairIKSsSsESt10_Select1stIS2_ESt4lessISsESaIS2_EE11_M_put_nodeEPSt13_Rb_tree_nodeIS2_E242>
  414529:	e9 00 00 00 00       	jmpq   41452e <_ZNSt8_Rb_treeISsSt4pairIKSsSsESt10_Select1stIS2_ESt4lessISsESaIS2_EE14_M_create_nodeIJRKSt21piecewise_construct_tSt5tupleIJRS1_EESD_IJEEEEEPSt13_Rb_tree_nodeIS2_EDpOT_+0xae>
  41452e:	e8 9d 31 ff ff       	callq  4076d0 <__cxa_rethrow@plt>
--
  414546:	e9 00 00 00 00       	jmpq   41454b <_ZNSt8_Rb_treeISsSt4pairIKSsSsESt10_Select1stIS2_ESt4lessISsESaIS2_EE14_M_create_nodeIJRKSt21piecewise_construct_tSt5tupleIJRS1_EESD_IJEEEEEPSt13_Rb_tree_nodeIS2_EDpOT_+0xcb>
  41454b:	e9 0a 00 00 00       	jmpq   41455a <_ZNSt8_Rb_treeISsSt4pairIKSsSsESt10_Select1stIS2_ESt4lessISsESaIS2_EE14_M_create_nodeIJRKSt21piecewise_construct_tSt5tupleIJRS1_EESD_IJEEEEEPSt13_Rb_tree_nodeIS2_EDpOT_+0xda>
  414550:	48 8b 45 d8          	mov    -0x28(%rbp),%rax
  414554:	48 83 c4 70          	add    $0x70,%rsp
  414558:	5d                   	pop    %rbp
  414559:	c3                   	retq   
--
  414570:	55                   	push   %rbp
  414571:	48 89 e5             	mov    %rsp,%rbp
  414574:	48 89 7d f8          	mov    %rdi,-0x8(%rbp)
  414578:	48 8b 45 f8          	mov    -0x8(%rbp),%rax
  41457c:	5d                   	pop    %rbp
  41457d:	c3                   	retq   
--
  414580:	55                   	push   %rbp
  414581:	48 89 e5             	mov    %rsp,%rbp
  414584:	48 89 7d f8          	mov    %rdi,-0x8(%rbp)
  414588:	48 8b 45 f8          	mov    -0x8(%rbp),%rax
  41458c:	5d                   	pop    %rbp
  41458d:	c3                   	retq   
--
  414590:	55                   	push   %rbp
  414591:	48 89 e5             	mov    %rsp,%rbp
  414594:	48 89 7d f8          	mov    %rdi,-0x8(%rbp)
  414598:	48 8b 45 f8          	mov    -0x8(%rbp),%rax
  41459c:	5d                   	pop    %rbp
  41459d:	c3                   	retq   
--
  4148bb:	e8 a0 b2 00 00       	callq  41fb60 <_ZNSt4pairIPSt18_Rb_tree_node_baseS1_EC2IRS1_vEEOT_RKS1_361>
  4148c0:	48 8b 45 f0          	mov    -0x10(%rbp),%rax
  4148c4:	48 8b 55 f8          	mov    -0x8(%rbp),%rdx
  4148c8:	48 81 c4 a0 00 00 00 	add    $0xa0,%rsp
  4148cf:	5d                   	pop    %rbp
  4148d0:	c3                   	retq   
--
  4148f5:	48 8d 7d f0          	lea    -0x10(%rbp),%rdi
  4148f9:	48 89 c6             	mov    %rax,%rsi
  4148fc:	e8 1f 87 00 00       	callq  41d020 <_ZNKSt10_Select1stISt4pairIKSsSsEEclERKS2_216>
  414901:	48 83 c4 10          	add    $0x10,%rsp
  414905:	5d                   	pop    %rbp
  414906:	c3                   	retq   
--
  4149d9:	48 8b 75 d8          	mov    -0x28(%rbp),%rsi
  4149dd:	e8 9e 9b 00 00       	callq  41e580 <_ZNSt17_Rb_tree_iteratorISt4pairIKSsSsEEC2EPSt13_Rb_tree_nodeIS2_E295>
  4149e2:	48 8b 45 f8          	mov    -0x8(%rbp),%rax
  4149e6:	48 83 c4 60          	add    $0x60,%rsp
  4149ea:	5d                   	pop    %rbp
  4149eb:	c3                   	retq   
--
  4149f8:	48 89 75 f0          	mov    %rsi,-0x10(%rbp)
  4149fc:	48 8b 75 f8          	mov    -0x8(%rbp),%rsi
  414a00:	48 8b 7d f0          	mov    -0x10(%rbp),%rdi
  414a04:	48 89 3e             	mov    %rdi,(%rsi)
  414a07:	5d                   	pop    %rbp
  414a08:	c3                   	retq   
--
  414a25:	48 8d 7d f0          	lea    -0x10(%rbp),%rdi
  414a29:	48 89 c6             	mov    %rax,%rsi
  414a2c:	e8 ef 85 00 00       	callq  41d020 <_ZNKSt10_Select1stISt4pairIKSsSsEEclERKS2_216>
  414a31:	48 83 c4 10          	add    $0x10,%rsp
  414a35:	5d                   	pop    %rbp
  414a36:	c3                   	retq   
--
  414a41:	48 89 e5             	mov    %rsp,%rbp
  414a44:	48 89 7d f8          	mov    %rdi,-0x8(%rbp)
  414a48:	48 89 75 f0          	mov    %rsi,-0x10(%rbp)
  414a4c:	48 8b 45 f0          	mov    -0x10(%rbp),%rax
  414a50:	5d                   	pop    %rbp
  414a51:	c3                   	retq   
--
  414a64:	48 89 7d f8          	mov    %rdi,-0x8(%rbp)
  414a68:	48 8b 7d f8          	mov    -0x8(%rbp),%rdi
  414a6c:	48 81 c7 20 00 00 00 	add    $0x20,%rdi
  414a73:	48 89 f8             	mov    %rdi,%rax
  414a76:	5d                   	pop    %rbp
  414a77:	c3                   	retq   
--
  414a84:	48 89 7d f8          	mov    %rdi,-0x8(%rbp)
  414a88:	48 8b 7d f8          	mov    -0x8(%rbp),%rdi
  414a8c:	48 81 c7 20 00 00 00 	add    $0x20,%rdi
  414a93:	48 89 f8             	mov    %rdi,%rax
  414a96:	5d                   	pop    %rbp
  414a97:	c3                   	retq   
--
  414abe:	48 8b 75 e8          	mov    -0x18(%rbp),%rsi
  414ac2:	e8 b9 9a 00 00       	callq  41e580 <_ZNSt17_Rb_tree_iteratorISt4pairIKSsSsEEC2EPSt13_Rb_tree_nodeIS2_E295>
  414ac7:	48 8b 45 f8          	mov    -0x8(%rbp),%rax
  414acb:	48 83 c4 20          	add    $0x20,%rsp
  414acf:	5d                   	pop    %rbp
  414ad0:	c3                   	retq   
--
  414ae1:	48 89 e5             	mov    %rsp,%rbp
  414ae4:	48 89 7d f8          	mov    %rdi,-0x8(%rbp)
  414ae8:	48 8b 7d f8          	mov    -0x8(%rbp),%rdi
  414aec:	48 8b 47 28          	mov    0x28(%rdi),%rax
  414af0:	5d                   	pop    %rbp
  414af1:	c3                   	retq   
--
  414b2f:	48 8b 00             	mov    (%rax),%rax
  414b32:	48 8b 55 e0          	mov    -0x20(%rbp),%rdx
  414b36:	48 89 42 08          	mov    %rax,0x8(%rdx)
  414b3a:	48 83 c4 20          	add    $0x20,%rsp
  414b3e:	5d                   	pop    %rbp
  414b3f:	c3                   	retq   
--
  414ca3:	e8 b8 ae 00 00       	callq  41fb60 <_ZNSt4pairIPSt18_Rb_tree_node_baseS1_EC2IRS1_vEEOT_RKS1_361>
  414ca8:	48 8b 45 f0          	mov    -0x10(%rbp),%rax
  414cac:	48 8b 55 f8          	mov    -0x8(%rbp),%rdx
  414cb0:	48 83 c4 70          	add    $0x70,%rsp
  414cb4:	5d                   	pop    %rbp
  414cb5:	c3                   	retq   
--
  414cf8:	48 8b 00             	mov    (%rax),%rax
  414cfb:	48 8b 55 e0          	mov    -0x20(%rbp),%rdx
  414cff:	48 89 42 08          	mov    %rax,0x8(%rdx)
  414d03:	48 83 c4 20          	add    $0x20,%rsp
  414d07:	5d                   	pop    %rbp
  414d08:	c3                   	retq   
--
  414d2f:	48 8b 7d f0          	mov    -0x10(%rbp),%rdi
  414d33:	48 89 07             	mov    %rax,(%rdi)
  414d36:	48 89 f8             	mov    %rdi,%rax
  414d39:	48 83 c4 10          	add    $0x10,%rsp
  414d3d:	5d                   	pop    %rbp
  414d3e:	c3                   	retq   
--
  414d5f:	48 8b 7d f0          	mov    -0x10(%rbp),%rdi
  414d63:	48 89 07             	mov    %rax,(%rdi)
  414d66:	48 89 f8             	mov    %rdi,%rax
  414d69:	48 83 c4 10          	add    $0x10,%rsp
  414d6d:	5d                   	pop    %rbp
  414d6e:	c3                   	retq   
--
  414d9f:	48 8b 45 e8          	mov    -0x18(%rbp),%rax
  414da3:	48 8b 00             	mov    (%rax),%rax
  414da6:	48 89 42 08          	mov    %rax,0x8(%rdx)
  414daa:	48 83 c4 20          	add    $0x20,%rsp
  414dae:	5d                   	pop    %rbp
  414daf:	c3                   	retq   
--
  414db0:	55                   	push   %rbp
  414db1:	48 89 e5             	mov    %rsp,%rbp
  414db4:	48 89 7d f8          	mov    %rdi,-0x8(%rbp)
  414db8:	48 8b 45 f8          	mov    -0x8(%rbp),%rax
  414dbc:	5d                   	pop    %rbp
  414dbd:	c3                   	retq   
--
  414dd4:	e8 a7 97 00 00       	callq  41e580 <_ZNSt17_Rb_tree_iteratorISt4pairIKSsSsEEC2EPSt13_Rb_tree_nodeIS2_E295>
  414dd9:	e9 00 00 00 00       	jmpq   414dde <_ZNSt8_Rb_treeISsSt4pairIKSsSsESt10_Select1stIS2_ESt4lessISsESaIS2_EE5beginEv+0x1e>
  414dde:	48 8b 45 f8          	mov    -0x8(%rbp),%rax
  414de2:	48 83 c4 20          	add    $0x20,%rsp
  414de6:	5d                   	pop    %rbp
  414de7:	c3                   	retq   
--
  414e38:	48 8b 00             	mov    (%rax),%rax
  414e3b:	48 8b 55 e0          	mov    -0x20(%rbp),%rdx
  414e3f:	48 89 42 08          	mov    %rax,0x8(%rdx)
  414e43:	48 83 c4 20          	add    $0x20,%rsp
  414e47:	5d                   	pop    %rbp
  414e48:	c3                   	retq   
--
  414e50:	55                   	push   %rbp
  414e51:	48 89 e5             	mov    %rsp,%rbp
  414e54:	48 89 7d f8          	mov    %rdi,-0x8(%rbp)
  414e58:	48 8b 45 f8          	mov    -0x8(%rbp),%rax
  414e5c:	5d                   	pop    %rbp
  414e5d:	c3                   	retq   
--
  414ebe:	48 8b 4d b8          	mov    -0x48(%rbp),%rcx
  414ec2:	49 89 c0             	mov    %rax,%r8
  414ec5:	e8 c6 01 01 00       	callq  425090 <_ZNSt16allocator_traitsISaISt13_Rb_tree_nodeISt4pairIKSsSsEEEE12_S_constructIS4_JRKSt21piecewise_construct_tSt5tupleIJRS2_EESB_IJEEEEENSt9enable_ifIXsr18__construct_helperIT_DpT0_EE5valueEvE4typeERS5_PSG_DpOSH_624>
  414eca:	48 83 c4 50          	add    $0x50,%rsp
  414ece:	5d                   	pop    %rbp
  414ecf:	c3                   	retq   
--
  414f2b:	48 8b 4d b8          	mov    -0x48(%rbp),%rcx
  414f2f:	49 89 c0             	mov    %rax,%r8
  414f32:	e8 09 09 01 00       	callq  425840 <_ZN9__gnu_cxx13new_allocatorISt13_Rb_tree_nodeISt4pairIKSsSsEEE9constructIS5_JRKSt21piecewise_construct_tSt5tupleIJRS3_EESB_IJEEEEEvPT_DpOT0_654>
  414f37:	48 83 c4 50          	add    $0x50,%rsp
  414f3b:	5d                   	pop    %rbp
  414f3c:	c3                   	retq   
--
  414fa4:	48 8b 55 b8          	mov    -0x48(%rbp),%rdx
  414fa8:	48 89 c1             	mov    %rax,%rcx
  414fab:	e8 90 c8 00 00       	callq  421840 <_ZNSt13_Rb_tree_nodeISt4pairIKSsSsEEC2IJRKSt21piecewise_construct_tSt5tupleIJRS1_EES8_IJEEEEEDpOT_435>
  414fb0:	48 83 c4 50          	add    $0x50,%rsp
  414fb4:	5d                   	pop    %rbp
  414fb5:	c3                   	retq   
--
  415039:	48 8b 7d b8          	mov    -0x48(%rbp),%rdi
  41503d:	48 89 45 a8          	mov    %rax,-0x58(%rbp)
  415041:	e8 2a f8 00 00       	callq  424870 <_ZNSt4pairIKSsSsEC2IJRS0_EJEEESt21piecewise_construct_tSt5tupleIJDpT_EES5_IJDpT0_EE595>
  415046:	48 83 c4 60          	add    $0x60,%rsp
  41504a:	5d                   	pop    %rbp
  41504b:	c3                   	retq   
--
  41506c:	48 89 f7             	mov    %rsi,%rdi
  41506f:	48 8b 75 e8          	mov    -0x18(%rbp),%rsi
  415073:	e8 e8 9c 00 00       	callq  41ed60 <_ZNSt11_Tuple_implILm0EJRKSsEEC2EOS2_322>
  415078:	48 83 c4 20          	add    $0x20,%rsp
  41507c:	5d                   	pop    %rbp
  41507d:	c3                   	retq   
--
  415098:	48 8b 7d e0          	mov    -0x20(%rbp),%rdi
  41509c:	48 89 c6             	mov    %rax,%rsi
  41509f:	e8 dc e5 00 00       	callq  423680 <_ZNSt4pairIKSsSsEC2IJRS0_EJLm0EEJEJEEERSt5tupleIJDpT_EERS4_IJDpT1_EESt12_Index_tupleIJXspT0_EEESD_IJXspT2_EEE533>
  4150a4:	48 83 c4 30          	add    $0x30,%rsp
  4150a8:	5d                   	pop    %rbp
  4150a9:	c3                   	retq   
--
  4150f1:	48 89 c7             	mov    %rax,%rdi
  4150f4:	e8 d7 24 ff ff       	callq  4075d0 <_ZNSsC1Ev@plt>
  4150f9:	e9 00 00 00 00       	jmpq   4150fe <_ZNSt4pairIKSsSsEC2IJRS0_EJLm0EEJEJEEERSt5tupleIJDpT_EERS4_IJDpT1_EESt12_Index_tupleIJXspT0_EEESD_IJXspT2_EEE+0x4e>
  4150fe:	48 83 c4 40          	add    $0x40,%rsp
  415102:	5d                   	pop    %rbp
  415103:	c3                   	retq   
--
  415128:	48 89 7d f8          	mov    %rdi,-0x8(%rbp)
  41512c:	48 8b 7d f8          	mov    -0x8(%rbp),%rdi
  415130:	e8 eb d0 00 00       	callq  422220 <_ZSt12__get_helperILm0ERKSsJEENSt9__add_refIT0_E4typeERSt11_Tuple_implIXT_EJS3_DpT1_EE460>
  415135:	48 83 c4 10          	add    $0x10,%rsp
  415139:	5d                   	pop    %rbp
  41513a:	c3                   	retq   
--
  415148:	48 89 7d f8          	mov    %rdi,-0x8(%rbp)
  41514c:	48 8b 7d f8          	mov    -0x8(%rbp),%rdi
  415150:	e8 fb 16 01 00       	callq  426850 <_ZNSt11_Tuple_implILm0EJRKSsEE7_M_headERS2_688>
  415155:	48 83 c4 10          	add    $0x10,%rsp
  415159:	5d                   	pop    %rbp
  41515a:	c3                   	retq   
--
  415168:	48 89 7d f8          	mov    %rdi,-0x8(%rbp)
  41516c:	48 8b 7d f8          	mov    -0x8(%rbp),%rdi
  415170:	e8 ab 47 00 00       	callq  419920 <_ZNSt10_Head_baseILm0ERKSsLb0EE7_M_headERS2_39>
  415175:	48 83 c4 10          	add    $0x10,%rsp
  415179:	5d                   	pop    %rbp
  41517a:	c3                   	retq   
--
  415181:	48 89 e5             	mov    %rsp,%rbp
  415184:	48 89 7d f8          	mov    %rdi,-0x8(%rbp)
  415188:	48 8b 7d f8          	mov    -0x8(%rbp),%rdi
  41518c:	48 8b 07             	mov    (%rdi),%rax
  41518f:	5d                   	pop    %rbp
  415190:	c3                   	retq   
--
  4151e1:	48 89 c6             	mov    %rax,%rsi
  4151e4:	e8 17 75 00 00       	callq  41c700 <_ZNSt10_Head_baseILm0ERKSsLb0EEC2ES1_189>
  4151e9:	e9 00 00 00 00       	jmpq   4151ee <_ZNSt11_Tuple_implILm0EJRKSsEEC2EOS2_+0x4e>
  4151ee:	48 83 c4 30          	add    $0x30,%rsp
  4151f2:	5d                   	pop    %rbp
  4151f3:	c3                   	retq   
--
  415210:	55                   	push   %rbp
  415211:	48 89 e5             	mov    %rsp,%rbp
  415214:	48 89 7d f8          	mov    %rdi,-0x8(%rbp)
  415218:	48 8b 45 f8          	mov    -0x8(%rbp),%rax
  41521c:	5d                   	pop    %rbp
  41521d:	c3                   	retq   
--
  415221:	48 89 e5             	mov    %rsp,%rbp
  415224:	48 89 7d f8          	mov    %rdi,-0x8(%rbp)
  415228:	48 8b 7d f8          	mov    -0x8(%rbp),%rdi
  41522c:	48 89 f8             	mov    %rdi,%rax
  41522f:	5d                   	pop    %rbp
  415230:	c3                   	retq   
--
0000000000415240 <_ZNKSt8_Rb_treeISsSt4pairIKSsSsESt10_Select1stIS2_ESt4lessISsESaIS2_EE8key_compEv>:
  415240:	55                   	push   %rbp
  415241:	48 89 e5             	mov    %rsp,%rbp
  415244:	48 89 7d f0          	mov    %rdi,-0x10(%rbp)
  415248:	5d                   	pop    %rbp
  415249:	c3                   	retq   
--
  41526f:	e8 0c 93 00 00       	callq  41e580 <_ZNSt17_Rb_tree_iteratorISt4pairIKSsSsEEC2EPSt13_Rb_tree_nodeIS2_E295>
  415274:	e9 00 00 00 00       	jmpq   415279 <_ZNSt8_Rb_treeISsSt4pairIKSsSsESt10_Select1stIS2_ESt4lessISsESaIS2_EE3endEv+0x29>
  415279:	48 8b 45 f8          	mov    -0x8(%rbp),%rax
  41527d:	48 83 c4 20          	add    $0x20,%rsp
  415281:	5d                   	pop    %rbp
  415282:	c3                   	retq   
--
  4152cc:	e8 ff d7 00 00       	callq  422ad0 <_ZNSt8_Rb_treeISsSt4pairIKSsSsESt10_Select1stIS2_ESt4lessISsESaIS2_EE14_M_lower_boundEPSt13_Rb_tree_nodeIS2_ESB_RS1_486>
  4152d1:	48 89 45 f8          	mov    %rax,-0x8(%rbp)
  4152d5:	48 8b 45 f8          	mov    -0x8(%rbp),%rax
  4152d9:	48 83 c4 30          	add    $0x30,%rsp
  4152dd:	5d                   	pop    %rbp
  4152de:	c3                   	retq   
--
  415365:	48 8b 75 e0          	mov    -0x20(%rbp),%rsi
  415369:	e8 12 92 00 00       	callq  41e580 <_ZNSt17_Rb_tree_iteratorISt4pairIKSsSsEEC2EPSt13_Rb_tree_nodeIS2_E295>
  41536e:	48 8b 45 f8          	mov    -0x8(%rbp),%rax
  415372:	48 83 c4 30          	add    $0x30,%rsp
  415376:	5d                   	pop    %rbp
  415377:	c3                   	retq   
--
  4153cc:	48 8b 55 d8          	mov    -0x28(%rbp),%rdx
  4153d0:	48 89 02             	mov    %rax,(%rdx)
  4153d3:	48 89 8a 90 00 00 00 	mov    %rcx,0x90(%rdx)
  4153da:	48 83 c4 30          	add    $0x30,%rsp
  4153de:	5d                   	pop    %rbp
  4153df:	c3                   	retq   
--
  4154ae:	48 89 c6             	mov    %rax,%rsi
  4154b1:	e8 4a 96 00 00       	callq  41eb00 <_ZN5boost16exception_detail20copy_boost_exceptionEPNS_9exceptionEPKS1_315>
  4154b6:	e9 00 00 00 00       	jmpq   4154bb <_ZN5boost16exception_detail10clone_implINS0_19error_info_injectorINS_15program_options20invalid_option_valueEEEEC1ERKS5_+0xbb>
  4154bb:	48 83 c4 40          	add    $0x40,%rsp
  4154bf:	5d                   	pop    %rbp
  4154c0:	c3                   	retq   
--
  415535:	48 8b 75 f0          	mov    -0x10(%rbp),%rsi
  415539:	66 8b 06             	mov    (%rsi),%ax
  41553c:	66 89 47 08          	mov    %ax,0x8(%rdi)
  415540:	48 83 c4 20          	add    $0x20,%rsp
  415544:	5d                   	pop    %rbp
  415545:	c3                   	retq   
--
  41555b:	48 05 10 00 00 00    	add    $0x10,%rax
  415561:	48 89 7d f8          	mov    %rdi,-0x8(%rbp)
  415565:	48 8b 7d f8          	mov    -0x8(%rbp),%rdi
  415569:	48 89 07             	mov    %rax,(%rdi)
  41556c:	5d                   	pop    %rbp
  41556d:	c3                   	retq   
--
  415578:	48 89 7d f8          	mov    %rdi,-0x8(%rbp)
  41557c:	48 8b 7d f8          	mov    -0x8(%rbp),%rdi
  415580:	e8 8b b9 00 00       	callq  420f10 <_ZN5boost3any11placeholderD2Ev410>
  415585:	48 83 c4 10          	add    $0x10,%rsp
  415589:	5d                   	pop    %rbp
  41558a:	c3                   	retq   
--
  4155a4:	e8 07 5b 00 00       	callq  41b0b0 <_ZN5boost3any6holderItED2Ev109>
  4155a9:	48 8b 7d f0          	mov    -0x10(%rbp),%rdi
  4155ad:	e8 be 20 ff ff       	callq  407670 <_ZdlPv@plt>
  4155b2:	48 83 c4 10          	add    $0x10,%rsp
  4155b6:	5d                   	pop    %rbp
  4155b7:	c3                   	retq   
--
  4155c0:	55                   	push   %rbp
  4155c1:	48 89 e5             	mov    %rsp,%rbp
  4155c4:	48 8b 05 bd 49 22 00 	mov    0x2249bd(%rip),%rax        # 639f88 <_DYNAMIC+0x250>
  4155cb:	48 89 7d f8          	mov    %rdi,-0x8(%rbp)
  4155cf:	5d                   	pop    %rbp
  4155d0:	c3                   	retq   
--
  41561b:	e8 f0 fc 00 00       	callq  425310 <_ZN5boost3any6holderItEC2ERKt631>
  415620:	e9 00 00 00 00       	jmpq   415625 <_ZNK5boost3any6holderItE5cloneEv+0x45>
  415625:	48 8b 45 d8          	mov    -0x28(%rbp),%rax
  415629:	48 83 c4 30          	add    $0x30,%rsp
  41562d:	5d                   	pop    %rbp
  41562e:	c3                   	retq   
--
  415685:	48 8b 75 f0          	mov    -0x10(%rbp),%rsi
  415689:	66 8b 06             	mov    (%rsi),%ax
  41568c:	66 89 47 08          	mov    %ax,0x8(%rdi)
  415690:	48 83 c4 20          	add    $0x20,%rsp
  415694:	5d                   	pop    %rbp
  415695:	c3                   	retq   
--
00000000004156a0 <_ZN5boost3any11placeholderD2Ev>:
  4156a0:	55                   	push   %rbp
  4156a1:	48 89 e5             	mov    %rsp,%rbp
  4156a4:	48 89 7d f8          	mov    %rdi,-0x8(%rbp)
  4156a8:	5d                   	pop    %rbp
  4156a9:	c3                   	retq   
--
  4156c4:	e8 47 b8 00 00       	callq  420f10 <_ZN5boost3any11placeholderD2Ev410>
  4156c9:	48 8b 7d f0          	mov    -0x10(%rbp),%rdi
  4156cd:	e8 9e 1f ff ff       	callq  407670 <_ZdlPv@plt>
  4156d2:	48 83 c4 10          	add    $0x10,%rsp
  4156d6:	5d                   	pop    %rbp
  4156d7:	c3                   	retq   
--
  41577d:	e8 6e d6 00 00       	callq  422df0 <_ZN5boost16bad_lexical_castD2Ev497>
  415782:	e9 0a 00 00 00       	jmpq   415791 <_ZN5boost6detail20lexical_cast_do_castItSsE17lexical_cast_implERKSs+0xb1>
  415787:	0f b7 45 f6          	movzwl -0xa(%rbp),%eax
  41578b:	48 83 c4 60          	add    $0x60,%rsp
  41578f:	5d                   	pop    %rbp
  415790:	c3                   	retq   
--

00000000004157a0 <_ZN5boost6detail16lcast_src_lengthISsE14check_coverageEv>:
  4157a0:	55                   	push   %rbp
  4157a1:	48 89 e5             	mov    %rsp,%rbp
  4157a4:	5d                   	pop    %rbp
  4157a5:	c3                   	retq   
--
  4157c4:	48 8b 75 f0          	mov    -0x10(%rbp),%rsi
  4157c8:	48 89 32             	mov    %rsi,(%rdx)
  4157cb:	48 8b 75 e8          	mov    -0x18(%rbp),%rsi
  4157cf:	48 89 72 08          	mov    %rsi,0x8(%rdx)
  4157d3:	5d                   	pop    %rbp
  4157d4:	c3                   	retq   
--
  415825:	48 89 70 08          	mov    %rsi,0x8(%rax)
  415829:	80 e1 01             	and    $0x1,%cl
  41582c:	0f b6 c1             	movzbl %cl,%eax
  41582f:	48 83 c4 20          	add    $0x20,%rsp
  415833:	5d                   	pop    %rbp
  415834:	c3                   	retq   
--
  415858:	e8 03 7e 00 00       	callq  41d660 <_ZN5boost6detail26lexical_stream_limited_srcIcSt11char_traitsIcELb0EE12shr_unsignedItEEbRT_240>
  41585d:	24 01                	and    $0x1,%al
  41585f:	0f b6 c0             	movzbl %al,%eax
  415862:	48 83 c4 10          	add    $0x10,%rsp
  415866:	5d                   	pop    %rbp
  415867:	c3                   	retq   
--
  415894:	48 8b 75 f8          	mov    -0x8(%rbp),%rsi
  415898:	48 8d 4d b8          	lea    -0x48(%rbp),%rcx
  41589c:	48 89 7d a0          	mov    %rdi,-0x60(%rbp)
  4158a0:	48 89 cf             	mov    %rcx,%rdi
  4158a3:	48 89 45 98          	mov    %rax,-0x68(%rbp)
  4158a7:	e8 e4 75 00 00       	callq  41ce90 <_ZN5boost17enable_error_infoINS_16bad_lexical_castEEENS_16exception_detail29enable_error_info_return_typeIT_E4typeERKS4_212>
--
  415970:	48 89 56 08          	mov    %rdx,0x8(%rsi)
  415974:	48 8b 55 e8          	mov    -0x18(%rbp),%rdx
  415978:	48 89 56 10          	mov    %rdx,0x10(%rsi)
  41597c:	48 83 c4 20          	add    $0x20,%rsp
  415980:	5d                   	pop    %rbp
  415981:	c3                   	retq   
--
  415998:	48 89 7d f8          	mov    %rdi,-0x8(%rbp)
  41599c:	48 8b 7d f8          	mov    -0x8(%rbp),%rdi
  4159a0:	e8 fb 1b ff ff       	callq  4075a0 <_ZNSt8bad_castD2Ev@plt>
  4159a5:	48 83 c4 10          	add    $0x10,%rsp
  4159a9:	5d                   	pop    %rbp
  4159aa:	c3                   	retq   
--
  4159c4:	e8 27 d4 00 00       	callq  422df0 <_ZN5boost16bad_lexical_castD2Ev497>
  4159c9:	48 8b 7d f0          	mov    -0x10(%rbp),%rdi
  4159cd:	e8 9e 1c ff ff       	callq  407670 <_ZdlPv@plt>
  4159d2:	48 83 c4 10          	add    $0x10,%rsp
  4159d6:	5d                   	pop    %rbp
  4159d7:	c3                   	retq   
--
  4159e0:	55                   	push   %rbp
  4159e1:	48 89 e5             	mov    %rsp,%rbp
  4159e4:	48 8d 05 dc 14 01 00 	lea    0x114dc(%rip),%rax        # 426ec7 <_IO_stdin_used+0x2c7>
  4159eb:	48 89 7d f8          	mov    %rdi,-0x8(%rbp)
  4159ef:	5d                   	pop    %rbp
  4159f0:	c3                   	retq   
--
  415a13:	48 89 45 f0          	mov    %rax,-0x10(%rbp)
  415a17:	e8 34 ea 00 00       	callq  424450 <_ZN5boost16exception_detail10clone_implINS0_19error_info_injectorINS_16bad_lexical_castEEEEC1ERKS4_584>
  415a1c:	48 8b 45 f0          	mov    -0x10(%rbp),%rax
  415a20:	48 83 c4 10          	add    $0x10,%rsp
  415a24:	5d                   	pop    %rbp
  415a25:	c3                   	retq   
  415a26:	66 2e 0f 1f 84 00 00 	nopw   %cs:0x0(%rax,%rax,1)
  415a2d:	00 00 00 

0000000000415a30 <_ZN5boost17enable_error_infoINS_16bad_lexical_castEEENS_16exception_detail29enable_error_info_return_typeIT_E4typeERKS4_>:
--
  415a43:	48 89 45 f0          	mov    %rax,-0x10(%rbp)
  415a47:	e8 e4 b1 00 00       	callq  420c30 <_ZN5boost16exception_detail19error_info_injectorINS_16bad_lexical_castEEC2ERKS2_404>
  415a4c:	48 8b 45 f0          	mov    -0x10(%rbp),%rax
  415a50:	48 83 c4 10          	add    $0x10,%rsp
  415a54:	5d                   	pop    %rbp
  415a55:	c3                   	retq   
--
  415a84:	48 81 c6 40 00 00 00 	add    $0x40,%rsi
  415a8b:	48 89 f7             	mov    %rsi,%rdi
  415a8e:	e8 9d a1 00 00       	callq  41fc30 <_ZN5boost16exception_detail10clone_baseD2Ev363>
  415a93:	48 83 c4 10          	add    $0x10,%rsp
  415a97:	5d                   	pop    %rbp
  415a98:	c3                   	retq   
--
  415ac5:	48 8b 45 f0          	mov    -0x10(%rbp),%rax
  415ac9:	48 89 c7             	mov    %rax,%rdi
  415acc:	e8 1f d3 00 00       	callq  422df0 <_ZN5boost16bad_lexical_castD2Ev497>
  415ad1:	48 83 c4 10          	add    $0x10,%rsp
  415ad5:	5d                   	pop    %rbp
  415ad6:	c3                   	retq   
--
  415aec:	48 8b 7d f8          	mov    -0x8(%rbp),%rdi
  415af0:	48 81 c7 e8 ff ff ff 	add    $0xffffffffffffffe8,%rdi
  415af7:	e8 a4 f3 00 00       	callq  424ea0 <_ZN5boost16exception_detail19error_info_injectorINS_16bad_lexical_castEED2Ev615>
  415afc:	48 83 c4 10          	add    $0x10,%rsp
  415b00:	5d                   	pop    %rbp
  415b01:	c3                   	retq   
--
  415b20:	48 8b 75 f8          	mov    -0x8(%rbp),%rsi
  415b24:	48 89 f7             	mov    %rsi,%rdi
  415b27:	e8 74 f3 00 00       	callq  424ea0 <_ZN5boost16exception_detail19error_info_injectorINS_16bad_lexical_castEED2Ev615>
  415b2c:	48 83 c4 10          	add    $0x10,%rsp
  415b30:	5d                   	pop    %rbp
  415b31:	c3                   	retq   
--
  415b4c:	48 8b 7d f8          	mov    -0x8(%rbp),%rdi
  415b50:	48 81 c7 e8 ff ff ff 	add    $0xffffffffffffffe8,%rdi
  415b57:	e8 d4 54 00 00       	callq  41b030 <_ZN5boost16exception_detail10clone_implINS0_19error_info_injectorINS_16bad_lexical_castEEEED1Ev107>
  415b5c:	48 83 c4 10          	add    $0x10,%rsp
  415b60:	5d                   	pop    %rbp
  415b61:	c3                   	retq   
--
  415b86:	48 03 47 d8          	add    -0x28(%rdi),%rax
  415b8a:	48 89 c7             	mov    %rax,%rdi
  415b8d:	e8 9e 54 00 00       	callq  41b030 <_ZN5boost16exception_detail10clone_implINS0_19error_info_injectorINS_16bad_lexical_castEEEED1Ev107>
  415b92:	48 83 c4 10          	add    $0x10,%rsp
  415b96:	5d                   	pop    %rbp
  415b97:	c3                   	retq   
--
  415bb4:	e8 77 54 00 00       	callq  41b030 <_ZN5boost16exception_detail10clone_implINS0_19error_info_injectorINS_16bad_lexical_castEEEED1Ev107>
  415bb9:	48 8b 7d f0          	mov    -0x10(%rbp),%rdi
  415bbd:	e8 ae 1a ff ff       	callq  407670 <_ZdlPv@plt>
  415bc2:	48 83 c4 10          	add    $0x10,%rsp
  415bc6:	5d                   	pop    %rbp
  415bc7:	c3                   	retq   
--
  415c32:	48 01 c8             	add    %rcx,%rax
  415c35:	48 89 45 c0          	mov    %rax,-0x40(%rbp)
  415c39:	48 8b 45 c0          	mov    -0x40(%rbp),%rax
  415c3d:	48 83 c4 40          	add    $0x40,%rsp
  415c41:	5d                   	pop    %rbp
  415c42:	c3                   	retq   
--
  415c50:	e8 1b 1a ff ff       	callq  407670 <_ZdlPv@plt>
  415c55:	48 8b 7d e8          	mov    -0x18(%rbp),%rdi
  415c59:	e8 02 20 ff ff       	callq  407c60 <_Unwind_Resume@plt>
  415c5e:	66 90                	xchg   %ax,%ax

0000000000415c60 <_ZNK5boost16exception_detail10clone_implINS0_19error_info_injectorINS_16bad_lexical_castEEEE7rethrowEv>:
--
  415c7f:	48 89 c1             	mov    %rax,%rcx
  415c82:	48 89 c7             	mov    %rax,%rdi
  415c85:	48 8b 75 e0          	mov    -0x20(%rbp),%rsi
  415c89:	48 89 4d d8          	mov    %rcx,-0x28(%rbp)
  415c8d:	e8 5e c1 00 00       	callq  421df0 <_ZN5boost16exception_detail10clone_implINS0_19error_info_injectorINS_16bad_lexical_castEEEEC1ERKS5_445>
  415c92:	e9 00 00 00 00       	jmpq   415c97 <_ZNK5boost16exception_detail10clone_implINS0_19error_info_injectorINS_16bad_lexical_castEEEE7rethrowEv+0x37>
--
  415cdc:	48 8b 7d f8          	mov    -0x8(%rbp),%rdi
  415ce0:	48 81 c7 e8 ff ff ff 	add    $0xffffffffffffffe8,%rdi
  415ce7:	e8 54 e4 00 00       	callq  424140 <_ZN5boost16exception_detail10clone_implINS0_19error_info_injectorINS_16bad_lexical_castEEEED0Ev567>
  415cec:	48 83 c4 10          	add    $0x10,%rsp
  415cf0:	5d                   	pop    %rbp
  415cf1:	c3                   	retq   
--
  415d16:	48 03 47 e8          	add    -0x18(%rdi),%rax
  415d1a:	48 89 c7             	mov    %rax,%rdi
  415d1d:	e8 5e b9 00 00       	callq  421680 <_ZNK5boost16exception_detail10clone_implINS0_19error_info_injectorINS_16bad_lexical_castEEEE5cloneEv427>
  415d22:	48 83 c4 10          	add    $0x10,%rsp
  415d26:	5d                   	pop    %rbp
  415d27:	c3                   	retq   
  415d28:	0f 1f 84 00 00 00 00 	nopl   0x0(%rax,%rax,1)
  415d2f:	00 

0000000000415d30 <_ZTv0_n32_NK5boost16exception_detail10clone_implINS0_19error_info_injectorINS_16bad_lexical_castEEEE7rethrowEv>:
--
  415d3c:	48 8b 7d f8          	mov    -0x8(%rbp),%rdi
  415d40:	48 89 f8             	mov    %rdi,%rax
  415d43:	48 8b 3f             	mov    (%rdi),%rdi
  415d46:	48 03 47 e0          	add    -0x20(%rdi),%rax
  415d4a:	48 89 c7             	mov    %rax,%rdi
  415d4d:	e8 7e 00 01 00       	callq  425dd0 <_ZNK5boost16exception_detail10clone_implINS0_19error_info_injectorINS_16bad_lexical_castEEEE7rethrowEv672>
  415d52:	48 83 c4 10          	add    $0x10,%rsp
  415d56:	5d                   	pop    %rbp
  415d57:	c3                   	retq   
--
  415d76:	48 03 47 d8          	add    -0x28(%rdi),%rax
  415d7a:	48 89 c7             	mov    %rax,%rdi
  415d7d:	e8 be e3 00 00       	callq  424140 <_ZN5boost16exception_detail10clone_implINS0_19error_info_injectorINS_16bad_lexical_castEEEED0Ev567>
  415d82:	48 83 c4 10          	add    $0x10,%rsp
  415d86:	5d                   	pop    %rbp
  415d87:	c3                   	retq   
--
  415df8:	48 89 06             	mov    %rax,(%rsi)
  415dfb:	48 89 56 18          	mov    %rdx,0x18(%rsi)
  415dff:	48 89 4e 40          	mov    %rcx,0x40(%rsi)
  415e03:	48 83 c4 30          	add    $0x30,%rsp
  415e07:	5d                   	pop    %rbp
  415e08:	c3                   	retq   
--
  415e89:	48 8b 55 d8          	mov    -0x28(%rbp),%rdx
  415e8d:	48 89 02             	mov    %rax,(%rdx)
  415e90:	48 89 4a 18          	mov    %rcx,0x18(%rdx)
  415e94:	48 83 c4 30          	add    $0x30,%rsp
  415e98:	5d                   	pop    %rbp
  415e99:	c3                   	retq   
--
  415f03:	48 89 7e 08          	mov    %rdi,0x8(%rsi)
  415f07:	48 8b 40 10          	mov    0x10(%rax),%rax
  415f0b:	48 89 46 10          	mov    %rax,0x10(%rsi)
  415f0f:	48 83 c4 20          	add    $0x20,%rsp
  415f13:	5d                   	pop    %rbp
  415f14:	c3                   	retq   
--
  415f34:	e8 67 ef 00 00       	callq  424ea0 <_ZN5boost16exception_detail19error_info_injectorINS_16bad_lexical_castEED2Ev615>
  415f39:	48 8b 7d f0          	mov    -0x10(%rbp),%rdi
  415f3d:	e8 2e 17 ff ff       	callq  407670 <_ZdlPv@plt>
  415f42:	48 83 c4 10          	add    $0x10,%rsp
  415f46:	5d                   	pop    %rbp
  415f47:	c3                   	retq   
--
  415f5c:	48 8b 7d f8          	mov    -0x8(%rbp),%rdi
  415f60:	48 81 c7 e8 ff ff ff 	add    $0xffffffffffffffe8,%rdi
  415f67:	e8 64 99 00 00       	callq  41f8d0 <_ZN5boost16exception_detail19error_info_injectorINS_16bad_lexical_castEED0Ev348>
  415f6c:	48 83 c4 10          	add    $0x10,%rsp
  415f70:	5d                   	pop    %rbp
  415f71:	c3                   	retq   
--
  416025:	48 89 c6             	mov    %rax,%rsi
  416028:	e8 d3 8a 00 00       	callq  41eb00 <_ZN5boost16exception_detail20copy_boost_exceptionEPNS_9exceptionEPKS1_315>
  41602d:	e9 00 00 00 00       	jmpq   416032 <_ZN5boost16exception_detail10clone_implINS0_19error_info_injectorINS_16bad_lexical_castEEEEC1ERKS5_NS5_9clone_tagE+0xb2>
  416032:	48 83 c4 50          	add    $0x50,%rsp
  416036:	5d                   	pop    %rbp
  416037:	c3                   	retq   
--
  4160c9:	48 8b 55 d8          	mov    -0x28(%rbp),%rdx
  4160cd:	48 89 02             	mov    %rax,(%rdx)
  4160d0:	48 89 4a 18          	mov    %rcx,0x18(%rdx)
  4160d4:	48 83 c4 30          	add    $0x30,%rsp
  4160d8:	5d                   	pop    %rbp
  4160d9:	c3                   	retq   
--
  4161a5:	48 89 c6             	mov    %rax,%rsi
  4161a8:	e8 53 89 00 00       	callq  41eb00 <_ZN5boost16exception_detail20copy_boost_exceptionEPNS_9exceptionEPKS1_315>
  4161ad:	e9 00 00 00 00       	jmpq   4161b2 <_ZN5boost16exception_detail10clone_implINS0_19error_info_injectorINS_16bad_lexical_castEEEEC1ERKS4_+0xb2>
  4161b2:	48 83 c4 40          	add    $0x40,%rsp
  4161b6:	5d                   	pop    %rbp
  4161b7:	c3                   	retq   
--
  41629f:	e9 00 00 00 00       	jmpq   4162a4 <_ZN5boost6detail26lexical_stream_limited_srcIcSt11char_traitsIcELb0EE12shr_unsignedItEEbRT_+0xa4>
  4162a4:	48 8b 7d e8          	mov    -0x18(%rbp),%rdi
  4162a8:	48 8b 45 d8          	mov    -0x28(%rbp),%rax
  4162ac:	48 8b 30             	mov    (%rax),%rsi
  4162af:	48 8b 50 08          	mov    0x8(%rax),%rdx
  4162b3:	e8 08 fe 00 00       	callq  4260c0 <_ZN5boost6detail18lcast_ret_unsignedISt11char_traitsIcEtcEEbRT0_PKT1_S8_681>
--
  4162e4:	8a 45 ff             	mov    -0x1(%rbp),%al
  4162e7:	24 01                	and    $0x1,%al
  4162e9:	0f b6 c0             	movzbl %al,%eax
  4162ec:	48 83 c4 30          	add    $0x30,%rsp
  4162f0:	5d                   	pop    %rbp
  4162f1:	c3                   	retq   
--
  41631a:	39 c8                	cmp    %ecx,%eax
  41631c:	0f 94 c2             	sete   %dl
  41631f:	80 e2 01             	and    $0x1,%dl
  416322:	0f b6 c2             	movzbl %dl,%eax
  416325:	5d                   	pop    %rbp
  416326:	c3                   	retq   
  416327:	66 0f 1f 84 00 00 00 	nopw   0x0(%rax,%rax,1)
  41632e:	00 00 

0000000000416330 <_ZN5boost6detail18lcast_ret_unsignedISt11char_traitsIcEtcEEbRT0_PKT1_S8_>:
--
  416356:	48 89 55 e0          	mov    %rdx,-0x20(%rbp)
  41635a:	48 8b 55 f0          	mov    -0x10(%rbp),%rdx
  41635e:	66 c7 02 00 00       	movw   $0x0,(%rdx)
  416363:	48 8b 55 e8          	mov    -0x18(%rbp),%rdx
  416367:	48 3b 55 e0          	cmp    -0x20(%rbp),%rdx
  41636b:	0f 87 26 00 00 00    	ja     416397 <_ZN5boost6detail18lcast_ret_unsignedISt11char_traitsIcEtcEEbRT0_PKT1_S8_+0x67>
  416371:	48 8b 45 e0          	mov    -0x20(%rbp),%rax
  416375:	0f be 08             	movsbl (%rax),%ecx
  416378:	81 f9 30 00 00 00    	cmp    $0x30,%ecx
  41637e:	0f 8c 13 00 00 00    	jl     416397 <_ZN5boost6detail18lcast_ret_unsignedISt11char_traitsIcEtcEEbRT0_PKT1_S8_+0x67>
  416384:	48 8b 45 e0          	mov    -0x20(%rbp),%rax
  416388:	0f be 08             	movsbl (%rax),%ecx
  41638b:	81 f9 3a 00 00 00    	cmp    $0x3a,%ecx
  416391:	0f 8c 09 00 00 00    	jl     4163a0 <_ZN5boost6detail18lcast_ret_unsignedISt11char_traitsIcEtcEEbRT0_PKT1_S8_+0x70>
  416397:	c6 45 ff 00          	movb   $0x0,-0x1(%rbp)
  41639b:	e9 ee 04 00 00       	jmpq   41688e <_ZN5boost6detail18lcast_ret_unsignedISt11char_traitsIcEtcEEbRT0_PKT1_S8_+0x55e>
--
  4163c5:	c6 45 db 00          	movb   $0x0,-0x25(%rbp)
  4163c9:	48 8d 7d d0          	lea    -0x30(%rbp),%rdi
  4163cd:	e8 ae 15 ff ff       	callq  407980 <_ZNSt6localeC1Ev@plt>
  4163d2:	e8 69 12 ff ff       	callq  407640 <_ZNSt6locale7classicEv@plt>
  4163d7:	48 89 45 80          	mov    %rax,-0x80(%rbp)
  4163db:	e9 00 00 00 00       	jmpq   4163e0 <_ZN5boost6detail18lcast_ret_unsignedISt11char_traitsIcEtcEEbRT0_PKT1_S8_+0xb0>
  4163e0:	48 8d 7d d0          	lea    -0x30(%rbp),%rdi
  4163e4:	48 8b 75 80          	mov    -0x80(%rbp),%rsi
  4163e8:	e8 33 e0 00 00       	callq  424420 <_ZNKSt6localeneERKS_583>
  4163ed:	a8 01                	test   $0x1,%al
  4163ef:	0f 85 05 00 00 00    	jne    4163fa <_ZN5boost6detail18lcast_ret_unsignedISt11char_traitsIcEtcEEbRT0_PKT1_S8_+0xca>
  4163f5:	e9 2c 03 00 00       	jmpq   416726 <_ZN5boost6detail18lcast_ret_unsignedISt11char_traitsIcEtcEEbRT0_PKT1_S8_+0x3f6>
  4163fa:	48 8d 7d d0          	lea    -0x30(%rbp),%rdi
  4163fe:	e8 6d 15 ff ff       	callq  407970 <_ZSt9use_facetISt8numpunctIcEERKT_RKSt6locale@plt>
  416403:	48 89 85 78 ff ff ff 	mov    %rax,-0x88(%rbp)
  41640a:	e9 00 00 00 00       	jmpq   41640f <_ZN5boost6detail18lcast_ret_unsignedISt11char_traitsIcEtcEEbRT0_PKT1_S8_+0xdf>
  41640f:	48 8b 85 78 ff ff ff 	mov    -0x88(%rbp),%rax
  416416:	48 89 45 b8          	mov    %rax,-0x48(%rbp)
  41641a:	48 8d 7d a8          	lea    -0x58(%rbp),%rdi
  41641e:	48 89 c6             	mov    %rax,%rsi
  416421:	e8 4a 16 ff ff       	callq  407a70 <_ZNKSt8numpunctIcE8groupingEv@plt>
  416426:	e9 00 00 00 00       	jmpq   41642b <_ZN5boost6detail18lcast_ret_unsignedISt11char_traitsIcEtcEEbRT0_PKT1_S8_+0xfb>
--
  416433:	48 8b 7d b0          	mov    -0x50(%rbp),%rdi
  416437:	e8 b4 12 ff ff       	callq  4076f0 <_ZNKSs4sizeEv@plt>
  41643c:	48 89 45 a0          	mov    %rax,-0x60(%rbp)
  416440:	48 81 7d a0 00 00 00 	cmpq   $0x0,-0x60(%rbp)
  416447:	00 
  416448:	0f 84 b3 02 00 00    	je     416701 <_ZN5boost6detail18lcast_ret_unsignedISt11char_traitsIcEtcEEbRT0_PKT1_S8_+0x3d1>
  41644e:	48 8b 7d b0          	mov    -0x50(%rbp),%rdi
  416452:	31 c0                	xor    %eax,%eax
  416454:	89 c6                	mov    %eax,%esi
  416456:	e8 75 16 ff ff       	callq  407ad0 <_ZNKSsixEm@plt>
  41645b:	48 89 85 70 ff ff ff 	mov    %rax,-0x90(%rbp)
  416462:	e9 00 00 00 00       	jmpq   416467 <_ZN5boost6detail18lcast_ret_unsignedISt11char_traitsIcEtcEEbRT0_PKT1_S8_+0x137>
  416467:	48 8b 85 70 ff ff ff 	mov    -0x90(%rbp),%rax
  41646e:	0f be 08             	movsbl (%rax),%ecx
  416471:	81 f9 00 00 00 00    	cmp    $0x0,%ecx
  416477:	0f 8e 84 02 00 00    	jle    416701 <_ZN5boost6detail18lcast_ret_unsignedISt11char_traitsIcEtcEEbRT0_PKT1_S8_+0x3d1>
  41647d:	c6 45 9f 00          	movb   $0x0,-0x61(%rbp)
  416481:	48 8b 7d b8          	mov    -0x48(%rbp),%rdi
  416485:	e8 f6 13 ff ff       	callq  407880 <_ZNKSt8numpunctIcE13thousands_sepEv@plt>
  41648a:	88 85 6f ff ff ff    	mov    %al,-0x91(%rbp)
  416490:	e9 00 00 00 00       	jmpq   416495 <_ZN5boost6detail18lcast_ret_unsignedISt11char_traitsIcEtcEEbRT0_PKT1_S8_+0x165>
--
  41649e:	48 8b 7d b0          	mov    -0x50(%rbp),%rdi
  4164a2:	0f b6 4d 9f          	movzbl -0x61(%rbp),%ecx
  4164a6:	89 ce                	mov    %ecx,%esi
  4164a8:	e8 23 16 ff ff       	callq  407ad0 <_ZNKSsixEm@plt>
  4164ad:	48 89 85 60 ff ff ff 	mov    %rax,-0xa0(%rbp)
  4164b4:	e9 00 00 00 00       	jmpq   4164b9 <_ZN5boost6detail18lcast_ret_unsignedISt11char_traitsIcEtcEEbRT0_PKT1_S8_+0x189>
--
  4164c9:	88 ca                	mov    %cl,%dl
  4164cb:	88 55 9d             	mov    %dl,-0x63(%rbp)
  4164ce:	c6 45 9c 01          	movb   $0x1,-0x64(%rbp)
  4164d2:	48 8b 45 e0          	mov    -0x20(%rbp),%rax
  4164d6:	48 3b 45 e8          	cmp    -0x18(%rbp),%rax
  4164da:	0f 82 02 02 00 00    	jb     4166e2 <_ZN5boost6detail18lcast_ret_unsignedISt11char_traitsIcEtcEEbRT0_PKT1_S8_+0x3b2>
  4164e0:	80 7d 9d 00          	cmpb   $0x0,-0x63(%rbp)
  4164e4:	0f 84 56 01 00 00    	je     416640 <_ZN5boost6detail18lcast_ret_unsignedISt11char_traitsIcEtcEEbRT0_PKT1_S8_+0x310>
--
  41650c:	99                   	cltd   
  41650d:	8b 8d 5c ff ff ff    	mov    -0xa4(%rbp),%ecx
  416513:	f7 f9                	idiv   %ecx
  416515:	0f b7 75 dc          	movzwl -0x24(%rbp),%esi
  416519:	39 f0                	cmp    %esi,%eax
  41651b:	0f 84 2e 00 00 00    	je     41654f <_ZN5boost6detail18lcast_ret_unsignedISt11char_traitsIcEtcEEbRT0_PKT1_S8_+0x21f>
  416521:	c6 45 db 01          	movb   $0x1,-0x25(%rbp)
  416525:	e9 25 00 00 00       	jmpq   41654f <_ZN5boost6detail18lcast_ret_unsignedISt11char_traitsIcEtcEEbRT0_PKT1_S8_+0x21f>
  41652a:	89 d1                	mov    %edx,%ecx
  41652c:	48 89 45 c8          	mov    %rax,-0x38(%rbp)
  416530:	89 4d c4             	mov    %ecx,-0x3c(%rbp)
  416533:	e9 48 03 00 00       	jmpq   416880 <_ZN5boost6detail18lcast_ret_unsignedISt11char_traitsIcEtcEEbRT0_PKT1_S8_+0x550>
  416538:	48 8d 7d a8          	lea    -0x58(%rbp),%rdi
  41653c:	89 d1                	mov    %edx,%ecx
  41653e:	48 89 45 c8          	mov    %rax,-0x38(%rbp)
  416542:	89 4d c4             	mov    %ecx,-0x3c(%rbp)
  416545:	e8 b6 12 ff ff       	callq  407800 <_ZNSsD1Ev@plt>
  41654a:	e9 31 03 00 00       	jmpq   416880 <_ZN5boost6detail18lcast_ret_unsignedISt11char_traitsIcEtcEEbRT0_PKT1_S8_+0x550>
--
  41656e:	66 89 ca             	mov    %cx,%dx
  416571:	66 89 55 96          	mov    %dx,-0x6a(%rbp)
  416575:	48 8b 45 e0          	mov    -0x20(%rbp),%rax
  416579:	0f be 08             	movsbl (%rax),%ecx
  41657c:	81 f9 30 00 00 00    	cmp    $0x30,%ecx
  416582:	0f 8c 6f 00 00 00    	jl     4165f7 <_ZN5boost6detail18lcast_ret_unsignedISt11char_traitsIcEtcEEbRT0_PKT1_S8_+0x2c7>
  416588:	48 8b 45 e0          	mov    -0x20(%rbp),%rax
  41658c:	0f be 08             	movsbl (%rax),%ecx
  41658f:	81 f9 3a 00 00 00    	cmp    $0x3a,%ecx
  416595:	0f 8d 5c 00 00 00    	jge    4165f7 <_ZN5boost6detail18lcast_ret_unsignedISt11char_traitsIcEtcEEbRT0_PKT1_S8_+0x2c7>
  41659b:	66 81 7d 98 00 00    	cmpw   $0x0,-0x68(%rbp)
  4165a1:	0f 84 17 00 00 00    	je     4165be <_ZN5boost6detail18lcast_ret_unsignedISt11char_traitsIcEtcEEbRT0_PKT1_S8_+0x28e>
--
  4165ab:	0f b7 4d 98          	movzwl -0x68(%rbp),%ecx
  4165af:	99                   	cltd   
  4165b0:	f7 f9                	idiv   %ecx
  4165b2:	0f b7 4d 9a          	movzwl -0x66(%rbp),%ecx
  4165b6:	39 c8                	cmp    %ecx,%eax
  4165b8:	0f 85 39 00 00 00    	jne    4165f7 <_ZN5boost6detail18lcast_ret_unsignedISt11char_traitsIcEtcEEbRT0_PKT1_S8_+0x2c7>
--
  4165cc:	66 89 c8             	mov    %cx,%ax
  4165cf:	0f b7 c8             	movzwl %ax,%ecx
  4165d2:	48 8b 75 f0          	mov    -0x10(%rbp),%rsi
  4165d6:	0f b7 16             	movzwl (%rsi),%edx
  4165d9:	39 d1                	cmp    %edx,%ecx
  4165db:	0f 8c 16 00 00 00    	jl     4165f7 <_ZN5boost6detail18lcast_ret_unsignedISt11char_traitsIcEtcEEbRT0_PKT1_S8_+0x2c7>
  4165e1:	f6 45 db 01          	testb  $0x1,-0x25(%rbp)
  4165e5:	0f 84 1c 00 00 00    	je     416607 <_ZN5boost6detail18lcast_ret_unsignedISt11char_traitsIcEtcEEbRT0_PKT1_S8_+0x2d7>
  4165eb:	66 81 7d 98 00 00    	cmpw   $0x0,-0x68(%rbp)
  4165f1:	0f 84 10 00 00 00    	je     416607 <_ZN5boost6detail18lcast_ret_unsignedISt11char_traitsIcEtcEEbRT0_PKT1_S8_+0x2d7>
  4165f7:	c6 45 ff 00          	movb   $0x0,-0x1(%rbp)
  4165fb:	c7 45 90 01 00 00 00 	movl   $0x1,-0x70(%rbp)
  416602:	e9 01 01 00 00       	jmpq   416708 <_ZN5boost6detail18lcast_ret_unsignedISt11char_traitsIcEtcEEbRT0_PKT1_S8_+0x3d8>
--
  416628:	66 89 ce             	mov    %cx,%si
  41662b:	66 89 75 dc          	mov    %si,-0x24(%rbp)
  41662f:	40 8a 7d 9d          	mov    -0x63(%rbp),%dil
  416633:	40 80 c7 ff          	add    $0xff,%dil
  416637:	40 88 7d 9d          	mov    %dil,-0x63(%rbp)
  41663b:	e9 8a 00 00 00       	jmpq   4166ca <_ZN5boost6detail18lcast_ret_unsignedISt11char_traitsIcEtcEEbRT0_PKT1_S8_+0x39a>
  416640:	48 8d 75 9e          	lea    -0x62(%rbp),%rsi
  416644:	48 8b 7d e0          	mov    -0x20(%rbp),%rdi
  416648:	e8 f3 f4 00 00       	callq  425b40 <_ZNSt11char_traitsIcE2eqERKcS2_665>
  41664d:	a8 01                	test   $0x1,%al
  41664f:	0f 85 09 00 00 00    	jne    41665e <_ZN5boost6detail18lcast_ret_unsignedISt11char_traitsIcEtcEEbRT0_PKT1_S8_+0x32e>
  416655:	c6 45 9c 00          	movb   $0x0,-0x64(%rbp)
  416659:	e9 84 00 00 00       	jmpq   4166e2 <_ZN5boost6detail18lcast_ret_unsignedISt11char_traitsIcEtcEEbRT0_PKT1_S8_+0x3b2>
  41665e:	48 8b 45 e8          	mov    -0x18(%rbp),%rax
  416662:	48 3b 45 e0          	cmp    -0x20(%rbp),%rax
  416666:	0f 85 10 00 00 00    	jne    41667c <_ZN5boost6detail18lcast_ret_unsignedISt11char_traitsIcEtcEEbRT0_PKT1_S8_+0x34c>
  41666c:	c6 45 ff 00          	movb   $0x0,-0x1(%rbp)
  416670:	c7 45 90 01 00 00 00 	movl   $0x1,-0x70(%rbp)
  416677:	e9 8c 00 00 00       	jmpq   416708 <_ZN5boost6detail18lcast_ret_unsignedISt11char_traitsIcEtcEEbRT0_PKT1_S8_+0x3d8>
  41667c:	0f b6 45 9f          	movzbl -0x61(%rbp),%eax
  416680:	89 c1                	mov    %eax,%ecx
  416682:	48 8b 55 a0          	mov    -0x60(%rbp),%rdx
  416686:	48 81 ea 01 00 00 00 	sub    $0x1,%rdx
  41668d:	48 39 d1             	cmp    %rdx,%rcx
  416690:	0f 83 08 00 00 00    	jae    41669e <_ZN5boost6detail18lcast_ret_unsignedISt11char_traitsIcEtcEEbRT0_PKT1_S8_+0x36e>
--
  41669e:	48 8b 7d b0          	mov    -0x50(%rbp),%rdi
  4166a2:	0f b6 45 9f          	movzbl -0x61(%rbp),%eax
  4166a6:	89 c6                	mov    %eax,%esi
  4166a8:	e8 23 14 ff ff       	callq  407ad0 <_ZNKSsixEm@plt>
  4166ad:	48 89 85 50 ff ff ff 	mov    %rax,-0xb0(%rbp)
  4166b4:	e9 00 00 00 00       	jmpq   4166b9 <_ZN5boost6detail18lcast_ret_unsignedISt11char_traitsIcEtcEEbRT0_PKT1_S8_+0x389>
  4166b9:	48 8b 85 50 ff ff ff 	mov    -0xb0(%rbp),%rax
  4166c0:	8a 08                	mov    (%rax),%cl
  4166c2:	88 4d 9d             	mov    %cl,-0x63(%rbp)
  4166c5:	e9 00 00 00 00       	jmpq   4166ca <_ZN5boost6detail18lcast_ret_unsignedISt11char_traitsIcEtcEEbRT0_PKT1_S8_+0x39a>
  4166ca:	e9 00 00 00 00       	jmpq   4166cf <_ZN5boost6detail18lcast_ret_unsignedISt11char_traitsIcEtcEEbRT0_PKT1_S8_+0x39f>
  4166cf:	48 8b 45 e0          	mov    -0x20(%rbp),%rax
  4166d3:	48 05 ff ff ff ff    	add    $0xffffffffffffffff,%rax
  4166d9:	48 89 45 e0          	mov    %rax,-0x20(%rbp)
  4166dd:	e9 f0 fd ff ff       	jmpq   4164d2 <_ZN5boost6detail18lcast_ret_unsignedISt11char_traitsIcEtcEEbRT0_PKT1_S8_+0x1a2>
  4166e2:	f6 45 9c 01          	testb  $0x1,-0x64(%rbp)
  4166e6:	0f 84 10 00 00 00    	je     4166fc <_ZN5boost6detail18lcast_ret_unsignedISt11char_traitsIcEtcEEbRT0_PKT1_S8_+0x3cc>
  4166ec:	c6 45 ff 01          	movb   $0x1,-0x1(%rbp)
  4166f0:	c7 45 90 01 00 00 00 	movl   $0x1,-0x70(%rbp)
  4166f7:	e9 0c 00 00 00       	jmpq   416708 <_ZN5boost6detail18lcast_ret_unsignedISt11char_traitsIcEtcEEbRT0_PKT1_S8_+0x3d8>
  4166fc:	e9 00 00 00 00       	jmpq   416701 <_ZN5boost6detail18lcast_ret_unsignedISt11char_traitsIcEtcEEbRT0_PKT1_S8_+0x3d1>
  416701:	c7 45 90 00 00 00 00 	movl   $0x0,-0x70(%rbp)
  416708:	48 8d 7d a8          	lea    -0x58(%rbp),%rdi
  41670c:	e8 ef 10 ff ff       	callq  407800 <_ZNSsD1Ev@plt>
  416711:	8b 45 90             	mov    -0x70(%rbp),%eax
  416714:	85 c0                	test   %eax,%eax
  416716:	0f 85 56 01 00 00    	jne    416872 <_ZN5boost6detail18lcast_ret_unsignedISt11char_traitsIcEtcEEbRT0_PKT1_S8_+0x542>
  41671c:	e9 00 00 00 00       	jmpq   416721 <_ZN5boost6detail18lcast_ret_unsignedISt11char_traitsIcEtcEEbRT0_PKT1_S8_+0x3f1>
  416721:	e9 00 00 00 00       	jmpq   416726 <_ZN5boost6detail18lcast_ret_unsignedISt11char_traitsIcEtcEEbRT0_PKT1_S8_+0x3f6>
  416726:	e9 00 00 00 00       	jmpq   41672b <_ZN5boost6detail18lcast_ret_unsignedISt11char_traitsIcEtcEEbRT0_PKT1_S8_+0x3fb>
  41672b:	48 8b 45 e8          	mov    -0x18(%rbp),%rax
  41672f:	48 3b 45 e0          	cmp    -0x20(%rbp),%rax
  416733:	0f 87 2e 01 00 00    	ja     416867 <_ZN5boost6detail18lcast_ret_unsignedISt11char_traitsIcEtcEEbRT0_PKT1_S8_+0x537>
--
  41675b:	99                   	cltd   
  41675c:	8b 8d 4c ff ff ff    	mov    -0xb4(%rbp),%ecx
  416762:	f7 f9                	idiv   %ecx
  416764:	0f b7 75 dc          	movzwl -0x24(%rbp),%esi
  416768:	39 f0                	cmp    %esi,%eax
  41676a:	0f 84 04 00 00 00    	je     416774 <_ZN5boost6detail18lcast_ret_unsignedISt11char_traitsIcEtcEEbRT0_PKT1_S8_+0x444>
--
  416793:	66 89 ca             	mov    %cx,%dx
  416796:	66 89 55 8a          	mov    %dx,-0x76(%rbp)
  41679a:	48 8b 45 e0          	mov    -0x20(%rbp),%rax
  41679e:	0f be 08             	movsbl (%rax),%ecx
  4167a1:	81 f9 30 00 00 00    	cmp    $0x30,%ecx
  4167a7:	0f 8c 6f 00 00 00    	jl     41681c <_ZN5boost6detail18lcast_ret_unsignedISt11char_traitsIcEtcEEbRT0_PKT1_S8_+0x4ec>
  4167ad:	48 8b 45 e0          	mov    -0x20(%rbp),%rax
  4167b1:	0f be 08             	movsbl (%rax),%ecx
  4167b4:	81 f9 3a 00 00 00    	cmp    $0x3a,%ecx
  4167ba:	0f 8d 5c 00 00 00    	jge    41681c <_ZN5boost6detail18lcast_ret_unsignedISt11char_traitsIcEtcEEbRT0_PKT1_S8_+0x4ec>
  4167c0:	66 81 7d 8c 00 00    	cmpw   $0x0,-0x74(%rbp)
  4167c6:	0f 84 17 00 00 00    	je     4167e3 <_ZN5boost6detail18lcast_ret_unsignedISt11char_traitsIcEtcEEbRT0_PKT1_S8_+0x4b3>
--
  4167d0:	0f b7 4d 8c          	movzwl -0x74(%rbp),%ecx
  4167d4:	99                   	cltd   
  4167d5:	f7 f9                	idiv   %ecx
  4167d7:	0f b7 4d 8e          	movzwl -0x72(%rbp),%ecx
  4167db:	39 c8                	cmp    %ecx,%eax
  4167dd:	0f 85 39 00 00 00    	jne    41681c <_ZN5boost6detail18lcast_ret_unsignedISt11char_traitsIcEtcEEbRT0_PKT1_S8_+0x4ec>
--
  4167f1:	66 89 c8             	mov    %cx,%ax
  4167f4:	0f b7 c8             	movzwl %ax,%ecx
  4167f7:	48 8b 75 f0          	mov    -0x10(%rbp),%rsi
  4167fb:	0f b7 16             	movzwl (%rsi),%edx
  4167fe:	39 d1                	cmp    %edx,%ecx
  416800:	0f 8c 16 00 00 00    	jl     41681c <_ZN5boost6detail18lcast_ret_unsignedISt11char_traitsIcEtcEEbRT0_PKT1_S8_+0x4ec>
  416806:	f6 45 db 01          	testb  $0x1,-0x25(%rbp)
  41680a:	0f 84 1c 00 00 00    	je     41682c <_ZN5boost6detail18lcast_ret_unsignedISt11char_traitsIcEtcEEbRT0_PKT1_S8_+0x4fc>
  416810:	66 81 7d 8c 00 00    	cmpw   $0x0,-0x74(%rbp)
  416816:	0f 84 10 00 00 00    	je     41682c <_ZN5boost6detail18lcast_ret_unsignedISt11char_traitsIcEtcEEbRT0_PKT1_S8_+0x4fc>
  41681c:	c6 45 ff 00          	movb   $0x0,-0x1(%rbp)
  416820:	c7 45 90 01 00 00 00 	movl   $0x1,-0x70(%rbp)
  416827:	e9 46 00 00 00       	jmpq   416872 <_ZN5boost6detail18lcast_ret_unsignedISt11char_traitsIcEtcEEbRT0_PKT1_S8_+0x542>
--
  41684d:	66 89 ce             	mov    %cx,%si
  416850:	66 89 75 dc          	mov    %si,-0x24(%rbp)
  416854:	48 8b 45 e0          	mov    -0x20(%rbp),%rax
  416858:	48 05 ff ff ff ff    	add    $0xffffffffffffffff,%rax
  41685e:	48 89 45 e0          	mov    %rax,-0x20(%rbp)
  416862:	e9 c4 fe ff ff       	jmpq   41672b <_ZN5boost6detail18lcast_ret_unsignedISt11char_traitsIcEtcEEbRT0_PKT1_S8_+0x3fb>
  416867:	c6 45 ff 01          	movb   $0x1,-0x1(%rbp)
  41686b:	c7 45 90 01 00 00 00 	movl   $0x1,-0x70(%rbp)
  416872:	48 8d 7d d0          	lea    -0x30(%rbp),%rdi
  416876:	e8 f5 13 ff ff       	callq  407c70 <_ZNSt6localeD1Ev@plt>
  41687b:	e9 0e 00 00 00       	jmpq   41688e <_ZN5boost6detail18lcast_ret_unsignedISt11char_traitsIcEtcEEbRT0_PKT1_S8_+0x55e>
  416880:	48 8d 7d d0          	lea    -0x30(%rbp),%rdi
  416884:	e8 e7 13 ff ff       	callq  407c70 <_ZNSt6localeD1Ev@plt>
  416889:	e9 11 00 00 00       	jmpq   41689f <_ZN5boost6detail18lcast_ret_unsignedISt11char_traitsIcEtcEEbRT0_PKT1_S8_+0x56f>
  41688e:	8a 45 ff             	mov    -0x1(%rbp),%al
  416891:	24 01                	and    $0x1,%al
  416893:	0f b6 c0             	movzbl %al,%eax
  416896:	48 81 c4 c0 00 00 00 	add    $0xc0,%rsp
  41689d:	5d                   	pop    %rbp
  41689e:	c3                   	retq   
--
  4168cd:	34 01                	xor    $0x1,%al
  4168cf:	24 01                	and    $0x1,%al
  4168d1:	0f b6 c0             	movzbl %al,%eax
  4168d4:	48 83 c4 10          	add    $0x10,%rsp
  4168d8:	5d                   	pop    %rbp
  4168d9:	c3                   	retq   
--
  4168e0:	55                   	push   %rbp
  4168e1:	48 89 e5             	mov    %rsp,%rbp
  4168e4:	66 b8 ff ff          	mov    $0xffff,%ax
  4168e8:	0f b7 c0             	movzwl %ax,%eax
  4168eb:	5d                   	pop    %rbp
  4168ec:	c3                   	retq   
--
  416917:	48 89 c6             	mov    %rax,%rsi
  41691a:	e8 71 90 00 00       	callq  41f990 <_ZSt4swapIPN5boost3any11placeholderEEvRT_S5_352>
  41691f:	48 8b 45 e0          	mov    -0x20(%rbp),%rax
  416923:	48 83 c4 20          	add    $0x20,%rsp
  416927:	5d                   	pop    %rbp
  416928:	c3                   	retq   
--
  41696c:	48 8b 00             	mov    (%rax),%rax
  41696f:	48 8b 75 f0          	mov    -0x10(%rbp),%rsi
  416973:	48 89 06             	mov    %rax,(%rsi)
  416976:	48 83 c4 20          	add    $0x20,%rsp
  41697a:	5d                   	pop    %rbp
  41697b:	c3                   	retq   
--
  416980:	55                   	push   %rbp
  416981:	48 89 e5             	mov    %rsp,%rbp
  416984:	48 89 7d f8          	mov    %rdi,-0x8(%rbp)
  416988:	48 8b 45 f8          	mov    -0x8(%rbp),%rax
  41698c:	5d                   	pop    %rbp
  41698d:	c3                   	retq   
--
  4169ba:	48 8b 75 f8          	mov    -0x8(%rbp),%rsi
  4169be:	48 8d 8d 40 ff ff ff 	lea    -0xc0(%rbp),%rcx
  4169c5:	48 89 bd 28 ff ff ff 	mov    %rdi,-0xd8(%rbp)
  4169cc:	48 89 cf             	mov    %rcx,%rdi
  4169cf:	48 89 85 20 ff ff ff 	mov    %rax,-0xe0(%rbp)
  4169d6:	e8 d5 ef 00 00       	callq  4259b0 <_ZN5boost17enable_error_infoINS_15program_options16validation_errorEEENS_16exception_detail29enable_error_info_return_typeIT_E4typeERKS5_660>
--
  416af2:	48 81 c7 10 00 00 00 	add    $0x10,%rdi
  416af9:	48 8b 45 b0          	mov    -0x50(%rbp),%rax
  416afd:	48 89 38             	mov    %rdi,(%rax)
  416b00:	48 83 c4 50          	add    $0x50,%rsp
  416b04:	5d                   	pop    %rbp
  416b05:	c3                   	retq   
--
  416b45:	48 8d 7d f0          	lea    -0x10(%rbp),%rdi
  416b49:	48 89 45 f0          	mov    %rax,-0x10(%rbp)
  416b4d:	e8 4e 9c 00 00       	callq  4207a0 <_ZNK9__gnu_cxx17__normal_iteratorIPKSsSt6vectorISsSaISsEEEdeEv399>
  416b52:	48 83 c4 10          	add    $0x10,%rsp
  416b56:	5d                   	pop    %rbp
  416b57:	c3                   	retq   
--
  416b73:	48 89 45 f0          	mov    %rax,-0x10(%rbp)
  416b77:	e8 94 b0 00 00       	callq  421c10 <_ZN5boost16exception_detail10clone_implINS0_19error_info_injectorINS_15program_options16validation_errorEEEEC1ERKS5_443>
  416b7c:	48 8b 45 f0          	mov    -0x10(%rbp),%rax
  416b80:	48 83 c4 10          	add    $0x10,%rsp
  416b84:	5d                   	pop    %rbp
  416b85:	c3                   	retq   
  416b86:	66 2e 0f 1f 84 00 00 	nopw   %cs:0x0(%rax,%rax,1)
  416b8d:	00 00 00 

0000000000416b90 <_ZN5boost17enable_error_infoINS_15program_options16validation_errorEEENS_16exception_detail29enable_error_info_return_typeIT_E4typeERKS5_>:
--
  416ba3:	48 89 45 f0          	mov    %rax,-0x10(%rbp)
  416ba7:	e8 d4 f3 00 00       	callq  425f80 <_ZN5boost16exception_detail19error_info_injectorINS_15program_options16validation_errorEEC2ERKS3_677>
  416bac:	48 8b 45 f0          	mov    -0x10(%rbp),%rax
  416bb0:	48 83 c4 10          	add    $0x10,%rsp
  416bb4:	5d                   	pop    %rbp
  416bb5:	c3                   	retq   
--
  416be4:	48 81 c6 b8 00 00 00 	add    $0xb8,%rsi
  416beb:	48 89 f7             	mov    %rsi,%rdi
  416bee:	e8 3d 90 00 00       	callq  41fc30 <_ZN5boost16exception_detail10clone_baseD2Ev363>
  416bf3:	48 83 c4 10          	add    $0x10,%rsp
  416bf7:	5d                   	pop    %rbp
  416bf8:	c3                   	retq   
--
  416c25:	48 8b 45 f0          	mov    -0x10(%rbp),%rax
  416c29:	48 89 c7             	mov    %rax,%rdi
  416c2c:	e8 af 2e 00 00       	callq  419ae0 <_ZN5boost15program_options16validation_errorD2Ev48>
  416c31:	48 83 c4 10          	add    $0x10,%rsp
  416c35:	5d                   	pop    %rbp
  416c36:	c3                   	retq   
--
  416c4c:	48 8b 7d f8          	mov    -0x8(%rbp),%rdi
  416c50:	48 81 c7 70 ff ff ff 	add    $0xffffffffffffff70,%rdi
  416c57:	e8 34 51 00 00       	callq  41bd90 <_ZN5boost16exception_detail19error_info_injectorINS_15program_options16validation_errorEED2Ev163>
  416c5c:	48 83 c4 10          	add    $0x10,%rsp
  416c60:	5d                   	pop    %rbp
  416c61:	c3                   	retq   
--
  416c80:	48 8b 75 f8          	mov    -0x8(%rbp),%rsi
  416c84:	48 89 f7             	mov    %rsi,%rdi
  416c87:	e8 04 51 00 00       	callq  41bd90 <_ZN5boost16exception_detail19error_info_injectorINS_15program_options16validation_errorEED2Ev163>
  416c8c:	48 83 c4 10          	add    $0x10,%rsp
  416c90:	5d                   	pop    %rbp
  416c91:	c3                   	retq   
--
  416cac:	48 8b 7d f8          	mov    -0x8(%rbp),%rdi
  416cb0:	48 81 c7 70 ff ff ff 	add    $0xffffffffffffff70,%rdi
  416cb7:	e8 44 2e 00 00       	callq  419b00 <_ZN5boost16exception_detail10clone_implINS0_19error_info_injectorINS_15program_options16validation_errorEEEED1Ev49>
  416cbc:	48 83 c4 10          	add    $0x10,%rsp
  416cc0:	5d                   	pop    %rbp
  416cc1:	c3                   	retq   
--
  416ce6:	48 03 47 d8          	add    -0x28(%rdi),%rax
  416cea:	48 89 c7             	mov    %rax,%rdi
  416ced:	e8 0e 2e 00 00       	callq  419b00 <_ZN5boost16exception_detail10clone_implINS0_19error_info_injectorINS_15program_options16validation_errorEEEED1Ev49>
  416cf2:	48 83 c4 10          	add    $0x10,%rsp
  416cf6:	5d                   	pop    %rbp
  416cf7:	c3                   	retq   
--
  416d14:	e8 e7 2d 00 00       	callq  419b00 <_ZN5boost16exception_detail10clone_implINS0_19error_info_injectorINS_15program_options16validation_errorEEEED1Ev49>
  416d19:	48 8b 7d f0          	mov    -0x10(%rbp),%rdi
  416d1d:	e8 4e 09 ff ff       	callq  407670 <_ZdlPv@plt>
  416d22:	48 83 c4 10          	add    $0x10,%rsp
  416d26:	5d                   	pop    %rbp
  416d27:	c3                   	retq   
--
  416d92:	48 01 c8             	add    %rcx,%rax
  416d95:	48 89 45 c0          	mov    %rax,-0x40(%rbp)
  416d99:	48 8b 45 c0          	mov    -0x40(%rbp),%rax
  416d9d:	48 83 c4 40          	add    $0x40,%rsp
  416da1:	5d                   	pop    %rbp
  416da2:	c3                   	retq   
--
  416db0:	e8 bb 08 ff ff       	callq  407670 <_ZdlPv@plt>
  416db5:	48 8b 7d e8          	mov    -0x18(%rbp),%rdi
  416db9:	e8 a2 0e ff ff       	callq  407c60 <_Unwind_Resume@plt>
  416dbe:	66 90                	xchg   %ax,%ax

0000000000416dc0 <_ZNK5boost16exception_detail10clone_implINS0_19error_info_injectorINS_15program_options16validation_errorEEEE7rethrowEv>:
--
  416ddf:	48 89 c1             	mov    %rax,%rcx
  416de2:	48 89 c7             	mov    %rax,%rdi
  416de5:	48 8b 75 e0          	mov    -0x20(%rbp),%rsi
  416de9:	48 89 4d d8          	mov    %rcx,-0x28(%rbp)
  416ded:	e8 2e ca 00 00       	callq  423820 <_ZN5boost16exception_detail10clone_implINS0_19error_info_injectorINS_15program_options16validation_errorEEEEC1ERKS6_539>
  416df2:	e9 00 00 00 00       	jmpq   416df7 <_ZNK5boost16exception_detail10clone_implINS0_19error_info_injectorINS_15program_options16validation_errorEEEE7rethrowEv+0x37>
--
  416e3c:	48 8b 7d f8          	mov    -0x8(%rbp),%rdi
  416e40:	48 81 c7 70 ff ff ff 	add    $0xffffffffffffff70,%rdi
  416e47:	e8 64 44 00 00       	callq  41b2b0 <_ZN5boost16exception_detail10clone_implINS0_19error_info_injectorINS_15program_options16validation_errorEEEED0Ev116>
  416e4c:	48 83 c4 10          	add    $0x10,%rsp
  416e50:	5d                   	pop    %rbp
  416e51:	c3                   	retq   
--
  416e76:	48 03 47 e8          	add    -0x18(%rdi),%rax
  416e7a:	48 89 c7             	mov    %rax,%rdi
  416e7d:	e8 be b5 00 00       	callq  422440 <_ZNK5boost16exception_detail10clone_implINS0_19error_info_injectorINS_15program_options16validation_errorEEEE5cloneEv466>
  416e82:	48 83 c4 10          	add    $0x10,%rsp
  416e86:	5d                   	pop    %rbp
  416e87:	c3                   	retq   
  416e88:	0f 1f 84 00 00 00 00 	nopl   0x0(%rax,%rax,1)
  416e8f:	00 

0000000000416e90 <_ZTv0_n32_NK5boost16exception_detail10clone_implINS0_19error_info_injectorINS_15program_options16validation_errorEEEE7rethrowEv>:
--
  416e9c:	48 8b 7d f8          	mov    -0x8(%rbp),%rdi
  416ea0:	48 89 f8             	mov    %rdi,%rax
  416ea3:	48 8b 3f             	mov    (%rdi),%rdi
  416ea6:	48 03 47 e0          	add    -0x20(%rdi),%rax
  416eaa:	48 89 c7             	mov    %rax,%rdi
  416ead:	e8 1e 48 00 00       	callq  41b6d0 <_ZNK5boost16exception_detail10clone_implINS0_19error_info_injectorINS_15program_options16validation_errorEEEE7rethrowEv135>
  416eb2:	48 83 c4 10          	add    $0x10,%rsp
  416eb6:	5d                   	pop    %rbp
  416eb7:	c3                   	retq   
--
  416ed6:	48 03 47 d8          	add    -0x28(%rdi),%rax
  416eda:	48 89 c7             	mov    %rax,%rdi
  416edd:	e8 ce 43 00 00       	callq  41b2b0 <_ZN5boost16exception_detail10clone_implINS0_19error_info_injectorINS_15program_options16validation_errorEEEED0Ev116>
  416ee2:	48 83 c4 10          	add    $0x10,%rsp
  416ee6:	5d                   	pop    %rbp
  416ee7:	c3                   	retq   
--
  416f5a:	48 89 06             	mov    %rax,(%rsi)
  416f5d:	48 89 96 90 00 00 00 	mov    %rdx,0x90(%rsi)
  416f64:	48 89 8e b8 00 00 00 	mov    %rcx,0xb8(%rsi)
  416f6b:	48 83 c4 30          	add    $0x30,%rsp
  416f6f:	5d                   	pop    %rbp
  416f70:	c3                   	retq   
--
  416fff:	48 8b 55 d8          	mov    -0x28(%rbp),%rdx
  417003:	48 89 02             	mov    %rax,(%rdx)
  417006:	48 89 8a 90 00 00 00 	mov    %rcx,0x90(%rdx)
  41700d:	48 83 c4 30          	add    $0x30,%rsp
  417011:	5d                   	pop    %rbp
  417012:	c3                   	retq   
--
  417054:	e8 37 4d 00 00       	callq  41bd90 <_ZN5boost16exception_detail19error_info_injectorINS_15program_options16validation_errorEED2Ev163>
  417059:	48 8b 7d f0          	mov    -0x10(%rbp),%rdi
  41705d:	e8 0e 06 ff ff       	callq  407670 <_ZdlPv@plt>
  417062:	48 83 c4 10          	add    $0x10,%rsp
  417066:	5d                   	pop    %rbp
  417067:	c3                   	retq   
--
  41707c:	48 8b 7d f8          	mov    -0x8(%rbp),%rdi
  417080:	48 81 c7 70 ff ff ff 	add    $0xffffffffffffff70,%rdi
  417087:	e8 74 ef 00 00       	callq  426000 <_ZN5boost16exception_detail19error_info_injectorINS_15program_options16validation_errorEED0Ev678>
  41708c:	48 83 c4 10          	add    $0x10,%rsp
  417090:	5d                   	pop    %rbp
  417091:	c3                   	retq   
--
  41714e:	48 89 c6             	mov    %rax,%rsi
  417151:	e8 aa 79 00 00       	callq  41eb00 <_ZN5boost16exception_detail20copy_boost_exceptionEPNS_9exceptionEPKS1_315>
  417156:	e9 00 00 00 00       	jmpq   41715b <_ZN5boost16exception_detail10clone_implINS0_19error_info_injectorINS_15program_options16validation_errorEEEEC1ERKS6_NS6_9clone_tagE+0xbb>
  41715b:	48 83 c4 50          	add    $0x50,%rsp
  41715f:	5d                   	pop    %rbp
  417160:	c3                   	retq   
--
  4171ec:	48 8b 55 d8          	mov    -0x28(%rbp),%rdx
  4171f0:	48 89 02             	mov    %rax,(%rdx)
  4171f3:	48 89 8a 90 00 00 00 	mov    %rcx,0x90(%rdx)
  4171fa:	48 83 c4 30          	add    $0x30,%rsp
  4171fe:	5d                   	pop    %rbp
  4171ff:	c3                   	retq   
--
  4172ce:	48 89 c6             	mov    %rax,%rsi
  4172d1:	e8 2a 78 00 00       	callq  41eb00 <_ZN5boost16exception_detail20copy_boost_exceptionEPNS_9exceptionEPKS1_315>
  4172d6:	e9 00 00 00 00       	jmpq   4172db <_ZN5boost16exception_detail10clone_implINS0_19error_info_injectorINS_15program_options16validation_errorEEEEC1ERKS5_+0xbb>
  4172db:	48 83 c4 40          	add    $0x40,%rsp
  4172df:	5d                   	pop    %rbp
  4172e0:	c3                   	retq   
--
  41736f:	48 8b 45 e0          	mov    -0x20(%rbp),%rax
  417373:	48 8b 4d e8          	mov    -0x18(%rbp),%rcx
  417377:	48 89 01             	mov    %rax,(%rcx)
  41737a:	48 83 c4 20          	add    $0x20,%rsp
  41737e:	5d                   	pop    %rbp
  41737f:	c3                   	retq   
--
  4173b0:	0f 94 c1             	sete   %cl
  4173b3:	80 e1 01             	and    $0x1,%cl
  4173b6:	0f b6 c1             	movzbl %cl,%eax
  4173b9:	48 83 c4 20          	add    $0x20,%rsp
  4173bd:	5d                   	pop    %rbp
  4173be:	c3                   	retq   
--
  4173c8:	48 89 7d f8          	mov    %rdi,-0x8(%rbp)
  4173cc:	e8 9f 78 00 00       	callq  41ec70 <_ZN5boost9function1IvRKtE5clearEv318>
  4173d1:	e9 00 00 00 00       	jmpq   4173d6 <_ZN5boost9function1IvRKtED2Ev+0x16>
  4173d6:	48 83 c4 10          	add    $0x10,%rsp
  4173da:	5d                   	pop    %rbp
  4173db:	c3                   	retq   
--
  417444:	e8 37 42 00 00       	callq  41b680 <_ZNK5boost6detail8function13basic_vtable1IvRKtE5clearERNS1_15function_bufferE134>
  417449:	48 8b 45 f0          	mov    -0x10(%rbp),%rax
  41744d:	48 c7 00 00 00 00 00 	movq   $0x0,(%rax)
  417454:	48 83 c4 20          	add    $0x20,%rsp
  417458:	5d                   	pop    %rbp
  417459:	c3                   	retq   
--
  417468:	48 8b 7d f8          	mov    -0x8(%rbp),%rdi
  41746c:	48 8b 3f             	mov    (%rdi),%rdi
  41746f:	48 81 e7 fe ff ff ff 	and    $0xfffffffffffffffe,%rdi
  417476:	48 89 f8             	mov    %rdi,%rax
  417479:	5d                   	pop    %rbp
  41747a:	c3                   	retq   
--
  4174b1:	48 8b 7d f0          	mov    -0x10(%rbp),%rdi
  4174b5:	48 8b 75 f0          	mov    -0x10(%rbp),%rsi
  4174b9:	ff d1                	callq  *%rcx
  4174bb:	48 83 c4 20          	add    $0x20,%rsp
  4174bf:	5d                   	pop    %rbp
  4174c0:	c3                   	retq   
--
  4174d8:	48 89 7d f8          	mov    %rdi,-0x8(%rbp)
  4174dc:	48 8b 7d f8          	mov    -0x8(%rbp),%rdi
  4174e0:	e8 1b 49 00 00       	callq  41be00 <_ZN5boost8any_castItEEPT_PNS_3anyE165>
  4174e5:	48 83 c4 10          	add    $0x10,%rsp
  4174e9:	5d                   	pop    %rbp
  4174ea:	c3                   	retq   
--
  41750c:	89 ca                	mov    %ecx,%edx
  41750e:	48 0f 45 fa          	cmovne %rdx,%rdi
  417512:	48 89 f8             	mov    %rdi,%rax
  417515:	48 83 c4 10          	add    $0x10,%rsp
  417519:	5d                   	pop    %rbp
  41751a:	c3                   	retq   
--
  417593:	48 81 c7 08 00 00 00 	add    $0x8,%rdi
  41759a:	48 8b 75 f0          	mov    -0x10(%rbp),%rsi
  41759e:	ff d0                	callq  *%rax
  4175a0:	48 83 c4 40          	add    $0x40,%rsp
  4175a4:	5d                   	pop    %rbp
  4175a5:	c3                   	retq   
--
  4175c3:	0f 95 c0             	setne  %al
