  40755c:	48 8b 05 1d 2a 23 00 	mov    0x232a1d(%rip),%rax        # 639f80 <_DYNAMIC+0x248>
  407563:	48 85 c0             	test   %rax,%rax
  407566:	74 05                	je     40756d <_init+0x15>
  407568:	e8 e3 00 00 00       	callq  407650 <__gmon_start__@plt>
  40756d:	48 83 c4 08          	add    $0x8,%rsp
  407571:	c3                   	retq   
--
00000000004076c0 <_ZN5boost15program_options19options_description11add_optionsEv@plt>:
  4076c0:	ff 25 ea 29 23 00    	jmpq   *0x2329ea(%rip)        # 63a0b0 <_GLOBAL_OFFSET_TABLE_+0xb0>
  4076c6:	68 13 00 00 00       	pushq  $0x13
  4076cb:	e9 b0 fe ff ff       	jmpq   407580 <_init+0x28>

00000000004076d0 <__cxa_rethrow@plt>:
--
  407cf2:	48 8d 15 c7 26 23 00 	lea    0x2326c7(%rip),%rdx        # 63a3c0 <__dso_handle>
  407cf9:	e8 a2 fa ff ff       	callq  4077a0 <__cxa_atexit@plt>
  407cfe:	89 45 fc             	mov    %eax,-0x4(%rbp)
  407d01:	48 83 c4 10          	add    $0x10,%rsp
  407d05:	5d                   	pop    %rbp
  407d06:	c3                   	retq   
--
  407d10:	55                   	push   %rbp
  407d11:	48 89 e5             	mov    %rsp,%rbp
  407d14:	e8 a7 ff ff ff       	callq  407cc0 <_ZN5boost6system16generic_categoryEv@plt>
  407d19:	48 89 05 d0 26 23 00 	mov    %rax,0x2326d0(%rip)        # 63a3f0 <_ZN5boost6systemL14posix_categoryE>
  407d20:	5d                   	pop    %rbp
  407d21:	c3                   	retq   
--
  407d30:	55                   	push   %rbp
  407d31:	48 89 e5             	mov    %rsp,%rbp
  407d34:	e8 87 ff ff ff       	callq  407cc0 <_ZN5boost6system16generic_categoryEv@plt>
  407d39:	48 89 05 b8 26 23 00 	mov    %rax,0x2326b8(%rip)        # 63a3f8 <_ZN5boost6systemL10errno_ecatE>
  407d40:	5d                   	pop    %rbp
  407d41:	c3                   	retq   
--
  407d50:	55                   	push   %rbp
  407d51:	48 89 e5             	mov    %rsp,%rbp
  407d54:	e8 d7 fa ff ff       	callq  407830 <_ZN5boost6system15system_categoryEv@plt>
  407d59:	48 89 05 a0 26 23 00 	mov    %rax,0x2326a0(%rip)        # 63a400 <_ZN5boost6systemL11native_ecatE>
  407d60:	5d                   	pop    %rbp
  407d61:	c3                   	retq   
--
  407d74:	e8 57 00 00 00       	callq  407dd0 <__cxx_global_var_init166>
  407d79:	e8 32 00 00 00       	callq  407db0 <__cxx_global_var_init133>
  407d7e:	e8 0d 00 00 00       	callq  407d90 <__cxx_global_var_init22>
  407d83:	e8 a8 00 00 00       	callq  407e30 <__cxx_global_var_init3611>
  407d88:	5d                   	pop    %rbp
  407d89:	c3                   	retq   
--
  407d90:	55                   	push   %rbp
  407d91:	48 89 e5             	mov    %rsp,%rbp
  407d94:	e8 27 ff ff ff       	callq  407cc0 <_ZN5boost6system16generic_categoryEv@plt>
  407d99:	48 89 05 58 26 23 00 	mov    %rax,0x232658(%rip)        # 63a3f8 <_ZN5boost6systemL10errno_ecatE>
  407da0:	5d                   	pop    %rbp
  407da1:	c3                   	retq   
--
  407db0:	55                   	push   %rbp
  407db1:	48 89 e5             	mov    %rsp,%rbp
  407db4:	e8 07 ff ff ff       	callq  407cc0 <_ZN5boost6system16generic_categoryEv@plt>
  407db9:	48 89 05 30 26 23 00 	mov    %rax,0x232630(%rip)        # 63a3f0 <_ZN5boost6systemL14posix_categoryE>
  407dc0:	5d                   	pop    %rbp
  407dc1:	c3                   	retq   
--
  407df2:	48 8d 15 c7 25 23 00 	lea    0x2325c7(%rip),%rdx        # 63a3c0 <__dso_handle>
  407df9:	e8 a2 f9 ff ff       	callq  4077a0 <__cxa_atexit@plt>
  407dfe:	89 45 fc             	mov    %eax,-0x4(%rbp)
  407e01:	48 83 c4 10          	add    $0x10,%rsp
  407e05:	5d                   	pop    %rbp
  407e06:	c3                   	retq   
--
  407e14:	e8 b7 ff ff ff       	callq  407dd0 <__cxx_global_var_init166>
  407e19:	e8 92 ff ff ff       	callq  407db0 <__cxx_global_var_init133>
  407e1e:	e8 6d ff ff ff       	callq  407d90 <__cxx_global_var_init22>
  407e23:	e8 08 00 00 00       	callq  407e30 <__cxx_global_var_init3611>
  407e28:	5d                   	pop    %rbp
  407e29:	c3                   	retq   
--
  407e30:	55                   	push   %rbp
  407e31:	48 89 e5             	mov    %rsp,%rbp
  407e34:	e8 f7 f9 ff ff       	callq  407830 <_ZN5boost6system15system_categoryEv@plt>
  407e39:	48 89 05 c0 25 23 00 	mov    %rax,0x2325c0(%rip)        # 63a400 <_ZN5boost6systemL11native_ecatE>
  407e40:	5d                   	pop    %rbp
  407e41:	c3                   	retq   
--
  407e76:	48 2d e0 a3 63 00    	sub    $0x63a3e0,%rax
  407e7c:	48 83 f8 0e          	cmp    $0xe,%rax
  407e80:	48 89 e5             	mov    %rsp,%rbp
  407e83:	77 02                	ja     407e87 <deregister_tm_clones+0x17>
  407e85:	5d                   	pop    %rbp
  407e86:	c3                   	retq   
--
  407eb6:	48 c1 ea 3f          	shr    $0x3f,%rdx
  407eba:	48 01 d0             	add    %rdx,%rax
  407ebd:	48 d1 f8             	sar    %rax
  407ec0:	75 02                	jne    407ec4 <register_tm_clones+0x24>
  407ec2:	5d                   	pop    %rbp
  407ec3:	c3                   	retq   
--
  407ee9:	55                   	push   %rbp
  407eea:	48 89 e5             	mov    %rsp,%rbp
  407eed:	e8 7e ff ff ff       	callq  407e70 <deregister_tm_clones>
  407ef2:	5d                   	pop    %rbp
  407ef3:	c6 05 e6 24 23 00 01 	movb   $0x1,0x2324e6(%rip)        # 63a3e0 <__TMC_END__>
  407efa:	f3 c3                	repz retq 
--
  407f6e:	48 8d 7d e8          	lea    -0x18(%rbp),%rdi
  407f72:	e8 09 2c 00 00       	callq  40ab80 <_ZL10RunServiceR6Config634>
  407f77:	31 c0                	xor    %eax,%eax
  407f79:	48 83 c4 20          	add    $0x20,%rsp
  407f7d:	5d                   	pop    %rbp
  407f7e:	c3                   	retq   
--
  408b14:	e8 47 a3 01 00       	callq  422e60 <_ZN5boost15program_options19options_descriptionD2Ev500>
  408b19:	48 8d bd 78 fe ff ff 	lea    -0x188(%rbp),%rdi
  408b20:	e8 7b f0 ff ff       	callq  407ba0 <_ZNSt18basic_stringstreamIcSt11char_traitsIcESaIcEED1Ev@plt>
  408b25:	48 81 c4 10 07 00 00 	add    $0x710,%rsp
  408b2c:	5d                   	pop    %rbp
  408b2d:	c3                   	retq   
--
  4093f3:	e9 05 00 00 00       	jmpq   4093fd <_ZL10RunServiceR6Config+0x81d>
  4093f8:	e9 d5 ff ff ff       	jmpq   4093d2 <_ZL10RunServiceR6Config+0x7f2>
  4093fd:	e9 d0 fc ff ff       	jmpq   4090d2 <_ZL10RunServiceR6Config+0x4f2>
  409402:	48 81 c4 70 02 00 00 	add    $0x270,%rsp
  409409:	5d                   	pop    %rbp
  40940a:	c3                   	retq   
--
  409630:	48 8b 55 f0          	mov    -0x10(%rbp),%rdx
  409634:	e8 37 14 00 00       	callq  40aa70 <_ZL10WriteBytesiPKcm520>
  409639:	88 85 3f fb ff ff    	mov    %al,-0x4c1(%rbp)
  40963f:	48 81 c4 d0 04 00 00 	add    $0x4d0,%rsp
  409646:	5d                   	pop    %rbp
  409647:	c3                   	retq   
--
  409795:	8a 45 ff             	mov    -0x1(%rbp),%al
  409798:	24 01                	and    $0x1,%al
  40979a:	0f b6 c0             	movzbl %al,%eax
  40979d:	48 83 c4 60          	add    $0x60,%rsp
  4097a1:	5d                   	pop    %rbp
  4097a2:	c3                   	retq   
--
  40989f:	8a 45 ff             	mov    -0x1(%rbp),%al
  4098a2:	24 01                	and    $0x1,%al
  4098a4:	0f b6 c0             	movzbl %al,%eax
  4098a7:	48 83 c4 60          	add    $0x60,%rsp
  4098ab:	5d                   	pop    %rbp
  4098ac:	c3                   	retq   
--
  40997e:	8a 45 ff             	mov    -0x1(%rbp),%al
  409981:	24 01                	and    $0x1,%al
  409983:	0f b6 c0             	movzbl %al,%eax
  409986:	48 83 c4 50          	add    $0x50,%rsp
  40998a:	5d                   	pop    %rbp
  40998b:	c3                   	retq   
--
  40a5a4:	e8 b7 88 01 00       	callq  422e60 <_ZN5boost15program_options19options_descriptionD2Ev500>
  40a5a9:	48 8d bd 78 fe ff ff 	lea    -0x188(%rbp),%rdi
  40a5b0:	e8 eb d5 ff ff       	callq  407ba0 <_ZNSt18basic_stringstreamIcSt11char_traitsIcESaIcEED1Ev@plt>
  40a5b5:	48 81 c4 10 07 00 00 	add    $0x710,%rsp
  40a5bc:	5d                   	pop    %rbp
  40a5bd:	c3                   	retq   
--
  40a880:	48 8b 55 f0          	mov    -0x10(%rbp),%rdx
  40a884:	e8 e7 01 00 00       	callq  40aa70 <_ZL10WriteBytesiPKcm520>
  40a889:	88 85 3f fb ff ff    	mov    %al,-0x4c1(%rbp)
  40a88f:	48 81 c4 d0 04 00 00 	add    $0x4d0,%rsp
  40a896:	5d                   	pop    %rbp
  40a897:	c3                   	retq   
--
  40a9e5:	8a 45 ff             	mov    -0x1(%rbp),%al
  40a9e8:	24 01                	and    $0x1,%al
  40a9ea:	0f b6 c0             	movzbl %al,%eax
  40a9ed:	48 83 c4 60          	add    $0x60,%rsp
  40a9f1:	5d                   	pop    %rbp
  40a9f2:	c3                   	retq   
--
  40ab5f:	8a 45 ff             	mov    -0x1(%rbp),%al
  40ab62:	24 01                	and    $0x1,%al
  40ab64:	0f b6 c0             	movzbl %al,%eax
  40ab67:	48 83 c4 60          	add    $0x60,%rsp
  40ab6b:	5d                   	pop    %rbp
  40ab6c:	c3                   	retq   
--
  40b393:	e9 05 00 00 00       	jmpq   40b39d <_ZL10RunServiceR6Config634+0x81d>
  40b398:	e9 d5 ff ff ff       	jmpq   40b372 <_ZL10RunServiceR6Config634+0x7f2>
  40b39d:	e9 d0 fc ff ff       	jmpq   40b072 <_ZL10RunServiceR6Config634+0x4f2>
  40b3a2:	48 81 c4 70 02 00 00 	add    $0x270,%rsp
  40b3a9:	5d                   	pop    %rbp
  40b3aa:	c3                   	retq   
--
  40b47e:	8a 45 ff             	mov    -0x1(%rbp),%al
  40b481:	24 01                	and    $0x1,%al
  40b483:	0f b6 c0             	movzbl %al,%eax
  40b486:	48 83 c4 50          	add    $0x50,%rsp
  40b48a:	5d                   	pop    %rbp
  40b48b:	c3                   	retq   
--
  40b5f8:	e8 63 c0 ff ff       	callq  407660 <_ZNKSs5c_strEv@plt>
  40b5fd:	48 89 45 f8          	mov    %rax,-0x8(%rbp)
  40b601:	48 8b 45 f8          	mov    -0x8(%rbp),%rax
  40b605:	48 83 c4 70          	add    $0x70,%rsp
  40b609:	5d                   	pop    %rbp
  40b60a:	c3                   	retq   
--
  40b650:	48 8b 4d d8          	mov    -0x28(%rbp),%rcx
  40b654:	ff d1                	callq  *%rcx
  40b656:	48 8b 45 e8          	mov    -0x18(%rbp),%rax
  40b65a:	48 83 c4 30          	add    $0x30,%rsp
  40b65e:	5d                   	pop    %rbp
  40b65f:	c3                   	retq   
--
  40b661:	48 89 e5             	mov    %rsp,%rbp
  40b664:	48 89 7d f8          	mov    %rdi,-0x8(%rbp)
  40b668:	48 8b 7d f8          	mov    -0x8(%rbp),%rdi
  40b66c:	66 c7 07 e0 2e       	movw   $0x2ee0,(%rdi)
  40b671:	5d                   	pop    %rbp
  40b672:	c3                   	retq   
--
  40b6b5:	48 8b 45 f0          	mov    -0x10(%rbp),%rax
  40b6b9:	48 89 c7             	mov    %rax,%rdi
  40b6bc:	e8 ff c0 ff ff       	callq  4077c0 <_ZNSt13runtime_errorD2Ev@plt>
  40b6c1:	48 83 c4 10          	add    $0x10,%rsp
  40b6c5:	5d                   	pop    %rbp
  40b6c6:	c3                   	retq   
--
  40b6e4:	e8 27 27 01 00       	callq  41de10 <_ZN5boost6system12system_errorD2Ev264>
  40b6e9:	48 8b 7d f0          	mov    -0x10(%rbp),%rdi
  40b6ed:	e8 7e bf ff ff       	callq  407670 <_ZdlPv@plt>
  40b6f2:	48 83 c4 10          	add    $0x10,%rsp
  40b6f6:	5d                   	pop    %rbp
  40b6f7:	c3                   	retq   
--
  40b707:	89 75 f8             	mov    %esi,-0x8(%rbp)
  40b70a:	8b 75 fc             	mov    -0x4(%rbp),%esi
  40b70d:	0b 75 f8             	or     -0x8(%rbp),%esi
  40b710:	89 f0                	mov    %esi,%eax
  40b712:	5d                   	pop    %rbp
  40b713:	c3                   	retq   
--
  40b721:	48 89 e5             	mov    %rsp,%rbp
  40b724:	31 c0                	xor    %eax,%eax
  40b726:	89 c7                	mov    %eax,%edi
  40b728:	e8 43 23 01 00       	callq  41da70 <_ZN5boost15program_options5valueISsEEPNS0_11typed_valueIT_cEEPS3_252>
  40b72d:	5d                   	pop    %rbp
  40b72e:	c3                   	retq   
--
  40b731:	48 89 e5             	mov    %rsp,%rbp
  40b734:	31 c0                	xor    %eax,%eax
  40b736:	89 c7                	mov    %eax,%edi
  40b738:	e8 73 e1 00 00       	callq  4198b0 <_ZN5boost15program_options5valueItEEPNS0_11typed_valueIT_cEEPS3_38>
  40b73d:	5d                   	pop    %rbp
  40b73e:	c3                   	retq   
--
  40b7b6:	e8 45 20 01 00       	callq  41d800 <_ZNSt6vectorISsSaISsEED2Ev244>
  40b7bb:	48 8d 7d b8          	lea    -0x48(%rbp),%rdi
  40b7bf:	e8 3c 20 01 00       	callq  41d800 <_ZNSt6vectorISsSaISsEED2Ev244>
  40b7c4:	48 83 c4 70          	add    $0x70,%rsp
  40b7c8:	5d                   	pop    %rbp
  40b7c9:	c3                   	retq   
--
  40b82b:	48 8b 75 e8          	mov    -0x18(%rbp),%rsi
  40b82f:	48 89 46 70          	mov    %rax,0x70(%rsi)
  40b833:	48 89 f0             	mov    %rsi,%rax
  40b836:	48 83 c4 20          	add    $0x20,%rsp
  40b83a:	5d                   	pop    %rbp
  40b83b:	c3                   	retq   
--
  40b8d6:	c7 45 a8 01 00 00 00 	movl   $0x1,-0x58(%rbp)
  40b8dd:	e8 1e f8 00 00       	callq  41b100 <_ZN5boost15program_options20basic_parsed_optionsIcED2Ev111>
  40b8e2:	48 8b 45 98          	mov    -0x68(%rbp),%rax
  40b8e6:	48 81 c4 90 00 00 00 	add    $0x90,%rsp
  40b8ed:	5d                   	pop    %rbp
  40b8ee:	c3                   	retq   
--
  40b918:	48 89 7d f8          	mov    %rdi,-0x8(%rbp)
  40b91c:	48 8b 7d f8          	mov    -0x8(%rbp),%rdi
  40b920:	e8 1b f9 00 00       	callq  41b240 <_ZNSt6vectorIN5boost15program_options12basic_optionIcEESaIS3_EED2Ev115>
  40b925:	48 83 c4 10          	add    $0x10,%rsp
  40b929:	5d                   	pop    %rbp
  40b92a:	c3                   	retq   
--
  40b938:	48 89 7d f8          	mov    %rdi,-0x8(%rbp)
  40b93c:	48 8b 7d f8          	mov    -0x8(%rbp),%rdi
  40b940:	e8 eb fc 00 00       	callq  41b630 <_ZN5boost15program_options6detail7cmdlineD2Ev133>
  40b945:	48 83 c4 10          	add    $0x10,%rsp
  40b949:	5d                   	pop    %rbp
  40b94a:	c3                   	retq   
--
  40b9a4:	a8 01                	test   $0x1,%al
  40b9a6:	0f 45 ca             	cmovne %edx,%ecx
  40b9a9:	48 63 c1             	movslq %ecx,%rax
  40b9ac:	48 83 c4 30          	add    $0x30,%rsp
  40b9b0:	5d                   	pop    %rbp
  40b9b1:	c3                   	retq   
--
  40b9dc:	48 89 f7             	mov    %rsi,%rdi
  40b9df:	48 8b 75 e8          	mov    -0x18(%rbp),%rsi
  40b9e3:	e8 c8 be ff ff       	callq  4078b0 <_ZNK5boost15program_options22abstract_variables_mapixERKSs@plt>
  40b9e8:	48 83 c4 20          	add    $0x20,%rsp
  40b9ec:	5d                   	pop    %rbp
  40b9ed:	c3                   	retq   
--
  40b9f8:	48 89 7d f8          	mov    %rdi,-0x8(%rbp)
  40b9fc:	48 8b 7d f8          	mov    -0x8(%rbp),%rdi
  40ba00:	e8 db 30 01 00       	callq  41eae0 <_ZN5boost8any_castIRKSsEET_RKNS_3anyE314>
  40ba05:	48 83 c4 10          	add    $0x10,%rsp
  40ba09:	5d                   	pop    %rbp
  40ba0a:	c3                   	retq   
--
  40ba20:	48 8b 7d f8          	mov    -0x8(%rbp),%rdi
  40ba24:	48 8b 75 f0          	mov    -0x10(%rbp),%rsi
  40ba28:	e8 63 bd ff ff       	callq  407790 <_ZNSsC1ERKSs@plt>
  40ba2d:	48 83 c4 10          	add    $0x10,%rsp
  40ba31:	5d                   	pop    %rbp
  40ba32:	c3                   	retq   
--
  40ba61:	e8 ba 13 01 00       	callq  41ce20 <_ZN5boost10filesystem6existsENS0_11file_statusE210>
  40ba66:	24 01                	and    $0x1,%al
  40ba68:	0f b6 c0             	movzbl %al,%eax
  40ba6b:	48 83 c4 10          	add    $0x10,%rsp
  40ba6f:	5d                   	pop    %rbp
  40ba70:	c3                   	retq   
--
  40ba88:	48 89 7d f8          	mov    %rdi,-0x8(%rbp)
  40ba8c:	48 8b 7d f8          	mov    -0x8(%rbp),%rdi
  40ba90:	e8 cb bb ff ff       	callq  407660 <_ZNKSs5c_strEv@plt>
  40ba95:	48 83 c4 10          	add    $0x10,%rsp
  40ba99:	5d                   	pop    %rbp
  40ba9a:	c3                   	retq   
--
  40bac8:	48 89 7d f8          	mov    %rdi,-0x8(%rbp)
  40bacc:	48 8b 7d f8          	mov    -0x8(%rbp),%rdi
  40bad0:	e8 2b bd ff ff       	callq  407800 <_ZNSsD1Ev@plt>
  40bad5:	48 83 c4 10          	add    $0x10,%rsp
  40bad9:	5d                   	pop    %rbp
  40bada:	c3                   	retq   
--
  40bae8:	48 89 7d f8          	mov    %rdi,-0x8(%rbp)
  40baec:	48 8b 7d f8          	mov    -0x8(%rbp),%rdi
  40baf0:	e8 3b 0f 01 00       	callq  41ca30 <_ZN5boost8any_castIRKtEET_RKNS_3anyE203>
  40baf5:	48 83 c4 10          	add    $0x10,%rsp
  40baf9:	5d                   	pop    %rbp
  40bafa:	c3                   	retq   
--
  40bb59:	48 8b 45 f0          	mov    -0x10(%rbp),%rax
  40bb5d:	48 89 c7             	mov    %rax,%rdi
  40bb60:	e8 2b 3f 01 00       	callq  41fa90 <_ZN5boost15program_options22abstract_variables_mapD2Ev356>
  40bb65:	48 83 c4 10          	add    $0x10,%rsp
  40bb69:	5d                   	pop    %rbp
  40bb6a:	c3                   	retq   
--
  40bbb4:	e8 57 9b 01 00       	callq  425710 <_ZNSt6vectorIN5boost10shared_ptrINS0_15program_options18option_descriptionEEESaIS4_EED2Ev651>
  40bbb9:	48 8b 7d f0          	mov    -0x10(%rbp),%rdi
  40bbbd:	e8 3e bc ff ff       	callq  407800 <_ZNSsD1Ev@plt>
  40bbc2:	48 83 c4 10          	add    $0x10,%rsp
  40bbc6:	5d                   	pop    %rbp
  40bbc7:	c3                   	retq   
--
  40bc0c:	48 8b 45 d8          	mov    -0x28(%rbp),%rax
  40bc10:	48 89 c7             	mov    %rax,%rdi
  40bc13:	e8 48 8b 01 00       	callq  424760 <_ZNSt12_Vector_baseIN5boost10shared_ptrINS0_15program_options19options_descriptionEEESaIS4_EED2Ev590>
  40bc18:	48 83 c4 30          	add    $0x30,%rsp
  40bc1c:	5d                   	pop    %rbp
  40bc1d:	c3                   	retq   
--
  40bc48:	48 89 7d f8          	mov    %rdi,-0x8(%rbp)
  40bc4c:	48 8b 7d f8          	mov    -0x8(%rbp),%rdi
  40bc50:	e8 0b f3 00 00       	callq  41af60 <_ZNSt13_Bvector_baseISaIbEED2Ev104>
  40bc55:	48 83 c4 10          	add    $0x10,%rsp
  40bc59:	5d                   	pop    %rbp
  40bc5a:	c3                   	retq   
--
  40bc9c:	48 8b 45 d8          	mov    -0x28(%rbp),%rax
  40bca0:	48 89 c7             	mov    %rax,%rdi
  40bca3:	e8 68 18 01 00       	callq  41d510 <_ZNSt12_Vector_baseIN5boost10shared_ptrINS0_15program_options18option_descriptionEEESaIS4_EED2Ev236>
  40bca8:	48 83 c4 30          	add    $0x30,%rsp
  40bcac:	5d                   	pop    %rbp
  40bcad:	c3                   	retq   
--
  40bce4:	48 8b 7d f8          	mov    -0x8(%rbp),%rdi
  40bce8:	48 8b 75 f0          	mov    -0x10(%rbp),%rsi
  40bcec:	e8 2f 2f 01 00       	callq  41ec20 <_ZSt8_DestroyIPN5boost10shared_ptrINS0_15program_options18option_descriptionEEEEvT_S6_316>
  40bcf1:	48 83 c4 20          	add    $0x20,%rsp
  40bcf5:	5d                   	pop    %rbp
  40bcf6:	c3                   	retq   
--
  40bd01:	48 89 e5             	mov    %rsp,%rbp
  40bd04:	48 89 7d f8          	mov    %rdi,-0x8(%rbp)
  40bd08:	48 8b 7d f8          	mov    -0x8(%rbp),%rdi
  40bd0c:	48 89 f8             	mov    %rdi,%rax
  40bd0f:	5d                   	pop    %rbp
  40bd10:	c3                   	retq   
--
  40bd49:	e9 00 00 00 00       	jmpq   40bd4e <_ZNSt12_Vector_baseIN5boost10shared_ptrINS0_15program_options18option_descriptionEEESaIS4_EED2Ev+0x2e>
  40bd4e:	48 8b 7d e0          	mov    -0x20(%rbp),%rdi
  40bd52:	e8 d9 75 01 00       	callq  423330 <_ZNSt12_Vector_baseIN5boost10shared_ptrINS0_15program_options18option_descriptionEEESaIS4_EE12_Vector_implD2Ev522>
  40bd57:	48 83 c4 20          	add    $0x20,%rsp
  40bd5b:	5d                   	pop    %rbp
  40bd5c:	c3                   	retq   
--
  40bdb2:	48 8b 55 e8          	mov    -0x18(%rbp),%rdx
  40bdb6:	48 89 c7             	mov    %rax,%rdi
  40bdb9:	e8 c2 a8 01 00       	callq  426680 <_ZN9__gnu_cxx13new_allocatorIN5boost10shared_ptrINS1_15program_options18option_descriptionEEEE10deallocateEPS5_m683>
  40bdbe:	48 83 c4 20          	add    $0x20,%rsp
  40bdc2:	5d                   	pop    %rbp
  40bdc3:	c3                   	retq   
--
  40bdd8:	48 89 7d f8          	mov    %rdi,-0x8(%rbp)
  40bddc:	48 8b 7d f8          	mov    -0x8(%rbp),%rdi
  40bde0:	e8 eb 13 01 00       	callq  41d1d0 <_ZNSaIN5boost10shared_ptrINS_15program_options18option_descriptionEEEED2Ev226>
  40bde5:	48 83 c4 10          	add    $0x10,%rsp
  40bde9:	5d                   	pop    %rbp
  40bdea:	c3                   	retq   
--
  40bdf8:	48 89 7d f8          	mov    %rdi,-0x8(%rbp)
  40bdfc:	48 8b 7d f8          	mov    -0x8(%rbp),%rdi
  40be00:	e8 cb 55 01 00       	callq  4213d0 <_ZN9__gnu_cxx13new_allocatorIN5boost10shared_ptrINS1_15program_options18option_descriptionEEEED2Ev417>
  40be05:	48 83 c4 10          	add    $0x10,%rsp
  40be09:	5d                   	pop    %rbp
  40be0a:	c3                   	retq   
--
000000000040be10 <_ZN9__gnu_cxx13new_allocatorIN5boost10shared_ptrINS1_15program_options18option_descriptionEEEED2Ev>:
  40be10:	55                   	push   %rbp
  40be11:	48 89 e5             	mov    %rsp,%rbp
  40be14:	48 89 7d f8          	mov    %rdi,-0x8(%rbp)
  40be18:	5d                   	pop    %rbp
  40be19:	c3                   	retq   
--
  40be34:	48 8b 55 f0          	mov    -0x10(%rbp),%rdx
  40be38:	48 89 d7             	mov    %rdx,%rdi
  40be3b:	e8 30 b8 ff ff       	callq  407670 <_ZdlPv@plt>
  40be40:	48 83 c4 20          	add    $0x20,%rsp
  40be44:	5d                   	pop    %rbp
  40be45:	c3                   	retq   
--
  40be60:	48 8b 7d f8          	mov    -0x8(%rbp),%rdi
  40be64:	48 8b 75 f0          	mov    -0x10(%rbp),%rsi
  40be68:	e8 63 3c 01 00       	callq  41fad0 <_ZNSt12_Destroy_auxILb0EE9__destroyIPN5boost10shared_ptrINS2_15program_options18option_descriptionEEEEEvT_S8_358>
  40be6d:	48 83 c4 10          	add    $0x10,%rsp
  40be71:	5d                   	pop    %rbp
  40be72:	c3                   	retq   
--
  40beb3:	48 05 10 00 00 00    	add    $0x10,%rax
  40beb9:	48 89 45 f8          	mov    %rax,-0x8(%rbp)
  40bebd:	e9 ce ff ff ff       	jmpq   40be90 <_ZNSt12_Destroy_auxILb0EE9__destroyIPN5boost10shared_ptrINS2_15program_options18option_descriptionEEEEEvT_S8_+0x10>
  40bec2:	48 83 c4 10          	add    $0x10,%rsp
  40bec6:	5d                   	pop    %rbp
  40bec7:	c3                   	retq   
--
  40bed8:	48 89 7d f8          	mov    %rdi,-0x8(%rbp)
  40bedc:	48 8b 7d f8          	mov    -0x8(%rbp),%rdi
  40bee0:	e8 fb fd 00 00       	callq  41bce0 <_ZN5boost10shared_ptrINS_15program_options18option_descriptionEED2Ev159>
  40bee5:	48 83 c4 10          	add    $0x10,%rsp
  40bee9:	5d                   	pop    %rbp
  40beea:	c3                   	retq   
--
  40bef1:	48 89 e5             	mov    %rsp,%rbp
  40bef4:	48 89 7d f8          	mov    %rdi,-0x8(%rbp)
  40bef8:	48 8b 7d f8          	mov    -0x8(%rbp),%rdi
  40befc:	48 89 f8             	mov    %rdi,%rax
  40beff:	5d                   	pop    %rbp
  40bf00:	c3                   	retq   
--
  40bf1c:	48 8b 7d f8          	mov    -0x8(%rbp),%rdi
  40bf20:	48 81 c7 08 00 00 00 	add    $0x8,%rdi
  40bf27:	e8 94 fc 00 00       	callq  41bbc0 <_ZN5boost6detail12shared_countD2Ev153>
  40bf2c:	48 83 c4 10          	add    $0x10,%rsp
  40bf30:	5d                   	pop    %rbp
  40bf31:	c3                   	retq   
--
  40bf68:	e8 73 8f 01 00       	callq  424ee0 <_ZN5boost6detail15sp_counted_base7releaseEv616>
  40bf6d:	e9 00 00 00 00       	jmpq   40bf72 <_ZN5boost6detail12shared_countD2Ev+0x32>
  40bf72:	e9 00 00 00 00       	jmpq   40bf77 <_ZN5boost6detail12shared_countD2Ev+0x37>
  40bf77:	48 83 c4 20          	add    $0x20,%rsp
  40bf7b:	5d                   	pop    %rbp
  40bf7c:	c3                   	retq   
--
  40bfcf:	ff 51 10             	callq  *0x10(%rcx)
  40bfd2:	48 8b 7d f0          	mov    -0x10(%rbp),%rdi
  40bfd6:	e8 05 7c 01 00       	callq  423be0 <_ZN5boost6detail15sp_counted_base12weak_releaseEv551>
  40bfdb:	48 83 c4 10          	add    $0x10,%rsp
  40bfdf:	5d                   	pop    %rbp
  40bfe0:	c3                   	retq   
--
  40c003:	8b 75 f4             	mov    -0xc(%rbp),%esi
  40c006:	f0 0f c1 37          	lock xadd %esi,(%rdi)
  40c00a:	89 75 f0             	mov    %esi,-0x10(%rbp)
  40c00d:	8b 45 f0             	mov    -0x10(%rbp),%eax
  40c010:	5d                   	pop    %rbp
  40c011:	c3                   	retq   
--
  40c059:	48 8b 08             	mov    (%rax),%rcx
  40c05c:	48 89 c7             	mov    %rax,%rdi
  40c05f:	ff 51 18             	callq  *0x18(%rcx)
  40c062:	48 83 c4 10          	add    $0x10,%rsp
  40c066:	5d                   	pop    %rbp
  40c067:	c3                   	retq   
--
  40c088:	e9 00 00 00 00       	jmpq   40c08d <_ZNSt13_Bvector_baseISaIbEED2Ev+0x1d>
  40c08d:	48 8b 7d e0          	mov    -0x20(%rbp),%rdi
  40c091:	e8 8a 71 01 00       	callq  423220 <_ZNSt13_Bvector_baseISaIbEE13_Bvector_implD2Ev516>
  40c096:	48 83 c4 20          	add    $0x20,%rsp
  40c09a:	5d                   	pop    %rbp
  40c09b:	c3                   	retq   
--
  40c0f6:	48 c1 fa 03          	sar    $0x3,%rdx
  40c0fa:	48 89 c7             	mov    %rax,%rdi
  40c0fd:	e8 ae ed 00 00       	callq  41aeb0 <_ZN9__gnu_cxx13new_allocatorImE10deallocateEPmm101>
  40c102:	48 83 c4 10          	add    $0x10,%rsp
  40c106:	5d                   	pop    %rbp
  40c107:	c3                   	retq   
--
  40c118:	48 89 7d f8          	mov    %rdi,-0x8(%rbp)
  40c11c:	48 8b 7d f8          	mov    -0x8(%rbp),%rdi
  40c120:	e8 ab 93 01 00       	callq  4254d0 <_ZNSaImED2Ev639>
  40c125:	48 83 c4 10          	add    $0x10,%rsp
  40c129:	5d                   	pop    %rbp
  40c12a:	c3                   	retq   
--
  40c138:	48 89 7d f8          	mov    %rdi,-0x8(%rbp)
  40c13c:	48 8b 7d f8          	mov    -0x8(%rbp),%rdi
  40c140:	e8 3b fc 00 00       	callq  41bd80 <_ZN9__gnu_cxx13new_allocatorImED2Ev162>
  40c145:	48 83 c4 10          	add    $0x10,%rsp
  40c149:	5d                   	pop    %rbp
  40c14a:	c3                   	retq   
--
000000000040c150 <_ZN9__gnu_cxx13new_allocatorImED2Ev>:
  40c150:	55                   	push   %rbp
  40c151:	48 89 e5             	mov    %rsp,%rbp
  40c154:	48 89 7d f8          	mov    %rdi,-0x8(%rbp)
  40c158:	5d                   	pop    %rbp
  40c159:	c3                   	retq   
--
  40c174:	48 8b 55 f0          	mov    -0x10(%rbp),%rdx
  40c178:	48 89 d7             	mov    %rdx,%rdi
  40c17b:	e8 f0 b4 ff ff       	callq  407670 <_ZdlPv@plt>
  40c180:	48 83 c4 20          	add    $0x20,%rsp
  40c184:	5d                   	pop    %rbp
  40c185:	c3                   	retq   
--
  40c1a4:	48 8b 7d f8          	mov    -0x8(%rbp),%rdi
  40c1a8:	48 8b 75 f0          	mov    -0x10(%rbp),%rsi
  40c1ac:	e8 4f 08 01 00       	callq  41ca00 <_ZSt8_DestroyIPN5boost10shared_ptrINS0_15program_options19options_descriptionEEEEvT_S6_202>
  40c1b1:	48 83 c4 20          	add    $0x20,%rsp
  40c1b5:	5d                   	pop    %rbp
  40c1b6:	c3                   	retq   
--
  40c1c1:	48 89 e5             	mov    %rsp,%rbp
  40c1c4:	48 89 7d f8          	mov    %rdi,-0x8(%rbp)
  40c1c8:	48 8b 7d f8          	mov    -0x8(%rbp),%rdi
  40c1cc:	48 89 f8             	mov    %rdi,%rax
  40c1cf:	5d                   	pop    %rbp
  40c1d0:	c3                   	retq   
--
  40c209:	e9 00 00 00 00       	jmpq   40c20e <_ZNSt12_Vector_baseIN5boost10shared_ptrINS0_15program_options19options_descriptionEEESaIS4_EED2Ev+0x2e>
  40c20e:	48 8b 7d e0          	mov    -0x20(%rbp),%rdi
  40c212:	e8 e9 0b 01 00       	callq  41ce00 <_ZNSt12_Vector_baseIN5boost10shared_ptrINS0_15program_options19options_descriptionEEESaIS4_EE12_Vector_implD2Ev209>
  40c217:	48 83 c4 20          	add    $0x20,%rsp
  40c21b:	5d                   	pop    %rbp
  40c21c:	c3                   	retq   
--
  40c272:	48 8b 55 e8          	mov    -0x18(%rbp),%rdx
  40c276:	48 89 c7             	mov    %rax,%rdi
  40c279:	e8 f2 93 01 00       	callq  425670 <_ZN9__gnu_cxx13new_allocatorIN5boost10shared_ptrINS1_15program_options19options_descriptionEEEE10deallocateEPS5_m648>
  40c27e:	48 83 c4 20          	add    $0x20,%rsp
  40c282:	5d                   	pop    %rbp
  40c283:	c3                   	retq   
--
  40c298:	48 89 7d f8          	mov    %rdi,-0x8(%rbp)
  40c29c:	48 8b 7d f8          	mov    -0x8(%rbp),%rdi
  40c2a0:	e8 0b 3f 01 00       	callq  4201b0 <_ZNSaIN5boost10shared_ptrINS_15program_options19options_descriptionEEEED2Ev378>
  40c2a5:	48 83 c4 10          	add    $0x10,%rsp
  40c2a9:	5d                   	pop    %rbp
  40c2aa:	c3                   	retq   
--
  40c2b8:	48 89 7d f8          	mov    %rdi,-0x8(%rbp)
  40c2bc:	48 8b 7d f8          	mov    -0x8(%rbp),%rdi
  40c2c0:	e8 2b f2 00 00       	callq  41b4f0 <_ZN9__gnu_cxx13new_allocatorIN5boost10shared_ptrINS1_15program_options19options_descriptionEEEED2Ev126>
  40c2c5:	48 83 c4 10          	add    $0x10,%rsp
  40c2c9:	5d                   	pop    %rbp
  40c2ca:	c3                   	retq   
--
000000000040c2d0 <_ZN9__gnu_cxx13new_allocatorIN5boost10shared_ptrINS1_15program_options19options_descriptionEEEED2Ev>:
  40c2d0:	55                   	push   %rbp
  40c2d1:	48 89 e5             	mov    %rsp,%rbp
  40c2d4:	48 89 7d f8          	mov    %rdi,-0x8(%rbp)
  40c2d8:	5d                   	pop    %rbp
  40c2d9:	c3                   	retq   
--
  40c2f4:	48 8b 55 f0          	mov    -0x10(%rbp),%rdx
  40c2f8:	48 89 d7             	mov    %rdx,%rdi
  40c2fb:	e8 70 b3 ff ff       	callq  407670 <_ZdlPv@plt>
  40c300:	48 83 c4 20          	add    $0x20,%rsp
  40c304:	5d                   	pop    %rbp
  40c305:	c3                   	retq   
--
  40c320:	48 8b 7d f8          	mov    -0x8(%rbp),%rdi
  40c324:	48 8b 75 f0          	mov    -0x10(%rbp),%rsi
  40c328:	e8 93 93 01 00       	callq  4256c0 <_ZNSt12_Destroy_auxILb0EE9__destroyIPN5boost10shared_ptrINS2_15program_options19options_descriptionEEEEEvT_S8_650>
  40c32d:	48 83 c4 10          	add    $0x10,%rsp
  40c331:	5d                   	pop    %rbp
  40c332:	c3                   	retq   
--
  40c373:	48 05 10 00 00 00    	add    $0x10,%rax
  40c379:	48 89 45 f8          	mov    %rax,-0x8(%rbp)
  40c37d:	e9 ce ff ff ff       	jmpq   40c350 <_ZNSt12_Destroy_auxILb0EE9__destroyIPN5boost10shared_ptrINS2_15program_options19options_descriptionEEEEEvT_S8_+0x10>
  40c382:	48 83 c4 10          	add    $0x10,%rsp
  40c386:	5d                   	pop    %rbp
  40c387:	c3                   	retq   
--
  40c398:	48 89 7d f8          	mov    %rdi,-0x8(%rbp)
  40c39c:	48 8b 7d f8          	mov    -0x8(%rbp),%rdi
  40c3a0:	e8 3b 29 01 00       	callq  41ece0 <_ZN5boost10shared_ptrINS_15program_options19options_descriptionEED2Ev319>
  40c3a5:	48 83 c4 10          	add    $0x10,%rsp
  40c3a9:	5d                   	pop    %rbp
  40c3aa:	c3                   	retq   
--
  40c3b1:	48 89 e5             	mov    %rsp,%rbp
  40c3b4:	48 89 7d f8          	mov    %rdi,-0x8(%rbp)
  40c3b8:	48 8b 7d f8          	mov    -0x8(%rbp),%rdi
  40c3bc:	48 89 f8             	mov    %rdi,%rax
  40c3bf:	5d                   	pop    %rbp
  40c3c0:	c3                   	retq   
--
  40c3dc:	48 8b 7d f8          	mov    -0x8(%rbp),%rdi
  40c3e0:	48 81 c7 08 00 00 00 	add    $0x8,%rdi
  40c3e7:	e8 d4 f7 00 00       	callq  41bbc0 <_ZN5boost6detail12shared_countD2Ev153>
  40c3ec:	48 83 c4 10          	add    $0x10,%rsp
  40c3f0:	5d                   	pop    %rbp
  40c3f1:	c3                   	retq   
--
  40c408:	48 89 7d f8          	mov    %rdi,-0x8(%rbp)
  40c40c:	48 8b 7d f8          	mov    -0x8(%rbp),%rdi
  40c410:	e8 5b 62 01 00       	callq  422670 <_ZNSt8_Rb_treeISsSt4pairIKSsSsESt10_Select1stIS2_ESt4lessISsESaIS2_EED2Ev474>
  40c415:	48 83 c4 10          	add    $0x10,%rsp
  40c419:	5d                   	pop    %rbp
  40c41a:	c3                   	retq   
--
  40c428:	48 89 7d f8          	mov    %rdi,-0x8(%rbp)
  40c42c:	48 8b 7d f8          	mov    -0x8(%rbp),%rdi
  40c430:	e8 6b 63 01 00       	callq  4227a0 <_ZNSt8_Rb_treeISsSsSt9_IdentityISsESt4lessISsESaISsEED2Ev479>
  40c435:	48 83 c4 10          	add    $0x10,%rsp
  40c439:	5d                   	pop    %rbp
  40c43a:	c3                   	retq   
--
  40c448:	48 89 7d f8          	mov    %rdi,-0x8(%rbp)
  40c44c:	48 8b 7d f8          	mov    -0x8(%rbp),%rdi
  40c450:	e8 2b 6d 01 00       	callq  423180 <_ZNSt8_Rb_treeISsSt4pairIKSsN5boost15program_options14variable_valueEESt10_Select1stIS5_ESt4lessISsESaIS5_EED2Ev513>
  40c455:	48 83 c4 10          	add    $0x10,%rsp
  40c459:	5d                   	pop    %rbp
  40c45a:	c3                   	retq   
--
000000000040c460 <_ZN5boost15program_options22abstract_variables_mapD2Ev>:
  40c460:	55                   	push   %rbp
  40c461:	48 89 e5             	mov    %rsp,%rbp
  40c464:	48 89 7d f8          	mov    %rdi,-0x8(%rbp)
  40c468:	5d                   	pop    %rbp
  40c469:	c3                   	retq   
--
  40c49e:	e9 00 00 00 00       	jmpq   40c4a3 <_ZNSt8_Rb_treeISsSt4pairIKSsN5boost15program_options14variable_valueEESt10_Select1stIS5_ESt4lessISsESaIS5_EED2Ev+0x33>
  40c4a3:	48 8b 7d e0          	mov    -0x20(%rbp),%rdi
  40c4a7:	e8 b4 6f 01 00       	callq  423460 <_ZNSt8_Rb_treeISsSt4pairIKSsN5boost15program_options14variable_valueEESt10_Select1stIS5_ESt4lessISsESaIS5_EE13_Rb_tree_implIS9_Lb1EED2Ev528>
  40c4ac:	48 83 c4 30          	add    $0x30,%rsp
  40c4b0:	5d                   	pop    %rbp
  40c4b1:	c3                   	retq   
--
  40c52b:	48 8b 45 e8          	mov    -0x18(%rbp),%rax
  40c52f:	48 89 45 f0          	mov    %rax,-0x10(%rbp)
  40c533:	e9 b0 ff ff ff       	jmpq   40c4e8 <_ZNSt8_Rb_treeISsSt4pairIKSsN5boost15program_options14variable_valueEESt10_Select1stIS5_ESt4lessISsESaIS5_EE8_M_eraseEPSt13_Rb_tree_nodeIS5_E+0x18>
  40c538:	48 83 c4 20          	add    $0x20,%rsp
  40c53c:	5d                   	pop    %rbp
  40c53d:	c3                   	retq   
--
  40c544:	48 89 7d f8          	mov    %rdi,-0x8(%rbp)
  40c548:	48 8b 7d f8          	mov    -0x8(%rbp),%rdi
  40c54c:	48 8b 7f 10          	mov    0x10(%rdi),%rdi
  40c550:	48 89 f8             	mov    %rdi,%rax
  40c553:	5d                   	pop    %rbp
  40c554:	c3                   	retq   
--
  40c568:	48 89 7d f8          	mov    %rdi,-0x8(%rbp)
  40c56c:	48 8b 7d f8          	mov    -0x8(%rbp),%rdi
  40c570:	e8 2b 83 01 00       	callq  4248a0 <_ZNSaISt13_Rb_tree_nodeISt4pairIKSsN5boost15program_options14variable_valueEEEED2Ev596>
  40c575:	48 83 c4 10          	add    $0x10,%rsp
  40c579:	5d                   	pop    %rbp
  40c57a:	c3                   	retq   
--
  40c588:	48 89 7d f8          	mov    %rdi,-0x8(%rbp)
  40c58c:	48 8b 7d f8          	mov    -0x8(%rbp),%rdi
  40c590:	e8 1b 60 01 00       	callq  4225b0 <_ZN9__gnu_cxx13new_allocatorISt13_Rb_tree_nodeISt4pairIKSsN5boost15program_options14variable_valueEEEED2Ev469>
  40c595:	48 83 c4 10          	add    $0x10,%rsp
  40c599:	5d                   	pop    %rbp
  40c59a:	c3                   	retq   
--
000000000040c5a0 <_ZN9__gnu_cxx13new_allocatorISt13_Rb_tree_nodeISt4pairIKSsN5boost15program_options14variable_valueEEEED2Ev>:
  40c5a0:	55                   	push   %rbp
  40c5a1:	48 89 e5             	mov    %rsp,%rbp
  40c5a4:	48 89 7d f8          	mov    %rdi,-0x8(%rbp)
  40c5a8:	5d                   	pop    %rbp
  40c5a9:	c3                   	retq   
--
  40c5b4:	48 89 7d f8          	mov    %rdi,-0x8(%rbp)
  40c5b8:	48 8b 7d f8          	mov    -0x8(%rbp),%rdi
  40c5bc:	48 8b 7f 18          	mov    0x18(%rdi),%rdi
  40c5c0:	48 89 f8             	mov    %rdi,%rax
  40c5c3:	5d                   	pop    %rbp
  40c5c4:	c3                   	retq   
--
  40c5d4:	48 89 7d f8          	mov    %rdi,-0x8(%rbp)
  40c5d8:	48 8b 7d f8          	mov    -0x8(%rbp),%rdi
  40c5dc:	48 8b 7f 10          	mov    0x10(%rdi),%rdi
  40c5e0:	48 89 f8             	mov    %rdi,%rax
  40c5e3:	5d                   	pop    %rbp
  40c5e4:	c3                   	retq   
--
  40c61c:	48 8b 75 f0          	mov    -0x10(%rbp),%rsi
  40c620:	48 8b 7d e8          	mov    -0x18(%rbp),%rdi
  40c624:	e8 f7 4e 01 00       	callq  421520 <_ZNSt8_Rb_treeISsSt4pairIKSsN5boost15program_options14variable_valueEESt10_Select1stIS5_ESt4lessISsESaIS5_EE11_M_put_nodeEPSt13_Rb_tree_nodeIS5_E423>
  40c629:	48 83 c4 20          	add    $0x20,%rsp
  40c62d:	5d                   	pop    %rbp
  40c62e:	c3                   	retq   
--
  40c631:	48 89 e5             	mov    %rsp,%rbp
  40c634:	48 89 7d f8          	mov    %rdi,-0x8(%rbp)
  40c638:	48 8b 7d f8          	mov    -0x8(%rbp),%rdi
  40c63c:	48 89 f8             	mov    %rdi,%rax
  40c63f:	5d                   	pop    %rbp
  40c640:	c3                   	retq   
--
  40c65c:	48 89 75 f0          	mov    %rsi,-0x10(%rbp)
  40c660:	48 8b 7d f0          	mov    -0x10(%rbp),%rdi
  40c664:	e8 27 e7 00 00       	callq  41ad90 <_ZNSt13_Rb_tree_nodeISt4pairIKSsN5boost15program_options14variable_valueEEED2Ev96>
  40c669:	48 83 c4 10          	add    $0x10,%rsp
  40c66d:	5d                   	pop    %rbp
  40c66e:	c3                   	retq   
--
  40c693:	48 89 f7             	mov    %rsi,%rdi
  40c696:	48 8b 75 e8          	mov    -0x18(%rbp),%rsi
  40c69a:	e8 91 f5 00 00       	callq  41bc30 <_ZN9__gnu_cxx13new_allocatorISt13_Rb_tree_nodeISt4pairIKSsN5boost15program_options14variable_valueEEEE10deallocateEPS8_m155>
  40c69f:	48 83 c4 20          	add    $0x20,%rsp
  40c6a3:	5d                   	pop    %rbp
  40c6a4:	c3                   	retq   
--
  40c6c4:	48 8b 55 f0          	mov    -0x10(%rbp),%rdx
  40c6c8:	48 89 d7             	mov    %rdx,%rdi
  40c6cb:	e8 a0 af ff ff       	callq  407670 <_ZdlPv@plt>
  40c6d0:	48 83 c4 20          	add    $0x20,%rsp
  40c6d4:	5d                   	pop    %rbp
  40c6d5:	c3                   	retq   
--
  40c6ec:	48 8b 7d f8          	mov    -0x8(%rbp),%rdi
  40c6f0:	48 81 c7 20 00 00 00 	add    $0x20,%rdi
  40c6f7:	e8 d4 f3 00 00       	callq  41bad0 <_ZNSt4pairIKSsN5boost15program_options14variable_valueEED2Ev149>
  40c6fc:	48 83 c4 10          	add    $0x10,%rsp
  40c700:	5d                   	pop    %rbp
  40c701:	c3                   	retq   
--
  40c730:	e8 ab d0 00 00       	callq  4197e0 <_ZN5boost15program_options14variable_valueD2Ev34>
  40c735:	48 8b 7d f0          	mov    -0x10(%rbp),%rdi
  40c739:	e8 c2 b0 ff ff       	callq  407800 <_ZNSsD1Ev@plt>
  40c73e:	48 83 c4 10          	add    $0x10,%rsp
  40c742:	5d                   	pop    %rbp
  40c743:	c3                   	retq   
--
  40c770:	e8 bb 38 01 00       	callq  420030 <_ZN5boost10shared_ptrIKNS_15program_options14value_semanticEED2Ev370>
  40c775:	48 8b 7d f0          	mov    -0x10(%rbp),%rdi
  40c779:	e8 82 5c 01 00       	callq  422400 <_ZN5boost3anyD2Ev465>
  40c77e:	48 83 c4 10          	add    $0x10,%rsp
  40c782:	5d                   	pop    %rbp
  40c783:	c3                   	retq   
--
  40c79c:	48 8b 7d f8          	mov    -0x8(%rbp),%rdi
  40c7a0:	48 81 c7 08 00 00 00 	add    $0x8,%rdi
  40c7a7:	e8 14 f4 00 00       	callq  41bbc0 <_ZN5boost6detail12shared_countD2Ev153>
  40c7ac:	48 83 c4 10          	add    $0x10,%rsp
  40c7b0:	5d                   	pop    %rbp
  40c7b1:	c3                   	retq   
--
  40c7e8:	48 8b 08             	mov    (%rax),%rcx
  40c7eb:	48 89 c7             	mov    %rax,%rdi
  40c7ee:	ff 51 08             	callq  *0x8(%rcx)
  40c7f1:	48 83 c4 10          	add    $0x10,%rsp
  40c7f5:	5d                   	pop    %rbp
  40c7f6:	c3                   	retq   
--
  40c82e:	e9 00 00 00 00       	jmpq   40c833 <_ZNSt8_Rb_treeISsSsSt9_IdentityISsESt4lessISsESaISsEED2Ev+0x33>
  40c833:	48 8b 7d e0          	mov    -0x20(%rbp),%rdi
  40c837:	e8 84 f9 00 00       	callq  41c1c0 <_ZNSt8_Rb_treeISsSsSt9_IdentityISsESt4lessISsESaISsEE13_Rb_tree_implIS3_Lb1EED2Ev173>
  40c83c:	48 83 c4 30          	add    $0x30,%rsp
  40c840:	5d                   	pop    %rbp
  40c841:	c3                   	retq   
--
  40c8bb:	48 8b 45 e8          	mov    -0x18(%rbp),%rax
  40c8bf:	48 89 45 f0          	mov    %rax,-0x10(%rbp)
  40c8c3:	e9 b0 ff ff ff       	jmpq   40c878 <_ZNSt8_Rb_treeISsSsSt9_IdentityISsESt4lessISsESaISsEE8_M_eraseEPSt13_Rb_tree_nodeISsE+0x18>
  40c8c8:	48 83 c4 20          	add    $0x20,%rsp
  40c8cc:	5d                   	pop    %rbp
  40c8cd:	c3                   	retq   
--
  40c8d4:	48 89 7d f8          	mov    %rdi,-0x8(%rbp)
  40c8d8:	48 8b 7d f8          	mov    -0x8(%rbp),%rdi
  40c8dc:	48 8b 7f 10          	mov    0x10(%rdi),%rdi
  40c8e0:	48 89 f8             	mov    %rdi,%rax
  40c8e3:	5d                   	pop    %rbp
  40c8e4:	c3                   	retq   
--
  40c8f8:	48 89 7d f8          	mov    %rdi,-0x8(%rbp)
  40c8fc:	48 8b 7d f8          	mov    -0x8(%rbp),%rdi
  40c900:	e8 8b 67 01 00       	callq  423090 <_ZNSaISt13_Rb_tree_nodeISsEED2Ev509>
  40c905:	48 83 c4 10          	add    $0x10,%rsp
  40c909:	5d                   	pop    %rbp
  40c90a:	c3                   	retq   
--
  40c918:	48 89 7d f8          	mov    %rdi,-0x8(%rbp)
  40c91c:	48 8b 7d f8          	mov    -0x8(%rbp),%rdi
  40c920:	e8 fb 20 01 00       	callq  41ea20 <_ZN9__gnu_cxx13new_allocatorISt13_Rb_tree_nodeISsEED2Ev310>
  40c925:	48 83 c4 10          	add    $0x10,%rsp
  40c929:	5d                   	pop    %rbp
  40c92a:	c3                   	retq   
--
000000000040c930 <_ZN9__gnu_cxx13new_allocatorISt13_Rb_tree_nodeISsEED2Ev>:
  40c930:	55                   	push   %rbp
  40c931:	48 89 e5             	mov    %rsp,%rbp
  40c934:	48 89 7d f8          	mov    %rdi,-0x8(%rbp)
  40c938:	5d                   	pop    %rbp
  40c939:	c3                   	retq   
--
  40c944:	48 89 7d f8          	mov    %rdi,-0x8(%rbp)
  40c948:	48 8b 7d f8          	mov    -0x8(%rbp),%rdi
  40c94c:	48 8b 7f 18          	mov    0x18(%rdi),%rdi
  40c950:	48 89 f8             	mov    %rdi,%rax
  40c953:	5d                   	pop    %rbp
  40c954:	c3                   	retq   
--
  40c964:	48 89 7d f8          	mov    %rdi,-0x8(%rbp)
  40c968:	48 8b 7d f8          	mov    -0x8(%rbp),%rdi
  40c96c:	48 8b 7f 10          	mov    0x10(%rdi),%rdi
  40c970:	48 89 f8             	mov    %rdi,%rax
  40c973:	5d                   	pop    %rbp
  40c974:	c3                   	retq   
--
  40c9ac:	48 8b 75 f0          	mov    -0x10(%rbp),%rsi
  40c9b0:	48 8b 7d e8          	mov    -0x18(%rbp),%rdi
  40c9b4:	e8 a7 4d 01 00       	callq  421760 <_ZNSt8_Rb_treeISsSsSt9_IdentityISsESt4lessISsESaISsEE11_M_put_nodeEPSt13_Rb_tree_nodeISsE430>
  40c9b9:	48 83 c4 20          	add    $0x20,%rsp
  40c9bd:	5d                   	pop    %rbp
  40c9be:	c3                   	retq   
--
  40c9c1:	48 89 e5             	mov    %rsp,%rbp
  40c9c4:	48 89 7d f8          	mov    %rdi,-0x8(%rbp)
  40c9c8:	48 8b 7d f8          	mov    -0x8(%rbp),%rdi
  40c9cc:	48 89 f8             	mov    %rdi,%rax
  40c9cf:	5d                   	pop    %rbp
  40c9d0:	c3                   	retq   
--
  40c9ec:	48 89 75 f0          	mov    %rsi,-0x10(%rbp)
  40c9f0:	48 8b 7d f0          	mov    -0x10(%rbp),%rdi
  40c9f4:	e8 f7 15 01 00       	callq  41dff0 <_ZNSt13_Rb_tree_nodeISsED2Ev273>
  40c9f9:	48 83 c4 10          	add    $0x10,%rsp
  40c9fd:	5d                   	pop    %rbp
  40c9fe:	c3                   	retq   
--
  40ca23:	48 89 f7             	mov    %rsi,%rdi
  40ca26:	48 8b 75 e8          	mov    -0x18(%rbp),%rsi
  40ca2a:	e8 81 87 01 00       	callq  4251b0 <_ZN9__gnu_cxx13new_allocatorISt13_Rb_tree_nodeISsEE10deallocateEPS2_m627>
  40ca2f:	48 83 c4 20          	add    $0x20,%rsp
  40ca33:	5d                   	pop    %rbp
  40ca34:	c3                   	retq   
--
  40ca54:	48 8b 55 f0          	mov    -0x10(%rbp),%rdx
  40ca58:	48 89 d7             	mov    %rdx,%rdi
  40ca5b:	e8 10 ac ff ff       	callq  407670 <_ZdlPv@plt>
  40ca60:	48 83 c4 20          	add    $0x20,%rsp
  40ca64:	5d                   	pop    %rbp
  40ca65:	c3                   	retq   
--
  40ca7c:	48 8b 7d f8          	mov    -0x8(%rbp),%rdi
  40ca80:	48 81 c7 20 00 00 00 	add    $0x20,%rdi
  40ca87:	e8 74 ad ff ff       	callq  407800 <_ZNSsD1Ev@plt>
  40ca8c:	48 83 c4 10          	add    $0x10,%rsp
  40ca90:	5d                   	pop    %rbp
  40ca91:	c3                   	retq   
--
  40cace:	e9 00 00 00 00       	jmpq   40cad3 <_ZNSt8_Rb_treeISsSt4pairIKSsSsESt10_Select1stIS2_ESt4lessISsESaIS2_EED2Ev+0x33>
  40cad3:	48 8b 7d e0          	mov    -0x20(%rbp),%rdi
  40cad7:	e8 34 c5 00 00       	callq  419010 <_ZNSt8_Rb_treeISsSt4pairIKSsSsESt10_Select1stIS2_ESt4lessISsESaIS2_EE13_Rb_tree_implIS6_Lb1EED2Ev1>
  40cadc:	48 83 c4 30          	add    $0x30,%rsp
  40cae0:	5d                   	pop    %rbp
  40cae1:	c3                   	retq   
--
  40cb5b:	48 8b 45 e8          	mov    -0x18(%rbp),%rax
  40cb5f:	48 89 45 f0          	mov    %rax,-0x10(%rbp)
  40cb63:	e9 b0 ff ff ff       	jmpq   40cb18 <_ZNSt8_Rb_treeISsSt4pairIKSsSsESt10_Select1stIS2_ESt4lessISsESaIS2_EE8_M_eraseEPSt13_Rb_tree_nodeIS2_E+0x18>
  40cb68:	48 83 c4 20          	add    $0x20,%rsp
  40cb6c:	5d                   	pop    %rbp
  40cb6d:	c3                   	retq   
--
  40cb74:	48 89 7d f8          	mov    %rdi,-0x8(%rbp)
  40cb78:	48 8b 7d f8          	mov    -0x8(%rbp),%rdi
  40cb7c:	48 8b 7f 10          	mov    0x10(%rdi),%rdi
  40cb80:	48 89 f8             	mov    %rdi,%rax
  40cb83:	5d                   	pop    %rbp
  40cb84:	c3                   	retq   
--
  40cb98:	48 89 7d f8          	mov    %rdi,-0x8(%rbp)
  40cb9c:	48 8b 7d f8          	mov    -0x8(%rbp),%rdi
  40cba0:	e8 fb 61 01 00       	callq  422da0 <_ZNSaISt13_Rb_tree_nodeISt4pairIKSsSsEEED2Ev495>
  40cba5:	48 83 c4 10          	add    $0x10,%rsp
  40cba9:	5d                   	pop    %rbp
  40cbaa:	c3                   	retq   
--
  40cbb8:	48 89 7d f8          	mov    %rdi,-0x8(%rbp)
  40cbbc:	48 8b 7d f8          	mov    -0x8(%rbp),%rdi
  40cbc0:	e8 0b 4d 01 00       	callq  4218d0 <_ZN9__gnu_cxx13new_allocatorISt13_Rb_tree_nodeISt4pairIKSsSsEEED2Ev436>
  40cbc5:	48 83 c4 10          	add    $0x10,%rsp
  40cbc9:	5d                   	pop    %rbp
  40cbca:	c3                   	retq   
--
000000000040cbd0 <_ZN9__gnu_cxx13new_allocatorISt13_Rb_tree_nodeISt4pairIKSsSsEEED2Ev>:
  40cbd0:	55                   	push   %rbp
  40cbd1:	48 89 e5             	mov    %rsp,%rbp
  40cbd4:	48 89 7d f8          	mov    %rdi,-0x8(%rbp)
  40cbd8:	5d                   	pop    %rbp
  40cbd9:	c3                   	retq   
--
  40cbe4:	48 89 7d f8          	mov    %rdi,-0x8(%rbp)
  40cbe8:	48 8b 7d f8          	mov    -0x8(%rbp),%rdi
  40cbec:	48 8b 7f 18          	mov    0x18(%rdi),%rdi
  40cbf0:	48 89 f8             	mov    %rdi,%rax
  40cbf3:	5d                   	pop    %rbp
  40cbf4:	c3                   	retq   
--
  40cc04:	48 89 7d f8          	mov    %rdi,-0x8(%rbp)
  40cc08:	48 8b 7d f8          	mov    -0x8(%rbp),%rdi
  40cc0c:	48 8b 7f 10          	mov    0x10(%rdi),%rdi
  40cc10:	48 89 f8             	mov    %rdi,%rax
  40cc13:	5d                   	pop    %rbp
  40cc14:	c3                   	retq   
--
  40cc4c:	48 8b 75 f0          	mov    -0x10(%rbp),%rsi
  40cc50:	48 8b 7d e8          	mov    -0x18(%rbp),%rdi
  40cc54:	e8 37 0b 01 00       	callq  41d790 <_ZNSt8_Rb_treeISsSt4pairIKSsSsESt10_Select1stIS2_ESt4lessISsESaIS2_EE11_M_put_nodeEPSt13_Rb_tree_nodeIS2_E242>
  40cc59:	48 83 c4 20          	add    $0x20,%rsp
  40cc5d:	5d                   	pop    %rbp
  40cc5e:	c3                   	retq   
--
  40cc61:	48 89 e5             	mov    %rsp,%rbp
  40cc64:	48 89 7d f8          	mov    %rdi,-0x8(%rbp)
  40cc68:	48 8b 7d f8          	mov    -0x8(%rbp),%rdi
  40cc6c:	48 89 f8             	mov    %rdi,%rax
  40cc6f:	5d                   	pop    %rbp
  40cc70:	c3                   	retq   
--
  40cc8c:	48 89 75 f0          	mov    %rsi,-0x10(%rbp)
  40cc90:	48 8b 7d f0          	mov    -0x10(%rbp),%rdi
  40cc94:	e8 47 c5 00 00       	callq  4191e0 <_ZNSt13_Rb_tree_nodeISt4pairIKSsSsEED2Ev6>
  40cc99:	48 83 c4 10          	add    $0x10,%rsp
  40cc9d:	5d                   	pop    %rbp
  40cc9e:	c3                   	retq   
--
  40ccc3:	48 89 f7             	mov    %rsi,%rdi
  40ccc6:	48 8b 75 e8          	mov    -0x18(%rbp),%rsi
  40ccca:	e8 c1 52 01 00       	callq  421f90 <_ZN9__gnu_cxx13new_allocatorISt13_Rb_tree_nodeISt4pairIKSsSsEEE10deallocateEPS5_m450>
  40cccf:	48 83 c4 20          	add    $0x20,%rsp
  40ccd3:	5d                   	pop    %rbp
  40ccd4:	c3                   	retq   
--
  40ccf4:	48 8b 55 f0          	mov    -0x10(%rbp),%rdx
  40ccf8:	48 89 d7             	mov    %rdx,%rdi
  40ccfb:	e8 70 a9 ff ff       	callq  407670 <_ZdlPv@plt>
  40cd00:	48 83 c4 20          	add    $0x20,%rsp
  40cd04:	5d                   	pop    %rbp
  40cd05:	c3                   	retq   
--
  40cd1c:	48 8b 7d f8          	mov    -0x8(%rbp),%rdi
  40cd20:	48 81 c7 20 00 00 00 	add    $0x20,%rdi
  40cd27:	e8 44 c5 00 00       	callq  419270 <_ZNSt4pairIKSsSsED2Ev11>
  40cd2c:	48 83 c4 10          	add    $0x10,%rsp
  40cd30:	5d                   	pop    %rbp
  40cd31:	c3                   	retq   
--
  40cd60:	e8 9b aa ff ff       	callq  407800 <_ZNSsD1Ev@plt>
  40cd65:	48 8b 7d f0          	mov    -0x10(%rbp),%rdi
  40cd69:	e8 92 aa ff ff       	callq  407800 <_ZNSsD1Ev@plt>
  40cd6e:	48 83 c4 10          	add    $0x10,%rsp
  40cd72:	5d                   	pop    %rbp
  40cd73:	c3                   	retq   
--
  40cd88:	48 89 7d f8          	mov    %rdi,-0x8(%rbp)
  40cd8c:	48 8b 7d f8          	mov    -0x8(%rbp),%rdi
  40cd90:	e8 2b 8d 01 00       	callq  425ac0 <_ZN5boost8any_castIRKtEET_RNS_3anyE664>
  40cd95:	48 83 c4 10          	add    $0x10,%rsp
  40cd99:	5d                   	pop    %rbp
  40cd9a:	c3                   	retq   
--
  40cdfa:	e8 41 fb 00 00       	callq  41c940 <_ZN5boost12bad_any_castD2Ev197>
  40cdff:	e9 0a 00 00 00       	jmpq   40ce0e <_ZN5boost8any_castIRKtEET_RNS_3anyE+0x6e>
  40ce04:	48 8b 45 f0          	mov    -0x10(%rbp),%rax
  40ce08:	48 83 c4 30          	add    $0x30,%rsp
  40ce0c:	5d                   	pop    %rbp
  40ce0d:	c3                   	retq   
--
  40ce96:	48 89 4d e0          	mov    %rcx,-0x20(%rbp)
  40ce9a:	e9 00 00 00 00       	jmpq   40ce9f <_ZN5boost8any_castIKtEEPT_PNS_3anyE+0x7f>
  40ce9f:	48 8b 45 e0          	mov    -0x20(%rbp),%rax
  40cea3:	48 83 c4 30          	add    $0x30,%rsp
  40cea7:	5d                   	pop    %rbp
  40cea8:	c3                   	retq   
--
  40cee4:	48 8b 75 f8          	mov    -0x8(%rbp),%rsi
  40cee8:	48 8d 4d c8          	lea    -0x38(%rbp),%rcx
  40ceec:	48 89 7d b0          	mov    %rdi,-0x50(%rbp)
  40cef0:	48 89 cf             	mov    %rcx,%rdi
  40cef3:	48 89 45 a8          	mov    %rax,-0x58(%rbp)
  40cef7:	e8 54 74 01 00       	callq  424350 <_ZN5boost17enable_error_infoINS_12bad_any_castEEENS_16exception_detail29enable_error_info_return_typeIT_E4typeERKS4_579>
--
  40cfa6:	48 05 10 00 00 00    	add    $0x10,%rax
  40cfac:	48 8b 7d f0          	mov    -0x10(%rbp),%rdi
  40cfb0:	48 89 07             	mov    %rax,(%rdi)
  40cfb3:	48 83 c4 10          	add    $0x10,%rsp
  40cfb7:	5d                   	pop    %rbp
  40cfb8:	c3                   	retq   
--
  40cfc8:	48 89 7d f8          	mov    %rdi,-0x8(%rbp)
  40cfcc:	48 8b 7d f8          	mov    -0x8(%rbp),%rdi
  40cfd0:	e8 cb a5 ff ff       	callq  4075a0 <_ZNSt8bad_castD2Ev@plt>
  40cfd5:	48 83 c4 10          	add    $0x10,%rsp
  40cfd9:	5d                   	pop    %rbp
  40cfda:	c3                   	retq   
--
  40d006:	48 05 10 00 00 00    	add    $0x10,%rax
  40d00c:	48 8b 7d f0          	mov    -0x10(%rbp),%rdi
  40d010:	48 89 07             	mov    %rax,(%rdi)
  40d013:	48 83 c4 10          	add    $0x10,%rsp
  40d017:	5d                   	pop    %rbp
  40d018:	c3                   	retq   
--
  40d034:	e8 07 f9 00 00       	callq  41c940 <_ZN5boost12bad_any_castD2Ev197>
  40d039:	48 8b 7d f0          	mov    -0x10(%rbp),%rdi
  40d03d:	e8 2e a6 ff ff       	callq  407670 <_ZdlPv@plt>
  40d042:	48 83 c4 10          	add    $0x10,%rsp
  40d046:	5d                   	pop    %rbp
  40d047:	c3                   	retq   
--
  40d050:	55                   	push   %rbp
  40d051:	48 89 e5             	mov    %rsp,%rbp
  40d054:	48 8d 05 00 9e 01 00 	lea    0x19e00(%rip),%rax        # 426e5b <_IO_stdin_used+0x25b>
  40d05b:	48 89 7d f8          	mov    %rdi,-0x8(%rbp)
  40d05f:	5d                   	pop    %rbp
  40d060:	c3                   	retq   
--
  40d07b:	48 05 10 00 00 00    	add    $0x10,%rax
  40d081:	48 89 7d f8          	mov    %rdi,-0x8(%rbp)
  40d085:	48 8b 7d f8          	mov    -0x8(%rbp),%rdi
  40d089:	48 89 07             	mov    %rax,(%rdi)
  40d08c:	5d                   	pop    %rbp
  40d08d:	c3                   	retq   
--
000000000040d090 <_ZN5boost36throw_exception_assert_compatibilityERKSt9exception>:
  40d090:	55                   	push   %rbp
  40d091:	48 89 e5             	mov    %rsp,%rbp
  40d094:	48 89 7d f8          	mov    %rdi,-0x8(%rbp)
  40d098:	5d                   	pop    %rbp
  40d099:	c3                   	retq   
--
  40d0b3:	48 89 45 f0          	mov    %rax,-0x10(%rbp)
  40d0b7:	e8 f4 6e 01 00       	callq  423fb0 <_ZN5boost16exception_detail10clone_implINS0_19error_info_injectorINS_12bad_any_castEEEEC1ERKS4_565>
  40d0bc:	48 8b 45 f0          	mov    -0x10(%rbp),%rax
  40d0c0:	48 83 c4 10          	add    $0x10,%rsp
  40d0c4:	5d                   	pop    %rbp
  40d0c5:	c3                   	retq   
  40d0c6:	66 2e 0f 1f 84 00 00 	nopw   %cs:0x0(%rax,%rax,1)
  40d0cd:	00 00 00 

000000000040d0d0 <_ZN5boost17enable_error_infoINS_12bad_any_castEEENS_16exception_detail29enable_error_info_return_typeIT_E4typeERKS4_>:
--
  40d0e3:	48 89 45 f0          	mov    %rax,-0x10(%rbp)
  40d0e7:	e8 64 21 01 00       	callq  41f250 <_ZN5boost16exception_detail19error_info_injectorINS_12bad_any_castEEC2ERKS2_330>
  40d0ec:	48 8b 45 f0          	mov    -0x10(%rbp),%rax
  40d0f0:	48 83 c4 10          	add    $0x10,%rsp
  40d0f4:	5d                   	pop    %rbp
  40d0f5:	c3                   	retq   
--
  40d124:	48 81 c6 30 00 00 00 	add    $0x30,%rsi
  40d12b:	48 89 f7             	mov    %rsi,%rdi
  40d12e:	e8 fd 2a 01 00       	callq  41fc30 <_ZN5boost16exception_detail10clone_baseD2Ev363>
  40d133:	48 83 c4 10          	add    $0x10,%rsp
  40d137:	5d                   	pop    %rbp
  40d138:	c3                   	retq   
--
  40d165:	48 8b 45 f0          	mov    -0x10(%rbp),%rax
  40d169:	48 89 c7             	mov    %rax,%rdi
  40d16c:	e8 cf f7 00 00       	callq  41c940 <_ZN5boost12bad_any_castD2Ev197>
  40d171:	48 83 c4 10          	add    $0x10,%rsp
  40d175:	5d                   	pop    %rbp
  40d176:	c3                   	retq   
--
  40d18c:	48 8b 7d f8          	mov    -0x8(%rbp),%rdi
  40d190:	48 81 c7 f8 ff ff ff 	add    $0xfffffffffffffff8,%rdi
  40d197:	e8 84 5d 01 00       	callq  422f20 <_ZN5boost16exception_detail19error_info_injectorINS_12bad_any_castEED2Ev503>
  40d19c:	48 83 c4 10          	add    $0x10,%rsp
  40d1a0:	5d                   	pop    %rbp
  40d1a1:	c3                   	retq   
--
  40d1cd:	48 89 07             	mov    %rax,(%rdi)
  40d1d0:	48 81 c7 08 00 00 00 	add    $0x8,%rdi
  40d1d7:	e8 e4 35 01 00       	callq  4207c0 <_ZN5boost16exception_detail12refcount_ptrINS0_20error_info_containerEED2Ev400>
  40d1dc:	48 83 c4 10          	add    $0x10,%rsp
  40d1e0:	5d                   	pop    %rbp
  40d1e1:	c3                   	retq   
--
  40d1f8:	48 89 7d f8          	mov    %rdi,-0x8(%rbp)
  40d1fc:	e8 2f 82 01 00       	callq  425430 <_ZN5boost16exception_detail12refcount_ptrINS0_20error_info_containerEE7releaseEv637>
  40d201:	e9 00 00 00 00       	jmpq   40d206 <_ZN5boost16exception_detail12refcount_ptrINS0_20error_info_containerEED2Ev+0x16>
  40d206:	48 83 c4 10          	add    $0x10,%rsp
  40d20a:	5d                   	pop    %rbp
  40d20b:	c3                   	retq   
--
  40d259:	e9 0b 00 00 00       	jmpq   40d269 <_ZN5boost16exception_detail12refcount_ptrINS0_20error_info_containerEE7releaseEv+0x49>
  40d25e:	48 8b 45 f0          	mov    -0x10(%rbp),%rax
  40d262:	48 c7 00 00 00 00 00 	movq   $0x0,(%rax)
  40d269:	48 83 c4 10          	add    $0x10,%rsp
  40d26d:	5d                   	pop    %rbp
  40d26e:	c3                   	retq   
--
  40d280:	48 8b 75 f8          	mov    -0x8(%rbp),%rsi
  40d284:	48 89 f7             	mov    %rsi,%rdi
  40d287:	e8 94 5c 01 00       	callq  422f20 <_ZN5boost16exception_detail19error_info_injectorINS_12bad_any_castEED2Ev503>
  40d28c:	48 83 c4 10          	add    $0x10,%rsp
  40d290:	5d                   	pop    %rbp
  40d291:	c3                   	retq   
--
  40d2ac:	48 8b 7d f8          	mov    -0x8(%rbp),%rdi
  40d2b0:	48 81 c7 f8 ff ff ff 	add    $0xfffffffffffffff8,%rdi
  40d2b7:	e8 94 26 01 00       	callq  41f950 <_ZN5boost16exception_detail10clone_implINS0_19error_info_injectorINS_12bad_any_castEEEED1Ev351>
  40d2bc:	48 83 c4 10          	add    $0x10,%rsp
  40d2c0:	5d                   	pop    %rbp
  40d2c1:	c3                   	retq   
--
  40d2e6:	48 03 47 d8          	add    -0x28(%rdi),%rax
  40d2ea:	48 89 c7             	mov    %rax,%rdi
  40d2ed:	e8 5e 26 01 00       	callq  41f950 <_ZN5boost16exception_detail10clone_implINS0_19error_info_injectorINS_12bad_any_castEEEED1Ev351>
  40d2f2:	48 83 c4 10          	add    $0x10,%rsp
  40d2f6:	5d                   	pop    %rbp
  40d2f7:	c3                   	retq   
--
  40d314:	e8 37 26 01 00       	callq  41f950 <_ZN5boost16exception_detail10clone_implINS0_19error_info_injectorINS_12bad_any_castEEEED1Ev351>
  40d319:	48 8b 7d f0          	mov    -0x10(%rbp),%rdi
  40d31d:	e8 4e a3 ff ff       	callq  407670 <_ZdlPv@plt>
  40d322:	48 83 c4 10          	add    $0x10,%rsp
  40d326:	5d                   	pop    %rbp
  40d327:	c3                   	retq   
--
  40d392:	48 01 c8             	add    %rcx,%rax
  40d395:	48 89 45 c0          	mov    %rax,-0x40(%rbp)
  40d399:	48 8b 45 c0          	mov    -0x40(%rbp),%rax
  40d39d:	48 83 c4 40          	add    $0x40,%rsp
  40d3a1:	5d                   	pop    %rbp
  40d3a2:	c3                   	retq   
--
  40d3b0:	e8 bb a2 ff ff       	callq  407670 <_ZdlPv@plt>
  40d3b5:	48 8b 7d e8          	mov    -0x18(%rbp),%rdi
  40d3b9:	e8 a2 a8 ff ff       	callq  407c60 <_Unwind_Resume@plt>
  40d3be:	66 90                	xchg   %ax,%ax

000000000040d3c0 <_ZNK5boost16exception_detail10clone_implINS0_19error_info_injectorINS_12bad_any_castEEEE7rethrowEv>:
--
  40d3df:	48 89 c1             	mov    %rax,%rcx
  40d3e2:	48 89 c7             	mov    %rax,%rdi
  40d3e5:	48 8b 75 e0          	mov    -0x20(%rbp),%rsi
  40d3e9:	48 89 4d d8          	mov    %rcx,-0x28(%rbp)
  40d3ed:	e8 5e cc 00 00       	callq  41a050 <_ZN5boost16exception_detail10clone_implINS0_19error_info_injectorINS_12bad_any_castEEEEC1ERKS5_69>
  40d3f2:	e9 00 00 00 00       	jmpq   40d3f7 <_ZNK5boost16exception_detail10clone_implINS0_19error_info_injectorINS_12bad_any_castEEEE7rethrowEv+0x37>
--
  40d43c:	48 8b 7d f8          	mov    -0x8(%rbp),%rdi
  40d440:	48 81 c7 f8 ff ff ff 	add    $0xfffffffffffffff8,%rdi
  40d447:	e8 24 e0 00 00       	callq  41b470 <_ZN5boost16exception_detail10clone_implINS0_19error_info_injectorINS_12bad_any_castEEEED0Ev124>
  40d44c:	48 83 c4 10          	add    $0x10,%rsp
  40d450:	5d                   	pop    %rbp
  40d451:	c3                   	retq   
--
  40d476:	48 03 47 e8          	add    -0x18(%rdi),%rax
  40d47a:	48 89 c7             	mov    %rax,%rdi
  40d47d:	e8 1e 27 01 00       	callq  41fba0 <_ZNK5boost16exception_detail10clone_implINS0_19error_info_injectorINS_12bad_any_castEEEE5cloneEv362>
  40d482:	48 83 c4 10          	add    $0x10,%rsp
  40d486:	5d                   	pop    %rbp
  40d487:	c3                   	retq   
  40d488:	0f 1f 84 00 00 00 00 	nopl   0x0(%rax,%rax,1)
  40d48f:	00 

000000000040d490 <_ZTv0_n32_NK5boost16exception_detail10clone_implINS0_19error_info_injectorINS_12bad_any_castEEEE7rethrowEv>:
--
  40d49c:	48 8b 7d f8          	mov    -0x8(%rbp),%rdi
  40d4a0:	48 89 f8             	mov    %rdi,%rax
  40d4a3:	48 8b 3f             	mov    (%rdi),%rdi
  40d4a6:	48 03 47 e0          	add    -0x20(%rdi),%rax
  40d4aa:	48 89 c7             	mov    %rax,%rdi
  40d4ad:	e8 ee d7 00 00       	callq  41aca0 <_ZNK5boost16exception_detail10clone_implINS0_19error_info_injectorINS_12bad_any_castEEEE7rethrowEv92>
  40d4b2:	48 83 c4 10          	add    $0x10,%rsp
  40d4b6:	5d                   	pop    %rbp
  40d4b7:	c3                   	retq   
--
  40d4d6:	48 03 47 d8          	add    -0x28(%rdi),%rax
  40d4da:	48 89 c7             	mov    %rax,%rdi
  40d4dd:	e8 8e df 00 00       	callq  41b470 <_ZN5boost16exception_detail10clone_implINS0_19error_info_injectorINS_12bad_any_castEEEED0Ev124>
  40d4e2:	48 83 c4 10          	add    $0x10,%rsp
  40d4e6:	5d                   	pop    %rbp
  40d4e7:	c3                   	retq   
--
  40d558:	48 89 06             	mov    %rax,(%rsi)
  40d55b:	48 89 56 08          	mov    %rdx,0x8(%rsi)
  40d55f:	48 89 4e 30          	mov    %rcx,0x30(%rsi)
  40d563:	48 83 c4 30          	add    $0x30,%rsp
  40d567:	5d                   	pop    %rbp
  40d568:	c3                   	retq   
--
  40d5a1:	48 89 7d f8          	mov    %rdi,-0x8(%rbp)
  40d5a5:	48 89 75 f0          	mov    %rsi,-0x10(%rbp)
  40d5a9:	48 8b 75 f8          	mov    -0x8(%rbp),%rsi
  40d5ad:	48 89 06             	mov    %rax,(%rsi)
  40d5b0:	5d                   	pop    %rbp
  40d5b1:	c3                   	retq   
--
  40d619:	48 8b 55 d8          	mov    -0x28(%rbp),%rdx
  40d61d:	48 89 02             	mov    %rax,(%rdx)
  40d620:	48 89 4a 08          	mov    %rcx,0x8(%rdx)
  40d624:	48 83 c4 30          	add    $0x30,%rsp
  40d628:	5d                   	pop    %rbp
  40d629:	c3                   	retq   
--
  40d67e:	48 05 10 00 00 00    	add    $0x10,%rax
  40d684:	48 8b 75 e8          	mov    -0x18(%rbp),%rsi
  40d688:	48 89 06             	mov    %rax,(%rsi)
  40d68b:	48 83 c4 20          	add    $0x20,%rsp
  40d68f:	5d                   	pop    %rbp
  40d690:	c3                   	retq   
--
  40d703:	48 89 77 18          	mov    %rsi,0x18(%rdi)
  40d707:	8b 48 20             	mov    0x20(%rax),%ecx
  40d70a:	89 4f 20             	mov    %ecx,0x20(%rdi)
  40d70d:	48 83 c4 20          	add    $0x20,%rsp
  40d711:	5d                   	pop    %rbp
  40d712:	c3                   	retq   
--
  40d734:	e8 e7 57 01 00       	callq  422f20 <_ZN5boost16exception_detail19error_info_injectorINS_12bad_any_castEED2Ev503>
  40d739:	48 8b 7d f0          	mov    -0x10(%rbp),%rdi
  40d73d:	e8 2e 9f ff ff       	callq  407670 <_ZdlPv@plt>
  40d742:	48 83 c4 10          	add    $0x10,%rsp
  40d746:	5d                   	pop    %rbp
  40d747:	c3                   	retq   
--
  40d75c:	48 8b 7d f8          	mov    -0x8(%rbp),%rdi
  40d760:	48 81 c7 f8 ff ff ff 	add    $0xfffffffffffffff8,%rdi
  40d767:	e8 24 f9 00 00       	callq  41d090 <_ZN5boost16exception_detail19error_info_injectorINS_12bad_any_castEED0Ev218>
  40d76c:	48 83 c4 10          	add    $0x10,%rsp
  40d770:	5d                   	pop    %rbp
  40d771:	c3                   	retq   
--
  40d79b:	48 89 3e             	mov    %rdi,(%rsi)
  40d79e:	48 89 f7             	mov    %rsi,%rdi
  40d7a1:	e8 0a eb 00 00       	callq  41c2b0 <_ZN5boost16exception_detail12refcount_ptrINS0_20error_info_containerEE7add_refEv178>
  40d7a6:	48 83 c4 10          	add    $0x10,%rsp
  40d7aa:	5d                   	pop    %rbp
  40d7ab:	c3                   	retq   
--
  40d7d8:	48 8b 11             	mov    (%rcx),%rdx
  40d7db:	48 89 cf             	mov    %rcx,%rdi
  40d7de:	ff 52 18             	callq  *0x18(%rdx)
  40d7e1:	48 83 c4 10          	add    $0x10,%rsp
  40d7e5:	5d                   	pop    %rbp
  40d7e6:	c3                   	retq   
--
  40d81e:	48 05 10 00 00 00    	add    $0x10,%rax
  40d824:	48 8b 75 e8          	mov    -0x18(%rbp),%rsi
  40d828:	48 89 06             	mov    %rax,(%rsi)
  40d82b:	48 83 c4 20          	add    $0x20,%rsp
  40d82f:	5d                   	pop    %rbp
  40d830:	c3                   	retq   
--
  40d851:	48 89 7d f8          	mov    %rdi,-0x8(%rbp)
  40d855:	48 89 75 f0          	mov    %rsi,-0x10(%rbp)
  40d859:	48 8b 75 f8          	mov    -0x8(%rbp),%rsi
  40d85d:	48 89 06             	mov    %rax,(%rsi)
  40d860:	5d                   	pop    %rbp
  40d861:	c3                   	retq   
--
000000000040d870 <_ZN5boost16exception_detail10clone_baseD2Ev>:
  40d870:	55                   	push   %rbp
  40d871:	48 89 e5             	mov    %rsp,%rbp
  40d874:	48 89 7d f8          	mov    %rdi,-0x8(%rbp)
  40d878:	5d                   	pop    %rbp
  40d879:	c3                   	retq   
--
  40d894:	e8 97 23 01 00       	callq  41fc30 <_ZN5boost16exception_detail10clone_baseD2Ev363>
  40d899:	48 8b 7d f0          	mov    -0x10(%rbp),%rdi
  40d89d:	e8 ce 9d ff ff       	callq  407670 <_ZdlPv@plt>
  40d8a2:	48 83 c4 10          	add    $0x10,%rsp
  40d8a6:	5d                   	pop    %rbp
  40d8a7:	c3                   	retq   
--
  40d955:	48 89 c6             	mov    %rax,%rsi
  40d958:	e8 a3 11 01 00       	callq  41eb00 <_ZN5boost16exception_detail20copy_boost_exceptionEPNS_9exceptionEPKS1_315>
  40d95d:	e9 00 00 00 00       	jmpq   40d962 <_ZN5boost16exception_detail10clone_implINS0_19error_info_injectorINS_12bad_any_castEEEEC1ERKS5_NS5_9clone_tagE+0xb2>
  40d962:	48 83 c4 50          	add    $0x50,%rsp
  40d966:	5d                   	pop    %rbp
  40d967:	c3                   	retq   
--
  40d9bb:	48 05 10 00 00 00    	add    $0x10,%rax
  40d9c1:	48 89 7d f8          	mov    %rdi,-0x8(%rbp)
  40d9c5:	48 8b 7d f8          	mov    -0x8(%rbp),%rdi
  40d9c9:	48 89 07             	mov    %rax,(%rdi)
  40d9cc:	5d                   	pop    %rbp
  40d9cd:	c3                   	retq   
--
  40dac0:	e9 00 00 00 00       	jmpq   40dac5 <_ZN5boost16exception_detail20copy_boost_exceptionEPNS_9exceptionEPKS1_+0xf5>
  40dac5:	48 8d 7d e8          	lea    -0x18(%rbp),%rdi
  40dac9:	e8 f2 2c 01 00       	callq  4207c0 <_ZN5boost16exception_detail12refcount_ptrINS0_20error_info_containerEED2Ev400>
  40dace:	48 83 c4 50          	add    $0x50,%rsp
  40dad2:	5d                   	pop    %rbp
  40dad3:	c3                   	retq   
--
  40daf1:	48 89 e5             	mov    %rsp,%rbp
  40daf4:	48 89 7d f8          	mov    %rdi,-0x8(%rbp)
  40daf8:	48 8b 7d f8          	mov    -0x8(%rbp),%rdi
  40dafc:	48 c7 07 00 00 00 00 	movq   $0x0,(%rdi)
  40db03:	5d                   	pop    %rbp
  40db04:	c3                   	retq   
--
  40db11:	48 89 e5             	mov    %rsp,%rbp
  40db14:	48 89 7d f8          	mov    %rdi,-0x8(%rbp)
  40db18:	48 8b 7d f8          	mov    -0x8(%rbp),%rdi
  40db1c:	48 8b 07             	mov    (%rdi),%rax
  40db1f:	5d                   	pop    %rbp
  40db20:	c3                   	retq   
--
  40db5a:	48 89 c6             	mov    %rax,%rsi
  40db5d:	e8 7e 76 01 00       	callq  4251e0 <_ZN5boost16exception_detail12refcount_ptrINS0_20error_info_containerEE5adoptEPS2_628>
  40db62:	48 8b 45 e0          	mov    -0x20(%rbp),%rax
  40db66:	48 83 c4 20          	add    $0x20,%rsp
  40db6a:	5d                   	pop    %rbp
  40db6b:	c3                   	retq   
--
  40db94:	48 8b 7d e8          	mov    -0x18(%rbp),%rdi
  40db98:	48 89 37             	mov    %rsi,(%rdi)
  40db9b:	e8 10 e7 00 00       	callq  41c2b0 <_ZN5boost16exception_detail12refcount_ptrINS0_20error_info_containerEE7add_refEv178>
  40dba0:	48 83 c4 20          	add    $0x20,%rsp
  40dba4:	5d                   	pop    %rbp
  40dba5:	c3                   	retq   
--
  40dbf9:	48 8b 55 d8          	mov    -0x28(%rbp),%rdx
  40dbfd:	48 89 02             	mov    %rax,(%rdx)
  40dc00:	48 89 4a 08          	mov    %rcx,0x8(%rdx)
  40dc04:	48 83 c4 30          	add    $0x30,%rsp
  40dc08:	5d                   	pop    %rbp
  40dc09:	c3                   	retq   
--
  40dc71:	48 c7 40 18 00 00 00 	movq   $0x0,0x18(%rax)
  40dc78:	00 
  40dc79:	c7 40 20 ff ff ff ff 	movl   $0xffffffff,0x20(%rax)
  40dc80:	48 83 c4 10          	add    $0x10,%rsp
  40dc84:	5d                   	pop    %rbp
  40dc85:	c3                   	retq   
--
  40dd35:	48 89 c6             	mov    %rax,%rsi
  40dd38:	e8 c3 0d 01 00       	callq  41eb00 <_ZN5boost16exception_detail20copy_boost_exceptionEPNS_9exceptionEPKS1_315>
  40dd3d:	e9 00 00 00 00       	jmpq   40dd42 <_ZN5boost16exception_detail10clone_implINS0_19error_info_injectorINS_12bad_any_castEEEEC1ERKS4_+0xb2>
  40dd42:	48 83 c4 40          	add    $0x40,%rsp
  40dd46:	5d                   	pop    %rbp
  40dd47:	c3                   	retq   
--
  40ddd1:	48 89 45 e8          	mov    %rax,-0x18(%rbp)
  40ddd5:	e9 00 00 00 00       	jmpq   40ddda <_ZNK5boost3any4typeEv+0x4a>
  40ddda:	48 8b 45 e8          	mov    -0x18(%rbp),%rax
  40ddde:	48 83 c4 20          	add    $0x20,%rsp
  40dde2:	5d                   	pop    %rbp
  40dde3:	c3                   	retq   
--
  40de2b:	48 8b 45 f0          	mov    -0x10(%rbp),%rax
  40de2f:	48 8b 48 08          	mov    0x8(%rax),%rcx
  40de33:	48 89 4d e8          	mov    %rcx,-0x18(%rbp)
  40de37:	48 8b 45 e8          	mov    -0x18(%rbp),%rax
  40de3b:	5d                   	pop    %rbp
  40de3c:	c3                   	retq   
--
  40de7e:	8a 45 f7             	mov    -0x9(%rbp),%al
  40de81:	24 01                	and    $0x1,%al
  40de83:	0f b6 c0             	movzbl %al,%eax
  40de86:	48 83 c4 10          	add    $0x10,%rsp
  40de8a:	5d                   	pop    %rbp
  40de8b:	c3                   	retq   
--
  40de91:	48 89 e5             	mov    %rsp,%rbp
  40de94:	48 89 7d f8          	mov    %rdi,-0x8(%rbp)
  40de98:	48 8b 7d f8          	mov    -0x8(%rbp),%rdi
  40de9c:	8b 07                	mov    (%rdi),%eax
  40de9e:	5d                   	pop    %rbp
  40de9f:	c3                   	retq   
--
  40dea8:	48 89 7d f8          	mov    %rdi,-0x8(%rbp)
  40deac:	48 8b 7d f8          	mov    -0x8(%rbp),%rdi
  40deb0:	e8 5b 03 01 00       	callq  41e210 <_ZN5boost8any_castIRKSsEET_RNS_3anyE282>
  40deb5:	48 83 c4 10          	add    $0x10,%rsp
  40deb9:	5d                   	pop    %rbp
  40deba:	c3                   	retq   
--
  40df1a:	e8 21 ea 00 00       	callq  41c940 <_ZN5boost12bad_any_castD2Ev197>
  40df1f:	e9 0a 00 00 00       	jmpq   40df2e <_ZN5boost8any_castIRKSsEET_RNS_3anyE+0x6e>
  40df24:	48 8b 45 f0          	mov    -0x10(%rbp),%rax
  40df28:	48 83 c4 30          	add    $0x30,%rsp
  40df2c:	5d                   	pop    %rbp
  40df2d:	c3                   	retq   
--
  40dfb6:	48 89 4d e0          	mov    %rcx,-0x20(%rbp)
  40dfba:	e9 00 00 00 00       	jmpq   40dfbf <_ZN5boost8any_castIKSsEEPT_PNS_3anyE+0x7f>
  40dfbf:	48 8b 45 e0          	mov    -0x20(%rbp),%rax
  40dfc3:	48 83 c4 30          	add    $0x30,%rsp
  40dfc7:	5d                   	pop    %rbp
  40dfc8:	c3                   	retq   
--
  40e087:	48 8b 45 e0          	mov    -0x20(%rbp),%rax
  40e08b:	48 89 45 f8          	mov    %rax,-0x8(%rbp)
  40e08f:	48 8b 45 f8          	mov    -0x8(%rbp),%rax
  40e093:	48 83 c4 40          	add    $0x40,%rsp
  40e097:	5d                   	pop    %rbp
  40e098:	c3                   	retq   
--
  40e0b7:	48 3b 37             	cmp    (%rdi),%rsi
  40e0ba:	0f 94 c0             	sete   %al
  40e0bd:	24 01                	and    $0x1,%al
  40e0bf:	0f b6 c0             	movzbl %al,%eax
  40e0c2:	5d                   	pop    %rbp
  40e0c3:	c3                   	retq   
--
  40e0ef:	e8 ac 61 01 00       	callq  4242a0 <_ZNSt23_Rb_tree_const_iteratorISt4pairIKSsN5boost15program_options14variable_valueEEEC2EPKSt13_Rb_tree_nodeIS5_E576>
  40e0f4:	e9 00 00 00 00       	jmpq   40e0f9 <_ZNKSt8_Rb_treeISsSt4pairIKSsN5boost15program_options14variable_valueEESt10_Select1stIS5_ESt4lessISsESaIS5_EE3endEv+0x29>
  40e0f9:	48 8b 45 f8          	mov    -0x8(%rbp),%rax
  40e0fd:	48 83 c4 20          	add    $0x20,%rsp
  40e101:	5d                   	pop    %rbp
  40e102:	c3                   	retq   
--
  40e118:	48 89 75 f0          	mov    %rsi,-0x10(%rbp)
  40e11c:	48 8b 75 f8          	mov    -0x8(%rbp),%rsi
  40e120:	48 8b 7d f0          	mov    -0x10(%rbp),%rdi
  40e124:	48 89 3e             	mov    %rdi,(%rsi)
  40e127:	5d                   	pop    %rbp
  40e128:	c3                   	retq   
--
  40e1b5:	48 8b 75 e0          	mov    -0x20(%rbp),%rsi
  40e1b9:	e8 e2 60 01 00       	callq  4242a0 <_ZNSt23_Rb_tree_const_iteratorISt4pairIKSsN5boost15program_options14variable_valueEEEC2EPKSt13_Rb_tree_nodeIS5_E576>
  40e1be:	48 8b 45 f8          	mov    -0x8(%rbp),%rax
  40e1c2:	48 83 c4 30          	add    $0x30,%rsp
  40e1c6:	5d                   	pop    %rbp
  40e1c7:	c3                   	retq   
--
  40e1d4:	48 89 7d f8          	mov    %rdi,-0x8(%rbp)
  40e1d8:	48 8b 7d f8          	mov    -0x8(%rbp),%rdi
  40e1dc:	48 8b 7f 10          	mov    0x10(%rdi),%rdi
  40e1e0:	48 89 f8             	mov    %rdi,%rax
  40e1e3:	5d                   	pop    %rbp
  40e1e4:	c3                   	retq   
--
  40e1f4:	48 89 7d f8          	mov    %rdi,-0x8(%rbp)
  40e1f8:	48 8b 7d f8          	mov    -0x8(%rbp),%rdi
  40e1fc:	48 81 c7 08 00 00 00 	add    $0x8,%rdi
  40e203:	48 89 f8             	mov    %rdi,%rax
  40e206:	5d                   	pop    %rbp
  40e207:	c3                   	retq   
--
  40e22c:	e8 6f 2d 01 00       	callq  420fa0 <_ZStltIcSt11char_traitsIcESaIcEEbRKSbIT_T0_T1_ES8_412>
  40e231:	24 01                	and    $0x1,%al
  40e233:	0f b6 c0             	movzbl %al,%eax
  40e236:	48 83 c4 20          	add    $0x20,%rsp
  40e23a:	5d                   	pop    %rbp
  40e23b:	c3                   	retq   
--
  40e255:	48 8d 7d f0          	lea    -0x10(%rbp),%rdi
  40e259:	48 89 c6             	mov    %rax,%rsi
  40e25c:	e8 2f 01 01 00       	callq  41e390 <_ZNKSt10_Select1stISt4pairIKSsN5boost15program_options14variable_valueEEEclERKS5_288>
  40e261:	48 83 c4 10          	add    $0x10,%rsp
  40e265:	5d                   	pop    %rbp
  40e266:	c3                   	retq   
--
  40e271:	48 89 e5             	mov    %rsp,%rbp
  40e274:	48 89 7d f8          	mov    %rdi,-0x8(%rbp)
  40e278:	48 89 75 f0          	mov    %rsi,-0x10(%rbp)
  40e27c:	48 8b 45 f0          	mov    -0x10(%rbp),%rax
  40e280:	5d                   	pop    %rbp
  40e281:	c3                   	retq   
--
  40e294:	48 89 7d f8          	mov    %rdi,-0x8(%rbp)
  40e298:	48 8b 7d f8          	mov    -0x8(%rbp),%rdi
  40e29c:	48 81 c7 20 00 00 00 	add    $0x20,%rdi
  40e2a3:	48 89 f8             	mov    %rdi,%rax
  40e2a6:	5d                   	pop    %rbp
  40e2a7:	c3                   	retq   
--
  40e2d2:	0f 9c c1             	setl   %cl
  40e2d5:	80 e1 01             	and    $0x1,%cl
  40e2d8:	0f b6 c1             	movzbl %cl,%eax
  40e2db:	48 83 c4 10          	add    $0x10,%rsp
  40e2df:	5d                   	pop    %rbp
  40e2e0:	c3                   	retq   
--
  40e305:	48 8d 7d f0          	lea    -0x10(%rbp),%rdi
  40e309:	48 89 c6             	mov    %rax,%rsi
  40e30c:	e8 7f 00 01 00       	callq  41e390 <_ZNKSt10_Select1stISt4pairIKSsN5boost15program_options14variable_valueEEEclERKS5_288>
  40e311:	48 83 c4 10          	add    $0x10,%rsp
  40e315:	5d                   	pop    %rbp
  40e316:	c3                   	retq   
--
  40e324:	48 89 7d f8          	mov    %rdi,-0x8(%rbp)
  40e328:	48 8b 7d f8          	mov    -0x8(%rbp),%rdi
  40e32c:	48 8b 7f 10          	mov    0x10(%rdi),%rdi
  40e330:	48 89 f8             	mov    %rdi,%rax
  40e333:	5d                   	pop    %rbp
  40e334:	c3                   	retq   
--
  40e344:	48 89 7d f8          	mov    %rdi,-0x8(%rbp)
  40e348:	48 8b 7d f8          	mov    -0x8(%rbp),%rdi
  40e34c:	48 8b 7f 18          	mov    0x18(%rdi),%rdi
  40e350:	48 89 f8             	mov    %rdi,%rax
  40e353:	5d                   	pop    %rbp
  40e354:	c3                   	retq   
--
  40e364:	48 89 7d f8          	mov    %rdi,-0x8(%rbp)
  40e368:	48 8b 7d f8          	mov    -0x8(%rbp),%rdi
  40e36c:	48 81 c7 20 00 00 00 	add    $0x20,%rdi
  40e373:	48 89 f8             	mov    %rdi,%rax
  40e376:	5d                   	pop    %rbp
  40e377:	c3                   	retq   
--
  40e3b2:	e8 69 59 01 00       	callq  423d20 <_ZN5boost9function1ISt4pairISsSsERKSsED2Ev555>
  40e3b7:	48 8b 7d f0          	mov    -0x10(%rbp),%rdi
  40e3bb:	e8 40 f4 00 00       	callq  41d800 <_ZNSt6vectorISsSaISsEED2Ev244>
  40e3c0:	48 83 c4 10          	add    $0x10,%rsp
  40e3c4:	5d                   	pop    %rbp
  40e3c5:	c3                   	retq   
--
  40e3d8:	48 89 7d f8          	mov    %rdi,-0x8(%rbp)
  40e3dc:	e8 8f 1b 01 00       	callq  41ff70 <_ZN5boost9function1ISt6vectorINS_15program_options12basic_optionIcEESaIS4_EERS1_ISsSaISsEEE5clearEv368>
  40e3e1:	e9 00 00 00 00       	jmpq   40e3e6 <_ZN5boost9function1ISt6vectorINS_15program_options12basic_optionIcEESaIS4_EERS1_ISsSaISsEEED2Ev+0x16>
  40e3e6:	48 83 c4 10          	add    $0x10,%rsp
  40e3ea:	5d                   	pop    %rbp
  40e3eb:	c3                   	retq   
--
  40e408:	48 89 7d f8          	mov    %rdi,-0x8(%rbp)
  40e40c:	e8 7f fe 00 00       	callq  41e290 <_ZN5boost9function1ISt4pairISsSsERKSsE5clearEv283>
  40e411:	e9 00 00 00 00       	jmpq   40e416 <_ZN5boost9function1ISt4pairISsSsERKSsED2Ev+0x16>
  40e416:	48 83 c4 10          	add    $0x10,%rsp
  40e41a:	5d                   	pop    %rbp
  40e41b:	c3                   	retq   
--
  40e46c:	48 8b 45 d8          	mov    -0x28(%rbp),%rax
  40e470:	48 89 c7             	mov    %rax,%rdi
  40e473:	e8 98 47 01 00       	callq  422c10 <_ZNSt12_Vector_baseISsSaISsEED2Ev488>
  40e478:	48 83 c4 30          	add    $0x30,%rsp
  40e47c:	5d                   	pop    %rbp
  40e47d:	c3                   	retq   
--
  40e4b4:	48 8b 7d f8          	mov    -0x8(%rbp),%rdi
  40e4b8:	48 8b 75 f0          	mov    -0x10(%rbp),%rsi
  40e4bc:	e8 0f cc 00 00       	callq  41b0d0 <_ZSt8_DestroyIPSsEvT_S1_110>
  40e4c1:	48 83 c4 20          	add    $0x20,%rsp
  40e4c5:	5d                   	pop    %rbp
  40e4c6:	c3                   	retq   
--
  40e4d1:	48 89 e5             	mov    %rsp,%rbp
  40e4d4:	48 89 7d f8          	mov    %rdi,-0x8(%rbp)
  40e4d8:	48 8b 7d f8          	mov    -0x8(%rbp),%rdi
  40e4dc:	48 89 f8             	mov    %rdi,%rax
  40e4df:	5d                   	pop    %rbp
  40e4e0:	c3                   	retq   
--
  40e519:	e9 00 00 00 00       	jmpq   40e51e <_ZNSt12_Vector_baseISsSaISsEED2Ev+0x2e>
  40e51e:	48 8b 7d e0          	mov    -0x20(%rbp),%rdi
  40e522:	e8 f9 f5 00 00       	callq  41db20 <_ZNSt12_Vector_baseISsSaISsEE12_Vector_implD2Ev254>
  40e527:	48 83 c4 20          	add    $0x20,%rsp
  40e52b:	5d                   	pop    %rbp
  40e52c:	c3                   	retq   
--
  40e582:	48 8b 55 e8          	mov    -0x18(%rbp),%rdx
  40e586:	48 89 c7             	mov    %rax,%rdi
  40e589:	e8 92 cf 00 00       	callq  41b520 <_ZN9__gnu_cxx13new_allocatorISsE10deallocateEPSsm128>
  40e58e:	48 83 c4 20          	add    $0x20,%rsp
  40e592:	5d                   	pop    %rbp
  40e593:	c3                   	retq   
--
  40e5a8:	48 89 7d f8          	mov    %rdi,-0x8(%rbp)
  40e5ac:	48 8b 7d f8          	mov    -0x8(%rbp),%rdi
  40e5b0:	e8 fb f9 00 00       	callq  41dfb0 <_ZNSaISsED2Ev271>
  40e5b5:	48 83 c4 10          	add    $0x10,%rsp
  40e5b9:	5d                   	pop    %rbp
  40e5ba:	c3                   	retq   
--
000000000040e5c0 <_ZN9__gnu_cxx13new_allocatorISsED2Ev>:
  40e5c0:	55                   	push   %rbp
  40e5c1:	48 89 e5             	mov    %rsp,%rbp
  40e5c4:	48 89 7d f8          	mov    %rdi,-0x8(%rbp)
  40e5c8:	5d                   	pop    %rbp
  40e5c9:	c3                   	retq   
--
  40e5e4:	48 8b 55 f0          	mov    -0x10(%rbp),%rdx
  40e5e8:	48 89 d7             	mov    %rdx,%rdi
  40e5eb:	e8 80 90 ff ff       	callq  407670 <_ZdlPv@plt>
  40e5f0:	48 83 c4 20          	add    $0x20,%rsp
  40e5f4:	5d                   	pop    %rbp
  40e5f5:	c3                   	retq   
--
  40e610:	48 8b 7d f8          	mov    -0x8(%rbp),%rdi
  40e614:	48 8b 75 f0          	mov    -0x10(%rbp),%rsi
  40e618:	e8 e3 5c 01 00       	callq  424300 <_ZNSt12_Destroy_auxILb0EE9__destroyIPSsEEvT_S3_578>
  40e61d:	48 83 c4 10          	add    $0x10,%rsp
  40e621:	5d                   	pop    %rbp
  40e622:	c3                   	retq   
--
  40e663:	48 05 08 00 00 00    	add    $0x8,%rax
  40e669:	48 89 45 f8          	mov    %rax,-0x8(%rbp)
  40e66d:	e9 ce ff ff ff       	jmpq   40e640 <_ZNSt12_Destroy_auxILb0EE9__destroyIPSsEEvT_S3_+0x10>
  40e672:	48 83 c4 10          	add    $0x10,%rsp
  40e676:	5d                   	pop    %rbp
  40e677:	c3                   	retq   
--
  40e688:	48 89 7d f8          	mov    %rdi,-0x8(%rbp)
  40e68c:	48 8b 7d f8          	mov    -0x8(%rbp),%rdi
  40e690:	e8 6b 91 ff ff       	callq  407800 <_ZNSsD1Ev@plt>
  40e695:	48 83 c4 10          	add    $0x10,%rsp
  40e699:	5d                   	pop    %rbp
  40e69a:	c3                   	retq   
--
  40e6a1:	48 89 e5             	mov    %rsp,%rbp
  40e6a4:	48 89 7d f8          	mov    %rdi,-0x8(%rbp)
  40e6a8:	48 8b 7d f8          	mov    -0x8(%rbp),%rdi
  40e6ac:	48 89 f8             	mov    %rdi,%rax
  40e6af:	5d                   	pop    %rbp
  40e6b0:	c3                   	retq   
--
  40e714:	e8 67 26 01 00       	callq  420d80 <_ZNK5boost6detail8function13basic_vtable1ISt4pairISsSsERKSsE5clearERNS1_15function_bufferE406>
  40e719:	48 8b 45 f0          	mov    -0x10(%rbp),%rax
  40e71d:	48 c7 00 00 00 00 00 	movq   $0x0,(%rax)
  40e724:	48 83 c4 20          	add    $0x20,%rsp
  40e728:	5d                   	pop    %rbp
  40e729:	c3                   	retq   
--
  40e746:	48 81 ff 00 00 00 00 	cmp    $0x0,%rdi
  40e74d:	0f 95 c0             	setne  %al
  40e750:	24 01                	and    $0x1,%al
  40e752:	0f b6 c0             	movzbl %al,%eax
  40e755:	5d                   	pop    %rbp
  40e756:	c3                   	retq   
--
  40e768:	48 8b 7d f8          	mov    -0x8(%rbp),%rdi
  40e76c:	48 8b 3f             	mov    (%rdi),%rdi
  40e76f:	48 81 e7 fe ff ff ff 	and    $0xfffffffffffffffe,%rdi
  40e776:	48 89 f8             	mov    %rdi,%rax
  40e779:	5d                   	pop    %rbp
  40e77a:	c3                   	retq   
--
  40e7b1:	48 8b 7d f0          	mov    -0x10(%rbp),%rdi
  40e7b5:	48 8b 75 f0          	mov    -0x10(%rbp),%rsi
  40e7b9:	ff d1                	callq  *%rcx
  40e7bb:	48 83 c4 20          	add    $0x20,%rsp
  40e7bf:	5d                   	pop    %rbp
  40e7c0:	c3                   	retq   
--
  40e824:	e8 57 e9 00 00       	callq  41d180 <_ZNK5boost6detail8function13basic_vtable1ISt6vectorINS_15program_options12basic_optionIcEESaIS6_EERS3_ISsSaISsEEE5clearERNS1_15function_bufferE225>
  40e829:	48 8b 45 f0          	mov    -0x10(%rbp),%rax
  40e82d:	48 c7 00 00 00 00 00 	movq   $0x0,(%rax)
  40e834:	48 83 c4 20          	add    $0x20,%rsp
  40e838:	5d                   	pop    %rbp
  40e839:	c3                   	retq   
--
  40e848:	48 8b 7d f8          	mov    -0x8(%rbp),%rdi
  40e84c:	48 8b 3f             	mov    (%rdi),%rdi
  40e84f:	48 81 e7 fe ff ff ff 	and    $0xfffffffffffffffe,%rdi
  40e856:	48 89 f8             	mov    %rdi,%rax
  40e859:	5d                   	pop    %rbp
  40e85a:	c3                   	retq   
--
  40e891:	48 8b 7d f0          	mov    -0x10(%rbp),%rdi
  40e895:	48 8b 75 f0          	mov    -0x10(%rbp),%rsi
  40e899:	ff d1                	callq  *%rcx
  40e89b:	48 83 c4 20          	add    $0x20,%rsp
  40e89f:	5d                   	pop    %rbp
  40e8a0:	c3                   	retq   
--
  40e8ec:	48 8b 45 d8          	mov    -0x28(%rbp),%rax
  40e8f0:	48 89 c7             	mov    %rax,%rdi
  40e8f3:	e8 c8 7e 01 00       	callq  4267c0 <_ZNSt12_Vector_baseIN5boost15program_options12basic_optionIcEESaIS3_EED2Ev686>
  40e8f8:	48 83 c4 30          	add    $0x30,%rsp
  40e8fc:	5d                   	pop    %rbp
  40e8fd:	c3                   	retq   
--
  40e934:	48 8b 7d f8          	mov    -0x8(%rbp),%rdi
  40e938:	48 8b 75 f0          	mov    -0x10(%rbp),%rsi
  40e93c:	e8 7f 6c 01 00       	callq  4255c0 <_ZSt8_DestroyIPN5boost15program_options12basic_optionIcEEEvT_S5_643>
  40e941:	48 83 c4 20          	add    $0x20,%rsp
  40e945:	5d                   	pop    %rbp
  40e946:	c3                   	retq   
--
  40e951:	48 89 e5             	mov    %rsp,%rbp
  40e954:	48 89 7d f8          	mov    %rdi,-0x8(%rbp)
  40e958:	48 8b 7d f8          	mov    -0x8(%rbp),%rdi
  40e95c:	48 89 f8             	mov    %rdi,%rax
  40e95f:	5d                   	pop    %rbp
  40e960:	c3                   	retq   
--
  40e9a7:	e9 00 00 00 00       	jmpq   40e9ac <_ZNSt12_Vector_baseIN5boost15program_options12basic_optionIcEESaIS3_EED2Ev+0x3c>
  40e9ac:	48 8b 7d e0          	mov    -0x20(%rbp),%rdi
  40e9b0:	e8 9b e0 00 00       	callq  41ca50 <_ZNSt12_Vector_baseIN5boost15program_options12basic_optionIcEESaIS3_EE12_Vector_implD2Ev204>
  40e9b5:	48 83 c4 20          	add    $0x20,%rsp
  40e9b9:	5d                   	pop    %rbp
  40e9ba:	c3                   	retq   
--
  40ea12:	48 8b 55 e8          	mov    -0x18(%rbp),%rdx
  40ea16:	48 89 c7             	mov    %rax,%rdi
  40ea19:	e8 c2 24 01 00       	callq  420ee0 <_ZN9__gnu_cxx13new_allocatorIN5boost15program_options12basic_optionIcEEE10deallocateEPS4_m409>
  40ea1e:	48 83 c4 20          	add    $0x20,%rsp
  40ea22:	5d                   	pop    %rbp
  40ea23:	c3                   	retq   
--
  40ea38:	48 89 7d f8          	mov    %rdi,-0x8(%rbp)
  40ea3c:	48 8b 7d f8          	mov    -0x8(%rbp),%rdi
  40ea40:	e8 db d8 00 00       	callq  41c320 <_ZNSaIN5boost15program_options12basic_optionIcEEED2Ev180>
  40ea45:	48 83 c4 10          	add    $0x10,%rsp
  40ea49:	5d                   	pop    %rbp
  40ea4a:	c3                   	retq   
--
000000000040ea50 <_ZN9__gnu_cxx13new_allocatorIN5boost15program_options12basic_optionIcEEED2Ev>:
  40ea50:	55                   	push   %rbp
  40ea51:	48 89 e5             	mov    %rsp,%rbp
  40ea54:	48 89 7d f8          	mov    %rdi,-0x8(%rbp)
  40ea58:	5d                   	pop    %rbp
  40ea59:	c3                   	retq   
--
  40ea74:	48 8b 55 f0          	mov    -0x10(%rbp),%rdx
  40ea78:	48 89 d7             	mov    %rdx,%rdi
  40ea7b:	e8 f0 8b ff ff       	callq  407670 <_ZdlPv@plt>
  40ea80:	48 83 c4 20          	add    $0x20,%rsp
  40ea84:	5d                   	pop    %rbp
  40ea85:	c3                   	retq   
--
  40eaa0:	48 8b 7d f8          	mov    -0x8(%rbp),%rdi
  40eaa4:	48 8b 75 f0          	mov    -0x10(%rbp),%rsi
  40eaa8:	e8 a3 1c 01 00       	callq  420750 <_ZNSt12_Destroy_auxILb0EE9__destroyIPN5boost15program_options12basic_optionIcEEEEvT_S7_398>
  40eaad:	48 83 c4 10          	add    $0x10,%rsp
  40eab1:	5d                   	pop    %rbp
  40eab2:	c3                   	retq   
--
  40eaf3:	48 05 48 00 00 00    	add    $0x48,%rax
  40eaf9:	48 89 45 f8          	mov    %rax,-0x8(%rbp)
  40eafd:	e9 ce ff ff ff       	jmpq   40ead0 <_ZNSt12_Destroy_auxILb0EE9__destroyIPN5boost15program_options12basic_optionIcEEEEvT_S7_+0x10>
  40eb02:	48 83 c4 10          	add    $0x10,%rsp
  40eb06:	5d                   	pop    %rbp
  40eb07:	c3                   	retq   
--
  40eb18:	48 89 7d f8          	mov    %rdi,-0x8(%rbp)
  40eb1c:	48 8b 7d f8          	mov    -0x8(%rbp),%rdi
  40eb20:	e8 6b ac 00 00       	callq  419790 <_ZN5boost15program_options12basic_optionIcED2Ev32>
  40eb25:	48 83 c4 10          	add    $0x10,%rsp
  40eb29:	5d                   	pop    %rbp
  40eb2a:	c3                   	retq   
--
  40eb31:	48 89 e5             	mov    %rsp,%rbp
  40eb34:	48 89 7d f8          	mov    %rdi,-0x8(%rbp)
  40eb38:	48 8b 7d f8          	mov    -0x8(%rbp),%rdi
  40eb3c:	48 89 f8             	mov    %rdi,%rax
  40eb3f:	5d                   	pop    %rbp
  40eb40:	c3                   	retq   
--
  40eb82:	e8 79 ec 00 00       	callq  41d800 <_ZNSt6vectorISsSaISsEED2Ev244>
  40eb87:	48 8b 7d f0          	mov    -0x10(%rbp),%rdi
  40eb8b:	e8 70 8c ff ff       	callq  407800 <_ZNSsD1Ev@plt>
  40eb90:	48 83 c4 10          	add    $0x10,%rsp
  40eb94:	5d                   	pop    %rbp
  40eb95:	c3                   	retq   
--
  40ebcb:	48 89 77 18          	mov    %rsi,0x18(%rdi)
  40ebcf:	8b 55 ec             	mov    -0x14(%rbp),%edx
  40ebd2:	89 57 20             	mov    %edx,0x20(%rdi)
  40ebd5:	48 83 c4 20          	add    $0x20,%rsp
  40ebd9:	5d                   	pop    %rbp
  40ebda:	c3                   	retq   
--
  40ec09:	48 89 c6             	mov    %rax,%rsi
  40ec0c:	e8 1f d8 00 00       	callq  41c430 <_ZNSt6vectorIN5boost15program_options12basic_optionIcEESaIS3_EE14_M_move_assignEOS5_St17integral_constantIbLb1EE183>
  40ec11:	48 8b 45 e0          	mov    -0x20(%rbp),%rax
  40ec15:	48 83 c4 20          	add    $0x20,%rsp
  40ec19:	5d                   	pop    %rbp
  40ec1a:	c3                   	retq   
--
  40ec5b:	48 89 77 18          	mov    %rsi,0x18(%rdi)
  40ec5f:	8b 48 20             	mov    0x20(%rax),%ecx
  40ec62:	89 4f 20             	mov    %ecx,0x20(%rdi)
  40ec65:	48 83 c4 20          	add    $0x20,%rsp
  40ec69:	5d                   	pop    %rbp
  40ec6a:	c3                   	retq   
--
  40ed19:	48 8b 45 c0          	mov    -0x40(%rbp),%rax
  40ed1d:	48 8b 4d a0          	mov    -0x60(%rbp),%rcx
  40ed21:	48 89 48 08          	mov    %rcx,0x8(%rax)
  40ed25:	48 83 c4 60          	add    $0x60,%rsp
  40ed29:	5d                   	pop    %rbp
  40ed2a:	c3                   	retq   
--
  40ed7a:	48 29 fa             	sub    %rdi,%rdx
  40ed7d:	48 89 d0             	mov    %rdx,%rax
  40ed80:	48 99                	cqto   
  40ed82:	48 f7 f9             	idiv   %rcx
  40ed85:	5d                   	pop    %rbp
  40ed86:	c3                   	retq   
--
  40eda3:	48 89 45 f0          	mov    %rax,-0x10(%rbp)
  40eda7:	e8 b4 e9 00 00       	callq  41d760 <_ZNSt16allocator_traitsISaIN5boost15program_options12basic_optionIcEEEE37select_on_container_copy_constructionERKS4_241>
  40edac:	48 8b 45 f0          	mov    -0x10(%rbp),%rax
  40edb0:	48 83 c4 10          	add    $0x10,%rsp
  40edb4:	5d                   	pop    %rbp
  40edb5:	c3                   	retq   
--
  40edc1:	48 89 e5             	mov    %rsp,%rbp
  40edc4:	48 89 7d f8          	mov    %rdi,-0x8(%rbp)
  40edc8:	48 8b 7d f8          	mov    -0x8(%rbp),%rdi
  40edcc:	48 89 f8             	mov    %rdi,%rax
  40edcf:	5d                   	pop    %rbp
  40edd0:	c3                   	retq   
--
  40ee0b:	48 8b 7d d0          	mov    -0x30(%rbp),%rdi
  40ee0f:	e8 8c 61 01 00       	callq  424fa0 <_ZNSt12_Vector_baseIN5boost15program_options12basic_optionIcEESaIS3_EE17_M_create_storageEm619>
  40ee14:	e9 00 00 00 00       	jmpq   40ee19 <_ZNSt12_Vector_baseIN5boost15program_options12basic_optionIcEESaIS3_EEC2EmRKS4_+0x39>
  40ee19:	48 83 c4 30          	add    $0x30,%rsp
  40ee1d:	5d                   	pop    %rbp
  40ee1e:	c3                   	retq   
--
  40ee48:	48 89 7d f8          	mov    %rdi,-0x8(%rbp)
  40ee4c:	48 8b 7d f8          	mov    -0x8(%rbp),%rdi
  40ee50:	e8 eb ac 00 00       	callq  419b40 <_ZN9__gnu_cxx13new_allocatorIN5boost15program_options12basic_optionIcEEED2Ev50>
  40ee55:	48 83 c4 10          	add    $0x10,%rsp
  40ee59:	5d                   	pop    %rbp
  40ee5a:	c3                   	retq   
--
  40ee8c:	48 8b 7d d8          	mov    -0x28(%rbp),%rdi
  40ee90:	48 8b 75 d0          	mov    -0x30(%rbp),%rsi
  40ee94:	e8 27 bd 00 00       	callq  41abc0 <_ZSt18uninitialized_copyIN9__gnu_cxx17__normal_iteratorIPKN5boost15program_options12basic_optionIcEESt6vectorIS5_SaIS5_EEEEPS5_ET0_T_SE_SD_89>
  40ee99:	48 83 c4 30          	add    $0x30,%rsp
  40ee9d:	5d                   	pop    %rbp
  40ee9e:	c3                   	retq   
--
  40eebb:	e8 f0 e5 00 00       	callq  41d4b0 <_ZN9__gnu_cxx17__normal_iteratorIPKN5boost15program_options12basic_optionIcEESt6vectorIS4_SaIS4_EEEC2ERKS6_234>
  40eec0:	e9 00 00 00 00       	jmpq   40eec5 <_ZNKSt6vectorIN5boost15program_options12basic_optionIcEESaIS3_EE5beginEv+0x25>
  40eec5:	48 8b 45 f8          	mov    -0x8(%rbp),%rax
  40eec9:	48 83 c4 20          	add    $0x20,%rsp
  40eecd:	5d                   	pop    %rbp
  40eece:	c3                   	retq   
--
  40eefc:	e8 af e5 00 00       	callq  41d4b0 <_ZN9__gnu_cxx17__normal_iteratorIPKN5boost15program_options12basic_optionIcEESt6vectorIS4_SaIS4_EEEC2ERKS6_234>
  40ef01:	e9 00 00 00 00       	jmpq   40ef06 <_ZNKSt6vectorIN5boost15program_options12basic_optionIcEESaIS3_EE3endEv+0x26>
  40ef06:	48 8b 45 f8          	mov    -0x8(%rbp),%rax
  40ef0a:	48 83 c4 20          	add    $0x20,%rsp
  40ef0e:	5d                   	pop    %rbp
  40ef0f:	c3                   	retq   
--
  40ef2c:	48 8b 75 f8          	mov    -0x8(%rbp),%rsi
  40ef30:	48 8b 7d f0          	mov    -0x10(%rbp),%rdi
  40ef34:	48 8b 3f             	mov    (%rdi),%rdi
  40ef37:	48 89 3e             	mov    %rdi,(%rsi)
  40ef3a:	5d                   	pop    %rbp
  40ef3b:	c3                   	retq   
--
  40ef68:	48 8b 7d e0          	mov    -0x20(%rbp),%rdi
  40ef6c:	48 8b 75 d8          	mov    -0x28(%rbp),%rsi
  40ef70:	e8 2b b9 00 00       	callq  41a8a0 <_ZNSt20__uninitialized_copyILb0EE13__uninit_copyIN9__gnu_cxx17__normal_iteratorIPKN5boost15program_options12basic_optionIcEESt6vectorIS7_SaIS7_EEEEPS7_EET0_T_SG_SF_84>
  40ef75:	48 83 c4 30          	add    $0x30,%rsp
  40ef79:	5d                   	pop    %rbp
  40ef7a:	c3                   	retq   
--
  40f02e:	48 8b 7d e8          	mov    -0x18(%rbp),%rdi
  40f032:	48 8b 75 e0          	mov    -0x20(%rbp),%rsi
  40f036:	48 89 45 b0          	mov    %rax,-0x50(%rbp)
  40f03a:	e8 81 65 01 00       	callq  4255c0 <_ZSt8_DestroyIPN5boost15program_options12basic_optionIcEEEvT_S5_643>
  40f03f:	e9 00 00 00 00       	jmpq   40f044 <_ZNSt20__uninitialized_copyILb0EE13__uninit_copyIN9__gnu_cxx17__normal_iteratorIPKN5boost15program_options12basic_optionIcEESt6vectorIS7_SaIS7_EEEEPS7_EET0_T_SG_SF_+0xc4>
  40f044:	e8 87 86 ff ff       	callq  4076d0 <__cxa_rethrow@plt>
  40f049:	e9 38 00 00 00       	jmpq   40f086 <_ZNSt20__uninitialized_copyILb0EE13__uninit_copyIN9__gnu_cxx17__normal_iteratorIPKN5boost15program_options12basic_optionIcEESt6vectorIS7_SaIS7_EEEEPS7_EET0_T_SG_SF_+0x106>
  40f04e:	48 8b 45 e0          	mov    -0x20(%rbp),%rax
  40f052:	48 83 c4 60          	add    $0x60,%rsp
  40f056:	5d                   	pop    %rbp
  40f057:	c3                   	retq   
--
  40f0c0:	0f 95 c1             	setne  %cl
  40f0c3:	80 e1 01             	and    $0x1,%cl
  40f0c6:	0f b6 c1             	movzbl %cl,%eax
  40f0c9:	48 83 c4 20          	add    $0x20,%rsp
  40f0cd:	5d                   	pop    %rbp
  40f0ce:	c3                   	retq   
--
  40f106:	48 8b 7d e0          	mov    -0x20(%rbp),%rdi
  40f10a:	48 89 c6             	mov    %rax,%rsi
  40f10d:	e8 8e e8 00 00       	callq  41d9a0 <_ZN5boost15program_options12basic_optionIcEC2ERKS2_251>
  40f112:	48 83 c4 20          	add    $0x20,%rsp
  40f116:	5d                   	pop    %rbp
  40f117:	c3                   	retq   
--
  40f121:	48 89 e5             	mov    %rsp,%rbp
  40f124:	48 89 7d f8          	mov    %rdi,-0x8(%rbp)
  40f128:	48 8b 7d f8          	mov    -0x8(%rbp),%rdi
  40f12c:	48 8b 07             	mov    (%rdi),%rax
  40f12f:	5d                   	pop    %rbp
  40f130:	c3                   	retq   
--
  40f14c:	48 8b 07             	mov    (%rdi),%rax
  40f14f:	48 05 48 00 00 00    	add    $0x48,%rax
  40f155:	48 89 07             	mov    %rax,(%rdi)
  40f158:	48 89 f8             	mov    %rdi,%rax
  40f15b:	5d                   	pop    %rbp
  40f15c:	c3                   	retq   
--
  40f160:	55                   	push   %rbp
  40f161:	48 89 e5             	mov    %rsp,%rbp
  40f164:	48 89 7d f8          	mov    %rdi,-0x8(%rbp)
  40f168:	48 8b 45 f8          	mov    -0x8(%rbp),%rax
  40f16c:	5d                   	pop    %rbp
  40f16d:	c3                   	retq   
--
  40f1ed:	66 8b 48 40          	mov    0x40(%rax),%cx
  40f1f1:	48 8b 45 d0          	mov    -0x30(%rbp),%rax
  40f1f5:	66 89 48 40          	mov    %cx,0x40(%rax)
  40f1f9:	48 83 c4 40          	add    $0x40,%rsp
  40f1fd:	5d                   	pop    %rbp
  40f1fe:	c3                   	retq   
--
  40f2e9:	48 8b 45 c0          	mov    -0x40(%rbp),%rax
  40f2ed:	48 8b 4d a0          	mov    -0x60(%rbp),%rcx
  40f2f1:	48 89 48 08          	mov    %rcx,0x8(%rax)
  40f2f5:	48 83 c4 60          	add    $0x60,%rsp
  40f2f9:	5d                   	pop    %rbp
  40f2fa:	c3                   	retq   
--
  40f33c:	48 8b 47 08          	mov    0x8(%rdi),%rax
  40f340:	48 8b 3f             	mov    (%rdi),%rdi
  40f343:	48 29 f8             	sub    %rdi,%rax
  40f346:	48 c1 f8 03          	sar    $0x3,%rax
  40f34a:	5d                   	pop    %rbp
  40f34b:	c3                   	retq   
--
  40f363:	48 89 45 f0          	mov    %rax,-0x10(%rbp)
  40f367:	e8 94 a6 00 00       	callq  419a00 <_ZNSt16allocator_traitsISaISsEE37select_on_container_copy_constructionERKS0_45>
  40f36c:	48 8b 45 f0          	mov    -0x10(%rbp),%rax
  40f370:	48 83 c4 10          	add    $0x10,%rsp
  40f374:	5d                   	pop    %rbp
  40f375:	c3                   	retq   
--
  40f381:	48 89 e5             	mov    %rsp,%rbp
  40f384:	48 89 7d f8          	mov    %rdi,-0x8(%rbp)
  40f388:	48 8b 7d f8          	mov    -0x8(%rbp),%rdi
  40f38c:	48 89 f8             	mov    %rdi,%rax
  40f38f:	5d                   	pop    %rbp
  40f390:	c3                   	retq   
--
  40f3cb:	48 8b 7d d0          	mov    -0x30(%rbp),%rdi
  40f3cf:	e8 7c 20 01 00       	callq  421450 <_ZNSt12_Vector_baseISsSaISsEE17_M_create_storageEm419>
  40f3d4:	e9 00 00 00 00       	jmpq   40f3d9 <_ZNSt12_Vector_baseISsSaISsEEC2EmRKS0_+0x39>
  40f3d9:	48 83 c4 30          	add    $0x30,%rsp
  40f3dd:	5d                   	pop    %rbp
  40f3de:	c3                   	retq   
--
  40f408:	48 89 7d f8          	mov    %rdi,-0x8(%rbp)
  40f40c:	48 8b 7d f8          	mov    -0x8(%rbp),%rdi
  40f410:	e8 fb 60 01 00       	callq  425510 <_ZN9__gnu_cxx13new_allocatorISsED2Ev641>
  40f415:	48 83 c4 10          	add    $0x10,%rsp
  40f419:	5d                   	pop    %rbp
  40f41a:	c3                   	retq   
--
  40f44c:	48 8b 7d d8          	mov    -0x28(%rbp),%rdi
  40f450:	48 8b 75 d0          	mov    -0x30(%rbp),%rsi
  40f454:	e8 57 9e 00 00       	callq  4192b0 <_ZSt18uninitialized_copyIN9__gnu_cxx17__normal_iteratorIPKSsSt6vectorISsSaISsEEEEPSsET0_T_SA_S9_12>
  40f459:	48 83 c4 30          	add    $0x30,%rsp
  40f45d:	5d                   	pop    %rbp
  40f45e:	c3                   	retq   
--
  40f47b:	e8 10 1f 01 00       	callq  421390 <_ZN9__gnu_cxx17__normal_iteratorIPKSsSt6vectorISsSaISsEEEC2ERKS2_415>
  40f480:	e9 00 00 00 00       	jmpq   40f485 <_ZNKSt6vectorISsSaISsEE5beginEv+0x25>
  40f485:	48 8b 45 f8          	mov    -0x8(%rbp),%rax
  40f489:	48 83 c4 20          	add    $0x20,%rsp
  40f48d:	5d                   	pop    %rbp
  40f48e:	c3                   	retq   
--
  40f4bc:	e8 cf 1e 01 00       	callq  421390 <_ZN9__gnu_cxx17__normal_iteratorIPKSsSt6vectorISsSaISsEEEC2ERKS2_415>
  40f4c1:	e9 00 00 00 00       	jmpq   40f4c6 <_ZNKSt6vectorISsSaISsEE3endEv+0x26>
  40f4c6:	48 8b 45 f8          	mov    -0x8(%rbp),%rax
  40f4ca:	48 83 c4 20          	add    $0x20,%rsp
  40f4ce:	5d                   	pop    %rbp
  40f4cf:	c3                   	retq   
--
  40f4ec:	48 8b 75 f8          	mov    -0x8(%rbp),%rsi
  40f4f0:	48 8b 7d f0          	mov    -0x10(%rbp),%rdi
  40f4f4:	48 8b 3f             	mov    (%rdi),%rdi
  40f4f7:	48 89 3e             	mov    %rdi,(%rsi)
  40f4fa:	5d                   	pop    %rbp
  40f4fb:	c3                   	retq   
--
  40f528:	48 8b 7d e0          	mov    -0x20(%rbp),%rdi
  40f52c:	48 8b 75 d8          	mov    -0x28(%rbp),%rsi
  40f530:	e8 8b c2 00 00       	callq  41b7c0 <_ZNSt20__uninitialized_copyILb0EE13__uninit_copyIN9__gnu_cxx17__normal_iteratorIPKSsSt6vectorISsSaISsEEEEPSsEET0_T_SC_SB_140>
  40f535:	48 83 c4 30          	add    $0x30,%rsp
  40f539:	5d                   	pop    %rbp
  40f53a:	c3                   	retq   
--
  40f5ee:	48 8b 7d e8          	mov    -0x18(%rbp),%rdi
  40f5f2:	48 8b 75 e0          	mov    -0x20(%rbp),%rsi
  40f5f6:	48 89 45 b0          	mov    %rax,-0x50(%rbp)
  40f5fa:	e8 d1 ba 00 00       	callq  41b0d0 <_ZSt8_DestroyIPSsEvT_S1_110>
  40f5ff:	e9 00 00 00 00       	jmpq   40f604 <_ZNSt20__uninitialized_copyILb0EE13__uninit_copyIN9__gnu_cxx17__normal_iteratorIPKSsSt6vectorISsSaISsEEEEPSsEET0_T_SC_SB_+0xc4>
  40f604:	e8 c7 80 ff ff       	callq  4076d0 <__cxa_rethrow@plt>
  40f609:	e9 38 00 00 00       	jmpq   40f646 <_ZNSt20__uninitialized_copyILb0EE13__uninit_copyIN9__gnu_cxx17__normal_iteratorIPKSsSt6vectorISsSaISsEEEEPSsEET0_T_SC_SB_+0x106>
  40f60e:	48 8b 45 e0          	mov    -0x20(%rbp),%rax
  40f612:	48 83 c4 60          	add    $0x60,%rsp
  40f616:	5d                   	pop    %rbp
  40f617:	c3                   	retq   
--
  40f680:	0f 95 c1             	setne  %cl
  40f683:	80 e1 01             	and    $0x1,%cl
  40f686:	0f b6 c1             	movzbl %cl,%eax
  40f689:	48 83 c4 20          	add    $0x20,%rsp
  40f68d:	5d                   	pop    %rbp
  40f68e:	c3                   	retq   
--
  40f6c6:	48 8b 7d e0          	mov    -0x20(%rbp),%rdi
  40f6ca:	48 89 c6             	mov    %rax,%rsi
  40f6cd:	e8 be 80 ff ff       	callq  407790 <_ZNSsC1ERKSs@plt>
  40f6d2:	48 83 c4 20          	add    $0x20,%rsp
  40f6d6:	5d                   	pop    %rbp
  40f6d7:	c3                   	retq   
--
  40f6e1:	48 89 e5             	mov    %rsp,%rbp
  40f6e4:	48 89 7d f8          	mov    %rdi,-0x8(%rbp)
  40f6e8:	48 8b 7d f8          	mov    -0x8(%rbp),%rdi
  40f6ec:	48 8b 07             	mov    (%rdi),%rax
  40f6ef:	5d                   	pop    %rbp
  40f6f0:	c3                   	retq   
--
  40f70c:	48 8b 07             	mov    (%rdi),%rax
  40f70f:	48 05 08 00 00 00    	add    $0x8,%rax
  40f715:	48 89 07             	mov    %rax,(%rdi)
  40f718:	48 89 f8             	mov    %rdi,%rax
  40f71b:	5d                   	pop    %rbp
  40f71c:	c3                   	retq   
--
  40f720:	55                   	push   %rbp
  40f721:	48 89 e5             	mov    %rsp,%rbp
  40f724:	48 89 7d f8          	mov    %rdi,-0x8(%rbp)
  40f728:	48 8b 45 f8          	mov    -0x8(%rbp),%rax
  40f72c:	5d                   	pop    %rbp
  40f72d:	c3                   	retq   
--
  40f730:	55                   	push   %rbp
  40f731:	48 89 e5             	mov    %rsp,%rbp
  40f734:	48 89 7d f8          	mov    %rdi,-0x8(%rbp)
  40f738:	48 8b 45 f8          	mov    -0x8(%rbp),%rax
  40f73c:	5d                   	pop    %rbp
  40f73d:	c3                   	retq   
--
  40f779:	00 
  40f77a:	48 c7 40 10 00 00 00 	movq   $0x0,0x10(%rax)
  40f781:	00 
  40f782:	48 83 c4 20          	add    $0x20,%rsp
  40f786:	5d                   	pop    %rbp
  40f787:	c3                   	retq   
--
  40f7d4:	48 c1 e7 03          	shl    $0x3,%rdi
  40f7d8:	48 01 f8             	add    %rdi,%rax
  40f7db:	48 89 46 10          	mov    %rax,0x10(%rsi)
  40f7df:	48 83 c4 20          	add    $0x20,%rsp
  40f7e3:	5d                   	pop    %rbp
  40f7e4:	c3                   	retq   
--
  40f837:	48 89 4d e0          	mov    %rcx,-0x20(%rbp)
  40f83b:	e9 00 00 00 00       	jmpq   40f840 <_ZNSt12_Vector_baseISsSaISsEE11_M_allocateEm+0x50>
  40f840:	48 8b 45 e0          	mov    -0x20(%rbp),%rax
  40f844:	48 83 c4 20          	add    $0x20,%rsp
  40f848:	5d                   	pop    %rbp
  40f849:	c3                   	retq   
--
  40f88b:	48 c1 e0 03          	shl    $0x3,%rax
  40f88f:	48 89 c7             	mov    %rax,%rdi
  40f892:	e8 a9 83 ff ff       	callq  407c40 <_Znwm@plt>
  40f897:	48 83 c4 20          	add    $0x20,%rsp
  40f89b:	5d                   	pop    %rbp
  40f89c:	c3                   	retq   
--
  40f8a1:	48 89 e5             	mov    %rsp,%rbp
  40f8a4:	48 b8 ff ff ff ff ff 	movabs $0x1fffffffffffffff,%rax
  40f8ab:	ff ff 1f 
  40f8ae:	48 89 7d f8          	mov    %rdi,-0x8(%rbp)
  40f8b2:	5d                   	pop    %rbp
  40f8b3:	c3                   	retq   
--
  40f8c0:	55                   	push   %rbp
  40f8c1:	48 89 e5             	mov    %rsp,%rbp
  40f8c4:	48 89 7d f8          	mov    %rdi,-0x8(%rbp)
  40f8c8:	48 89 75 f0          	mov    %rsi,-0x10(%rbp)
  40f8cc:	5d                   	pop    %rbp
  40f8cd:	c3                   	retq   
--
  40f8e3:	48 89 45 f0          	mov    %rax,-0x10(%rbp)
  40f8e7:	e8 c4 41 01 00       	callq  423ab0 <_ZNSt16allocator_traitsISaISsEE9_S_selectIKS0_EENSt9enable_ifIXntsr15__select_helperIT_EE5valueES5_E4typeERS5_545>
  40f8ec:	48 8b 45 f0          	mov    -0x10(%rbp),%rax
  40f8f0:	48 83 c4 10          	add    $0x10,%rsp
  40f8f4:	5d                   	pop    %rbp
  40f8f5:	c3                   	retq   
--
  40f913:	48 89 45 f0          	mov    %rax,-0x10(%rbp)
  40f917:	e8 94 c3 00 00       	callq  41bcb0 <_ZNSaISsEC2ERKS_158>
  40f91c:	48 8b 45 f0          	mov    -0x10(%rbp),%rax
  40f920:	48 83 c4 10          	add    $0x10,%rsp
  40f924:	5d                   	pop    %rbp
  40f925:	c3                   	retq   
--
  40f94c:	48 89 f7             	mov    %rsi,%rdi
  40f94f:	48 8b 75 e8          	mov    -0x18(%rbp),%rsi
  40f953:	e8 58 27 01 00       	callq  4220b0 <_ZN9__gnu_cxx13new_allocatorISsEC2ERKS1_456>
  40f958:	48 83 c4 20          	add    $0x20,%rsp
  40f95c:	5d                   	pop    %rbp
  40f95d:	c3                   	retq   
--
  40f960:	55                   	push   %rbp
  40f961:	48 89 e5             	mov    %rsp,%rbp
  40f964:	48 89 7d f8          	mov    %rdi,-0x8(%rbp)
  40f968:	48 8b 45 f8          	mov    -0x8(%rbp),%rax
  40f96c:	5d                   	pop    %rbp
  40f96d:	c3                   	retq   
--
  40f9a9:	00 
  40f9aa:	48 c7 40 10 00 00 00 	movq   $0x0,0x10(%rax)
  40f9b1:	00 
  40f9b2:	48 83 c4 20          	add    $0x20,%rsp
  40f9b6:	5d                   	pop    %rbp
  40f9b7:	c3                   	retq   
--
  40fa07:	00 
  40fa08:	48 01 f8             	add    %rdi,%rax
  40fa0b:	48 89 46 10          	mov    %rax,0x10(%rsi)
  40fa0f:	48 83 c4 20          	add    $0x20,%rsp
  40fa13:	5d                   	pop    %rbp
  40fa14:	c3                   	retq   
--
  40fa67:	48 89 4d e0          	mov    %rcx,-0x20(%rbp)
  40fa6b:	e9 00 00 00 00       	jmpq   40fa70 <_ZNSt12_Vector_baseIN5boost15program_options12basic_optionIcEESaIS3_EE11_M_allocateEm+0x50>
  40fa70:	48 8b 45 e0          	mov    -0x20(%rbp),%rax
  40fa74:	48 83 c4 20          	add    $0x20,%rsp
  40fa78:	5d                   	pop    %rbp
  40fa79:	c3                   	retq   
--
  40fab7:	48 69 7d f0 48 00 00 	imul   $0x48,-0x10(%rbp),%rdi
  40fabe:	00 
  40fabf:	e8 7c 81 ff ff       	callq  407c40 <_Znwm@plt>
  40fac4:	48 83 c4 20          	add    $0x20,%rsp
  40fac8:	5d                   	pop    %rbp
  40fac9:	c3                   	retq   
--
  40fad1:	48 89 e5             	mov    %rsp,%rbp
  40fad4:	48 b8 8e e3 38 8e e3 	movabs $0x38e38e38e38e38e,%rax
  40fadb:	38 8e 03 
  40fade:	48 89 7d f8          	mov    %rdi,-0x8(%rbp)
  40fae2:	5d                   	pop    %rbp
  40fae3:	c3                   	retq   
--
  40faf0:	55                   	push   %rbp
  40faf1:	48 89 e5             	mov    %rsp,%rbp
  40faf4:	48 89 7d f8          	mov    %rdi,-0x8(%rbp)
  40faf8:	48 89 75 f0          	mov    %rsi,-0x10(%rbp)
  40fafc:	5d                   	pop    %rbp
  40fafd:	c3                   	retq   
--
  40fb13:	48 89 45 f0          	mov    %rax,-0x10(%rbp)
  40fb17:	e8 b4 9e 00 00       	callq  4199d0 <_ZNSt16allocator_traitsISaIN5boost15program_options12basic_optionIcEEEE9_S_selectIKS4_EENSt9enable_ifIXntsr15__select_helperIT_EE5valueES9_E4typeERS9_44>
  40fb1c:	48 8b 45 f0          	mov    -0x10(%rbp),%rax
  40fb20:	48 83 c4 10          	add    $0x10,%rsp
  40fb24:	5d                   	pop    %rbp
  40fb25:	c3                   	retq   
--
  40fb43:	48 89 45 f0          	mov    %rax,-0x10(%rbp)
  40fb47:	e8 e4 61 01 00       	callq  425d30 <_ZNSaIN5boost15program_options12basic_optionIcEEEC2ERKS3_668>
  40fb4c:	48 8b 45 f0          	mov    -0x10(%rbp),%rax
  40fb50:	48 83 c4 10          	add    $0x10,%rsp
  40fb54:	5d                   	pop    %rbp
  40fb55:	c3                   	retq   
--
  40fb7c:	48 89 f7             	mov    %rsi,%rdi
  40fb7f:	48 8b 75 e8          	mov    -0x18(%rbp),%rsi
  40fb83:	e8 48 96 00 00       	callq  4191d0 <_ZN9__gnu_cxx13new_allocatorIN5boost15program_options12basic_optionIcEEEC2ERKS5_5>
  40fb88:	48 83 c4 20          	add    $0x20,%rsp
  40fb8c:	5d                   	pop    %rbp
  40fb8d:	c3                   	retq   
--
  40fc16:	e9 00 00 00 00       	jmpq   40fc1b <_ZNSt6vectorIN5boost15program_options12basic_optionIcEESaIS3_EE14_M_move_assignEOS5_St17integral_constantIbLb1EE+0x8b>
  40fc1b:	48 8d 7d d0          	lea    -0x30(%rbp),%rdi
  40fc1f:	e8 1c b6 00 00       	callq  41b240 <_ZNSt6vectorIN5boost15program_options12basic_optionIcEESaIS3_EED2Ev115>
  40fc24:	48 83 c4 60          	add    $0x60,%rsp
  40fc28:	5d                   	pop    %rbp
  40fc29:	c3                   	retq   
--
  40fc60:	55                   	push   %rbp
  40fc61:	48 89 e5             	mov    %rsp,%rbp
  40fc64:	48 89 7d f8          	mov    %rdi,-0x8(%rbp)
  40fc68:	48 8b 45 f8          	mov    -0x8(%rbp),%rax
  40fc6c:	5d                   	pop    %rbp
  40fc6d:	c3                   	retq   
--
  40fc97:	48 89 c6             	mov    %rax,%rsi
  40fc9a:	e8 91 60 01 00       	callq  425d30 <_ZNSaIN5boost15program_options12basic_optionIcEEEC2ERKS3_668>
  40fc9f:	48 8b 45 e8          	mov    -0x18(%rbp),%rax
  40fca3:	48 83 c4 20          	add    $0x20,%rsp
  40fca7:	5d                   	pop    %rbp
  40fca8:	c3                   	retq   
--
  40fccc:	48 89 f7             	mov    %rsi,%rdi
  40fccf:	48 8b 75 e8          	mov    -0x18(%rbp),%rsi
  40fcd3:	e8 a8 e2 00 00       	callq  41df80 <_ZNSt12_Vector_baseIN5boost15program_options12basic_optionIcEESaIS3_EEC2ERKS4_270>
  40fcd8:	48 83 c4 20          	add    $0x20,%rsp
  40fcdc:	5d                   	pop    %rbp
  40fcdd:	c3                   	retq   
--
  40fd3a:	48 81 c6 10 00 00 00 	add    $0x10,%rsi
  40fd41:	48 89 c7             	mov    %rax,%rdi
  40fd44:	e8 b7 50 01 00       	callq  424e00 <_ZSt4swapIPN5boost15program_options12basic_optionIcEEEvRT_S6_612>
  40fd49:	48 83 c4 20          	add    $0x20,%rsp
  40fd4d:	5d                   	pop    %rbp
  40fd4e:	c3                   	retq   
--
  40fd60:	48 8b 7d f8          	mov    -0x8(%rbp),%rdi
  40fd64:	48 8b 75 f0          	mov    -0x10(%rbp),%rsi
  40fd68:	e8 93 5c 01 00       	callq  425a00 <_ZSt18__do_alloc_on_moveISaIN5boost15program_options12basic_optionIcEEEEvRT_S6_St17integral_constantIbLb1EE662>
  40fd6d:	48 83 c4 20          	add    $0x20,%rsp
  40fd71:	5d                   	pop    %rbp
  40fd72:	c3                   	retq   
--
  40fd90:	48 8b 7d e8          	mov    -0x18(%rbp),%rdi
  40fd94:	e8 37 3e 01 00       	callq  423bd0 <_ZSt4moveIRSaIN5boost15program_options12basic_optionIcEEEEONSt16remove_referenceIT_E4typeEOS7_550>
  40fd99:	48 89 45 e0          	mov    %rax,-0x20(%rbp)
  40fd9d:	48 83 c4 20          	add    $0x20,%rsp
  40fda1:	5d                   	pop    %rbp
  40fda2:	c3                   	retq   
--
  40fdb0:	55                   	push   %rbp
  40fdb1:	48 89 e5             	mov    %rsp,%rbp
  40fdb4:	48 89 7d f8          	mov    %rdi,-0x8(%rbp)
  40fdb8:	48 8b 45 f8          	mov    -0x8(%rbp),%rax
  40fdbc:	5d                   	pop    %rbp
  40fdbd:	c3                   	retq   
--
  40fdfc:	48 8b 00             	mov    (%rax),%rax
  40fdff:	48 8b 75 f0          	mov    -0x10(%rbp),%rsi
  40fe03:	48 89 06             	mov    %rax,(%rsi)
  40fe06:	48 83 c4 20          	add    $0x20,%rsp
  40fe0a:	5d                   	pop    %rbp
  40fe0b:	c3                   	retq   
--
  40fe10:	55                   	push   %rbp
  40fe11:	48 89 e5             	mov    %rsp,%rbp
  40fe14:	48 89 7d f8          	mov    %rdi,-0x8(%rbp)
  40fe18:	48 8b 45 f8          	mov    -0x8(%rbp),%rax
  40fe1c:	5d                   	pop    %rbp
  40fe1d:	c3                   	retq   
--
  40fe30:	48 8b 7d f8          	mov    -0x8(%rbp),%rdi
  40fe34:	48 8b 75 f0          	mov    -0x10(%rbp),%rsi
  40fe38:	e8 a3 fb 00 00       	callq  41f9e0 <_ZNSt12_Vector_baseIN5boost15program_options12basic_optionIcEESaIS3_EE12_Vector_implC2ERKS4_353>
  40fe3d:	48 83 c4 10          	add    $0x10,%rsp
  40fe41:	5d                   	pop    %rbp
  40fe42:	c3                   	retq   
--
  40fe58:	48 89 7d f8          	mov    %rdi,-0x8(%rbp)
  40fe5c:	48 8b 7d f8          	mov    -0x8(%rbp),%rdi
  40fe60:	e8 db 4e 01 00       	callq  424d40 <_ZNSt12_Vector_baseIN5boost15program_options12basic_optionIcEESaIS3_EEC2Ev605>
  40fe65:	48 83 c4 10          	add    $0x10,%rsp
  40fe69:	5d                   	pop    %rbp
  40fe6a:	c3                   	retq   
--
  40fe78:	48 89 7d f8          	mov    %rdi,-0x8(%rbp)
  40fe7c:	48 8b 7d f8          	mov    -0x8(%rbp),%rdi
  40fe80:	e8 8b a2 00 00       	callq  41a110 <_ZNSt12_Vector_baseIN5boost15program_options12basic_optionIcEESaIS3_EE12_Vector_implC2Ev71>
  40fe85:	48 83 c4 10          	add    $0x10,%rsp
  40fe89:	5d                   	pop    %rbp
  40fe8a:	c3                   	retq   
--
  40fec1:	00 
  40fec2:	48 c7 40 10 00 00 00 	movq   $0x0,0x10(%rax)
  40fec9:	00 
  40feca:	48 83 c4 10          	add    $0x10,%rsp
  40fece:	5d                   	pop    %rbp
  40fecf:	c3                   	retq   
--
  40fed8:	48 89 7d f8          	mov    %rdi,-0x8(%rbp)
  40fedc:	48 8b 7d f8          	mov    -0x8(%rbp),%rdi
  40fee0:	e8 9b 3e 01 00       	callq  423d80 <_ZN9__gnu_cxx13new_allocatorIN5boost15program_options12basic_optionIcEEEC2Ev557>
  40fee5:	48 83 c4 10          	add    $0x10,%rsp
  40fee9:	5d                   	pop    %rbp
  40feea:	c3                   	retq   
--
000000000040fef0 <_ZN9__gnu_cxx13new_allocatorIN5boost15program_options12basic_optionIcEEEC2Ev>:
  40fef0:	55                   	push   %rbp
  40fef1:	48 89 e5             	mov    %rsp,%rbp
  40fef4:	48 89 7d f8          	mov    %rdi,-0x8(%rbp)
  40fef8:	5d                   	pop    %rbp
  40fef9:	c3                   	retq   
--
  40ffd4:	48 8b 7d d0          	mov    -0x30(%rbp),%rdi
  40ffd8:	e8 23 d8 00 00       	callq  41d800 <_ZNSt6vectorISsSaISsEED2Ev244>
  40ffdd:	48 8b 45 c8          	mov    -0x38(%rbp),%rax
  40ffe1:	48 83 c4 50          	add    $0x50,%rsp
  40ffe5:	5d                   	pop    %rbp
  40ffe6:	c3                   	retq   
--
  4100e6:	48 8b 7d c0          	mov    -0x40(%rbp),%rdi
  4100ea:	e8 11 d7 00 00       	callq  41d800 <_ZNSt6vectorISsSaISsEED2Ev244>
  4100ef:	48 8b 45 b8          	mov    -0x48(%rbp),%rax
  4100f3:	48 83 c4 60          	add    $0x60,%rsp
  4100f7:	5d                   	pop    %rbp
  4100f8:	c3                   	retq   
--
  410118:	48 89 7d f8          	mov    %rdi,-0x8(%rbp)
  41011c:	48 8b 7d f8          	mov    -0x8(%rbp),%rdi
  410120:	e8 9b e0 00 00       	callq  41e1c0 <_ZNSt12_Vector_baseISsSaISsEEC2Ev280>
  410125:	48 83 c4 10          	add    $0x10,%rsp
  410129:	5d                   	pop    %rbp
  41012a:	c3                   	retq   
--
  410154:	48 8b 7d e8          	mov    -0x18(%rbp),%rdi
  410158:	48 89 c6             	mov    %rax,%rsi
  41015b:	e8 70 00 01 00       	callq  4201d0 <_ZNSt6vectorISsSaISsEE12emplace_backIJSsEEEvDpOT_379>
  410160:	48 83 c4 20          	add    $0x20,%rsp
  410164:	5d                   	pop    %rbp
  410165:	c3                   	retq   
--
  4101e4:	48 8b 7d e8          	mov    -0x18(%rbp),%rdi
  4101e8:	48 89 c6             	mov    %rax,%rsi
  4101eb:	e8 d0 fa 00 00       	callq  41fcc0 <_ZNSt6vectorISsSaISsEE19_M_emplace_back_auxIJSsEEEvDpOT_366>
  4101f0:	48 83 c4 30          	add    $0x30,%rsp
  4101f4:	5d                   	pop    %rbp
  4101f5:	c3                   	retq   
--
  410200:	55                   	push   %rbp
  410201:	48 89 e5             	mov    %rsp,%rbp
  410204:	48 89 7d f8          	mov    %rdi,-0x8(%rbp)
  410208:	48 8b 45 f8          	mov    -0x8(%rbp),%rax
  41020c:	5d                   	pop    %rbp
  41020d:	c3                   	retq   
--
  410244:	48 8b 75 d8          	mov    -0x28(%rbp),%rsi
  410248:	48 89 c2             	mov    %rax,%rdx
  41024b:	e8 d0 3b 01 00       	callq  423e20 <_ZNSt16allocator_traitsISaISsEE12_S_constructISsJSsEEENSt9enable_ifIXsr18__construct_helperIT_DpT0_EE5valueEvE4typeERS0_PS4_DpOS5_560>
  410250:	48 83 c4 30          	add    $0x30,%rsp
  410254:	5d                   	pop    %rbp
  410255:	c3                   	retq   
--
  410260:	55                   	push   %rbp
  410261:	48 89 e5             	mov    %rsp,%rbp
  410264:	48 89 7d f8          	mov    %rdi,-0x8(%rbp)
  410268:	48 8b 45 f8          	mov    -0x8(%rbp),%rax
  41026c:	5d                   	pop    %rbp
  41026d:	c3                   	retq   
--
  41040e:	48 8b 75 e0          	mov    -0x20(%rbp),%rsi
  410412:	48 8b 55 e8          	mov    -0x18(%rbp),%rdx
  410416:	48 8b 7d b8          	mov    -0x48(%rbp),%rdi
  41041a:	e8 c1 ff 00 00       	callq  4203e0 <_ZNSt12_Vector_baseISsSaISsEE13_M_deallocateEPSsm386>
  41041f:	e9 00 00 00 00       	jmpq   410424 <_ZNSt6vectorISsSaISsEE19_M_emplace_back_auxIJSsEEEvDpOT_+0x1b4>
  410424:	e8 a7 72 ff ff       	callq  4076d0 <__cxa_rethrow@plt>
--
  4104b4:	48 c1 e2 03          	shl    $0x3,%rdx
  4104b8:	48 01 d0             	add    %rdx,%rax
  4104bb:	48 89 41 10          	mov    %rax,0x10(%rcx)
  4104bf:	48 81 c4 c0 00 00 00 	add    $0xc0,%rsp
  4104c6:	5d                   	pop    %rbp
  4104c7:	c3                   	retq   
--
  4105bb:	48 8b 45 e0          	mov    -0x20(%rbp),%rax
  4105bf:	48 89 45 a8          	mov    %rax,-0x58(%rbp)
  4105c3:	48 8b 45 a8          	mov    -0x58(%rbp),%rax
  4105c7:	48 83 c4 60          	add    $0x60,%rsp
  4105cb:	5d                   	pop    %rbp
  4105cc:	c3                   	retq   
--
  41060a:	48 8b 7d d8          	mov    -0x28(%rbp),%rdi
  41060e:	48 8b 75 d0          	mov    -0x30(%rbp),%rsi
  410612:	e8 a9 4d 01 00       	callq  4253c0 <_ZSt22__uninitialized_copy_aISt13move_iteratorIPSsES1_SsET0_T_S4_S3_RSaIT1_E635>
  410617:	48 83 c4 30          	add    $0x30,%rsp
  41061b:	5d                   	pop    %rbp
  41061c:	c3                   	retq   
--
  410630:	48 8b 7d f8          	mov    -0x8(%rbp),%rdi
  410634:	48 8b 75 f0          	mov    -0x10(%rbp),%rsi
  410638:	e8 93 3d 01 00       	callq  4243d0 <_ZNSt16allocator_traitsISaISsEE10_S_destroyISsEENSt9enable_ifIXsr16__destroy_helperIT_EE5valueEvE4typeERS0_PS4_581>
  41063d:	48 83 c4 10          	add    $0x10,%rsp
  410641:	5d                   	pop    %rbp
  410642:	c3                   	retq   
--
  41066c:	48 89 f7             	mov    %rsi,%rdi
  41066f:	48 8b 75 e8          	mov    -0x18(%rbp),%rsi
  410673:	e8 38 47 01 00       	callq  424db0 <_ZN9__gnu_cxx13new_allocatorISsE7destroyISsEEvPT_609>
  410678:	48 83 c4 20          	add    $0x20,%rsp
  41067c:	5d                   	pop    %rbp
  41067d:	c3                   	retq   
--
  41068c:	48 89 75 f0          	mov    %rsi,-0x10(%rbp)
  410690:	48 8b 7d f0          	mov    -0x10(%rbp),%rdi
  410694:	e8 67 71 ff ff       	callq  407800 <_ZNSsD1Ev@plt>
  410699:	48 83 c4 10          	add    $0x10,%rsp
  41069d:	5d                   	pop    %rbp
  41069e:	c3                   	retq   
--
  4106cc:	48 8b 7d d8          	mov    -0x28(%rbp),%rdi
  4106d0:	48 8b 75 d0          	mov    -0x30(%rbp),%rsi
  4106d4:	e8 07 d4 00 00       	callq  41dae0 <_ZSt18uninitialized_copyISt13move_iteratorIPSsES1_ET0_T_S4_S3_253>
  4106d9:	48 83 c4 30          	add    $0x30,%rsp
  4106dd:	5d                   	pop    %rbp
  4106de:	c3                   	retq   
--
  4106f4:	48 89 c7             	mov    %rax,%rdi
  4106f7:	e8 24 52 01 00       	callq  425920 <_ZNSt13move_iteratorIPSsEC2ES0_657>
  4106fc:	48 8b 45 f8          	mov    -0x8(%rbp),%rax
  410700:	48 83 c4 10          	add    $0x10,%rsp
  410704:	5d                   	pop    %rbp
  410705:	c3                   	retq   
--
  410718:	48 89 75 f0          	mov    %rsi,-0x10(%rbp)
  41071c:	48 8b 75 f8          	mov    -0x8(%rbp),%rsi
  410720:	48 8b 7d f0          	mov    -0x10(%rbp),%rdi
  410724:	48 89 3e             	mov    %rdi,(%rsi)
  410727:	5d                   	pop    %rbp
  410728:	c3                   	retq   
--
  410758:	48 8b 7d e0          	mov    -0x20(%rbp),%rdi
  41075c:	48 8b 75 d8          	mov    -0x28(%rbp),%rsi
  410760:	e8 2b 21 01 00       	callq  422890 <_ZNSt20__uninitialized_copyILb0EE13__uninit_copyISt13move_iteratorIPSsES3_EET0_T_S6_S5_483>
  410765:	48 83 c4 30          	add    $0x30,%rsp
  410769:	5d                   	pop    %rbp
  41076a:	c3                   	retq   
--
  41081e:	48 8b 7d e8          	mov    -0x18(%rbp),%rdi
  410822:	48 8b 75 e0          	mov    -0x20(%rbp),%rsi
  410826:	48 89 45 b0          	mov    %rax,-0x50(%rbp)
  41082a:	e8 a1 a8 00 00       	callq  41b0d0 <_ZSt8_DestroyIPSsEvT_S1_110>
  41082f:	e9 00 00 00 00       	jmpq   410834 <_ZNSt20__uninitialized_copyILb0EE13__uninit_copyISt13move_iteratorIPSsES3_EET0_T_S6_S5_+0xc4>
  410834:	e8 97 6e ff ff       	callq  4076d0 <__cxa_rethrow@plt>
  410839:	e9 38 00 00 00       	jmpq   410876 <_ZNSt20__uninitialized_copyILb0EE13__uninit_copyISt13move_iteratorIPSsES3_EET0_T_S6_S5_+0x106>
  41083e:	48 8b 45 e0          	mov    -0x20(%rbp),%rax
  410842:	48 83 c4 60          	add    $0x60,%rsp
  410846:	5d                   	pop    %rbp
  410847:	c3                   	retq   
--
  41089d:	34 01                	xor    $0x1,%al
  41089f:	24 01                	and    $0x1,%al
  4108a1:	0f b6 c0             	movzbl %al,%eax
  4108a4:	48 83 c4 10          	add    $0x10,%rsp
  4108a8:	5d                   	pop    %rbp
  4108a9:	c3                   	retq   
--
  4108e6:	48 8b 7d e0          	mov    -0x20(%rbp),%rdi
  4108ea:	48 89 c6             	mov    %rax,%rsi
  4108ed:	e8 1e 73 ff ff       	callq  407c10 <_ZNSsC1EOSs@plt>
  4108f2:	48 83 c4 20          	add    $0x20,%rsp
  4108f6:	5d                   	pop    %rbp
  4108f7:	c3                   	retq   
--
  41090c:	48 8b 7d f8          	mov    -0x8(%rbp),%rdi
  410910:	48 8b 3f             	mov    (%rdi),%rdi
  410913:	e8 48 24 01 00       	callq  422d60 <_ZSt4moveIRSsEONSt16remove_referenceIT_E4typeEOS2_493>
  410918:	48 83 c4 10          	add    $0x10,%rsp
  41091c:	5d                   	pop    %rbp
  41091d:	c3                   	retq   
--
  41092c:	48 8b 07             	mov    (%rdi),%rax
  41092f:	48 05 08 00 00 00    	add    $0x8,%rax
  410935:	48 89 07             	mov    %rax,(%rdi)
  410938:	48 89 f8             	mov    %rdi,%rax
  41093b:	5d                   	pop    %rbp
  41093c:	c3                   	retq   
--
  41096d:	0f 94 c1             	sete   %cl
  410970:	80 e1 01             	and    $0x1,%cl
  410973:	0f b6 c1             	movzbl %cl,%eax
  410976:	48 83 c4 20          	add    $0x20,%rsp
  41097a:	5d                   	pop    %rbp
  41097b:	c3                   	retq   
--
  410981:	48 89 e5             	mov    %rsp,%rbp
  410984:	48 89 7d f8          	mov    %rdi,-0x8(%rbp)
  410988:	48 8b 7d f8          	mov    -0x8(%rbp),%rdi
  41098c:	48 8b 07             	mov    (%rdi),%rax
  41098f:	5d                   	pop    %rbp
  410990:	c3                   	retq   
--
  4109b9:	48 89 45 f0          	mov    %rax,-0x10(%rbp)
  4109bd:	e9 00 00 00 00       	jmpq   4109c2 <_ZNKSt6vectorISsSaISsEE8max_sizeEv+0x22>
  4109c2:	48 8b 45 f0          	mov    -0x10(%rbp),%rax
  4109c6:	48 83 c4 20          	add    $0x20,%rsp
  4109ca:	5d                   	pop    %rbp
  4109cb:	c3                   	retq   
--
  410a08:	e9 08 00 00 00       	jmpq   410a15 <_ZSt3maxImERKT_S2_S2_+0x35>
  410a0d:	48 8b 45 f0          	mov    -0x10(%rbp),%rax
  410a11:	48 89 45 f8          	mov    %rax,-0x8(%rbp)
  410a15:	48 8b 45 f8          	mov    -0x8(%rbp),%rax
  410a19:	5d                   	pop    %rbp
  410a1a:	c3                   	retq   
--
  410a28:	48 89 7d f8          	mov    %rdi,-0x8(%rbp)
  410a2c:	48 8b 7d f8          	mov    -0x8(%rbp),%rdi
  410a30:	e8 9b eb 00 00       	callq  41f5d0 <_ZNSt16allocator_traitsISaISsEE11_S_max_sizeIKS0_EENSt9enable_ifIXsr16__maxsize_helperIT_EE5valueEmE4typeERS5_335>
  410a35:	48 83 c4 10          	add    $0x10,%rsp
  410a39:	5d                   	pop    %rbp
  410a3a:	c3                   	retq   
--
  410a48:	48 89 7d f8          	mov    %rdi,-0x8(%rbp)
  410a4c:	48 8b 7d f8          	mov    -0x8(%rbp),%rdi
  410a50:	e8 bb b1 00 00       	callq  41bc10 <_ZNK9__gnu_cxx13new_allocatorISsE8max_sizeEv154>
  410a55:	48 83 c4 10          	add    $0x10,%rsp
  410a59:	5d                   	pop    %rbp
  410a5a:	c3                   	retq   
--
  410a91:	48 8b 75 d8          	mov    -0x28(%rbp),%rsi
  410a95:	48 89 c2             	mov    %rax,%rdx
  410a98:	e8 a3 c5 00 00       	callq  41d040 <_ZN9__gnu_cxx13new_allocatorISsE9constructISsJSsEEEvPT_DpOT0_217>
  410a9d:	48 83 c4 30          	add    $0x30,%rsp
  410aa1:	5d                   	pop    %rbp
  410aa2:	c3                   	retq   
--
  410aea:	48 8b 7d d8          	mov    -0x28(%rbp),%rdi
  410aee:	48 89 c6             	mov    %rax,%rsi
  410af1:	e8 1a 71 ff ff       	callq  407c10 <_ZNSsC1EOSs@plt>
  410af6:	48 83 c4 30          	add    $0x30,%rsp
  410afa:	5d                   	pop    %rbp
  410afb:	c3                   	retq   
--
  410b08:	48 89 7d f8          	mov    %rdi,-0x8(%rbp)
  410b0c:	48 8b 7d f8          	mov    -0x8(%rbp),%rdi
  410b10:	e8 fb 91 00 00       	callq  419d10 <_ZNSt12_Vector_baseISsSaISsEE12_Vector_implC2Ev59>
  410b15:	48 83 c4 10          	add    $0x10,%rsp
  410b19:	5d                   	pop    %rbp
  410b1a:	c3                   	retq   
--
  410b51:	00 
  410b52:	48 c7 40 10 00 00 00 	movq   $0x0,0x10(%rax)
  410b59:	00 
  410b5a:	48 83 c4 10          	add    $0x10,%rsp
  410b5e:	5d                   	pop    %rbp
  410b5f:	c3                   	retq   
--
  410b68:	48 89 7d f8          	mov    %rdi,-0x8(%rbp)
  410b6c:	48 8b 7d f8          	mov    -0x8(%rbp),%rdi
  410b70:	e8 3b 28 01 00       	callq  4233b0 <_ZN9__gnu_cxx13new_allocatorISsEC2Ev526>
  410b75:	48 83 c4 10          	add    $0x10,%rsp
  410b79:	5d                   	pop    %rbp
  410b7a:	c3                   	retq   
--
0000000000410b80 <_ZN9__gnu_cxx13new_allocatorISsEC2Ev>:
  410b80:	55                   	push   %rbp
  410b81:	48 89 e5             	mov    %rsp,%rbp
  410b84:	48 89 7d f8          	mov    %rdi,-0x8(%rbp)
  410b88:	5d                   	pop    %rbp
  410b89:	c3                   	retq   
--
  410ba3:	48 8b 7d f0          	mov    -0x10(%rbp),%rdi
  410ba7:	48 c1 e7 03          	shl    $0x3,%rdi
  410bab:	48 01 fe             	add    %rdi,%rsi
  410bae:	48 89 f0             	mov    %rsi,%rax
  410bb1:	5d                   	pop    %rbp
  410bb2:	c3                   	retq   
--
  410bf7:	48 8b 45 d0          	mov    -0x30(%rbp),%rax
  410bfb:	48 89 45 f0          	mov    %rax,-0x10(%rbp)
  410bff:	48 8b 45 f0          	mov    -0x10(%rbp),%rax
  410c03:	48 83 c4 30          	add    $0x30,%rsp
  410c07:	5d                   	pop    %rbp
  410c08:	c3                   	retq   
--
  410d0c:	48 89 c7             	mov    %rax,%rdi
  410d0f:	e8 ec 21 01 00       	callq  422f00 <_ZN5boost9function1IvRKtEC2Ev502>
  410d14:	e9 00 00 00 00       	jmpq   410d19 <_ZN5boost15program_options11typed_valueItcEC2EPt+0xe9>
  410d19:	48 83 c4 50          	add    $0x50,%rsp
  410d1d:	5d                   	pop    %rbp
  410d1e:	c3                   	retq   
--
  410dd6:	48 05 10 00 00 00    	add    $0x10,%rax
  410ddc:	48 8b 7d f0          	mov    -0x10(%rbp),%rdi
  410de0:	48 89 07             	mov    %rax,(%rdi)
  410de3:	48 83 c4 10          	add    $0x10,%rsp
  410de7:	5d                   	pop    %rbp
  410de8:	c3                   	retq   
--
  410dfb:	48 05 10 00 00 00    	add    $0x10,%rax
  410e01:	48 89 7d f8          	mov    %rdi,-0x8(%rbp)
  410e05:	48 8b 7d f8          	mov    -0x8(%rbp),%rdi
  410e09:	48 89 07             	mov    %rax,(%rdi)
  410e0c:	5d                   	pop    %rbp
  410e0d:	c3                   	retq   
--
  410e11:	48 89 e5             	mov    %rsp,%rbp
  410e14:	48 89 7d f8          	mov    %rdi,-0x8(%rbp)
  410e18:	48 8b 7d f8          	mov    -0x8(%rbp),%rdi
  410e1c:	48 c7 07 00 00 00 00 	movq   $0x0,(%rdi)
  410e23:	5d                   	pop    %rbp
  410e24:	c3                   	retq   
--
  410e38:	48 89 7d f8          	mov    %rdi,-0x8(%rbp)
  410e3c:	48 8b 7d f8          	mov    -0x8(%rbp),%rdi
  410e40:	e8 4b 8a 00 00       	callq  419890 <_ZN5boost13function_baseC2Ev37>
  410e45:	48 83 c4 10          	add    $0x10,%rsp
  410e49:	5d                   	pop    %rbp
  410e4a:	c3                   	retq   
--
  410e58:	48 89 7d f8          	mov    %rdi,-0x8(%rbp)
  410e5c:	48 8b 7d f8          	mov    -0x8(%rbp),%rdi
  410e60:	e8 bb 18 01 00       	callq  422720 <_ZN5boost15program_options14value_semanticD2Ev476>
  410e65:	48 83 c4 10          	add    $0x10,%rsp
  410e69:	5d                   	pop    %rbp
  410e6a:	c3                   	retq   
--
  4111c4:	48 8b 7d 90          	mov    -0x70(%rbp),%rdi
  4111c8:	e8 c3 65 ff ff       	callq  407790 <_ZNSsC1ERKSs@plt>
  4111cd:	48 8b 45 88          	mov    -0x78(%rbp),%rax
  4111d1:	48 81 c4 a0 00 00 00 	add    $0xa0,%rsp
  4111d8:	5d                   	pop    %rbp
  4111d9:	c3                   	retq   
--
  41122f:	e9 07 00 00 00       	jmpq   41123b <_ZNK5boost15program_options11typed_valueItcE10min_tokensEv+0x4b>
  411234:	c7 45 fc 01 00 00 00 	movl   $0x1,-0x4(%rbp)
  41123b:	8b 45 fc             	mov    -0x4(%rbp),%eax
  41123e:	48 83 c4 20          	add    $0x20,%rsp
  411242:	5d                   	pop    %rbp
  411243:	c3                   	retq   
--
  411284:	c7 45 fc 00 00 00 00 	movl   $0x0,-0x4(%rbp)
  41128b:	e9 07 00 00 00       	jmpq   411297 <_ZNK5boost15program_options11typed_valueItcE10max_tokensEv+0x47>
  411290:	c7 45 fc 01 00 00 00 	movl   $0x1,-0x4(%rbp)
  411297:	8b 45 fc             	mov    -0x4(%rbp),%eax
  41129a:	5d                   	pop    %rbp
  41129b:	c3                   	retq   
--
  4112a8:	48 8b 7d f8          	mov    -0x8(%rbp),%rdi
  4112ac:	8a 47 40             	mov    0x40(%rdi),%al
  4112af:	24 01                	and    $0x1,%al
  4112b1:	0f b6 c0             	movzbl %al,%eax
  4112b4:	5d                   	pop    %rbp
  4112b5:	c3                   	retq   
--
  4112c8:	48 8b 7d f8          	mov    -0x8(%rbp),%rdi
  4112cc:	8a 47 44             	mov    0x44(%rdi),%al
  4112cf:	24 01                	and    $0x1,%al
  4112d1:	0f b6 c0             	movzbl %al,%eax
  4112d4:	5d                   	pop    %rbp
  4112d5:	c3                   	retq   
--
  41133b:	8a 45 ff             	mov    -0x1(%rbp),%al
  41133e:	24 01                	and    $0x1,%al
  411340:	0f b6 c0             	movzbl %al,%eax
  411343:	48 83 c4 30          	add    $0x30,%rsp
  411347:	5d                   	pop    %rbp
  411348:	c3                   	retq   
--
  4113c5:	48 8b 75 e8          	mov    -0x18(%rbp),%rsi
  4113c9:	48 89 c7             	mov    %rax,%rdi
  4113cc:	e8 9f b2 00 00       	callq  41c670 <_ZNK5boost9function1IvRKtEclES2_188>
  4113d1:	48 83 c4 30          	add    $0x30,%rsp
  4113d5:	5d                   	pop    %rbp
  4113d6:	c3                   	retq   
--
  41148f:	48 8b 45 f0          	mov    -0x10(%rbp),%rax
  411493:	48 89 c7             	mov    %rax,%rdi
  411496:	e8 15 2a 01 00       	callq  423eb0 <_ZN5boost15program_options29value_semantic_codecvt_helperIcED2Ev562>
  41149b:	48 83 c4 10          	add    $0x10,%rsp
  41149f:	5d                   	pop    %rbp
  4114a0:	c3                   	retq   
--
  4114c4:	e8 27 f3 00 00       	callq  4207f0 <_ZN5boost15program_options11typed_valueItcED2Ev401>
  4114c9:	48 8b 7d f0          	mov    -0x10(%rbp),%rdi
  4114cd:	e8 9e 61 ff ff       	callq  407670 <_ZdlPv@plt>
  4114d2:	48 83 c4 10          	add    $0x10,%rsp
  4114d6:	5d                   	pop    %rbp
  4114d7:	c3                   	retq   
--
  411553:	48 8b 75 e8          	mov    -0x18(%rbp),%rsi
  411557:	48 89 ca             	mov    %rcx,%rdx
  41155a:	e8 01 7b 00 00       	callq  419060 <_ZN5boost15program_options8validateItcEEvRNS_3anyERKSt6vectorISbIT0_St11char_traitsIS5_ESaIS5_EESaIS9_EEPT_l4>
  41155f:	48 83 c4 30          	add    $0x30,%rsp
  411563:	5d                   	pop    %rbp
  411564:	c3                   	retq   
--
  411570:	55                   	push   %rbp
  411571:	48 89 e5             	mov    %rsp,%rbp
  411574:	48 8b 05 0d 8a 22 00 	mov    0x228a0d(%rip),%rax        # 639f88 <_DYNAMIC+0x250>
  41157b:	48 89 7d f8          	mov    %rdi,-0x8(%rbp)
  41157f:	5d                   	pop    %rbp
  411580:	c3                   	retq   
--
  41159c:	48 8b 7d f8          	mov    -0x8(%rbp),%rdi
  4115a0:	48 81 c7 f8 ff ff ff 	add    $0xfffffffffffffff8,%rdi
  4115a7:	e8 44 bc 00 00       	callq  41d1f0 <_ZNK5boost15program_options11typed_valueItcE10value_typeEv227>
  4115ac:	48 83 c4 10          	add    $0x10,%rsp
  4115b0:	5d                   	pop    %rbp
  4115b1:	c3                   	retq   
--
  4115cc:	48 8b 7d f8          	mov    -0x8(%rbp),%rdi
  4115d0:	48 81 c7 f8 ff ff ff 	add    $0xfffffffffffffff8,%rdi
  4115d7:	e8 14 f2 00 00       	callq  4207f0 <_ZN5boost15program_options11typed_valueItcED2Ev401>
  4115dc:	48 83 c4 10          	add    $0x10,%rsp
  4115e0:	5d                   	pop    %rbp
  4115e1:	c3                   	retq   
--
  4115fc:	48 8b 7d f8          	mov    -0x8(%rbp),%rdi
  411600:	48 81 c7 f8 ff ff ff 	add    $0xfffffffffffffff8,%rdi
  411607:	e8 b4 89 00 00       	callq  419fc0 <_ZN5boost15program_options11typed_valueItcED0Ev65>
  41160c:	48 83 c4 10          	add    $0x10,%rsp
  411610:	5d                   	pop    %rbp
  411611:	c3                   	retq   
--
  41165b:	8a 45 df             	mov    -0x21(%rbp),%al
  41165e:	24 01                	and    $0x1,%al
  411660:	0f b6 c0             	movzbl %al,%eax
  411663:	48 83 c4 30          	add    $0x30,%rsp
  411667:	5d                   	pop    %rbp
  411668:	c3                   	retq   
--
  411693:	0f 95 c0             	setne  %al
  411696:	34 01                	xor    $0x1,%al
  411698:	24 01                	and    $0x1,%al
  41169a:	0f b6 c0             	movzbl %al,%eax
  41169d:	5d                   	pop    %rbp
  41169e:	c3                   	retq   
--
  4116e4:	48 89 45 d0          	mov    %rax,-0x30(%rbp)
  4116e8:	e8 13 0d 01 00       	callq  422400 <_ZN5boost3anyD2Ev465>
  4116ed:	48 8b 45 d8          	mov    -0x28(%rbp),%rax
  4116f1:	48 83 c4 30          	add    $0x30,%rsp
  4116f5:	5d                   	pop    %rbp
  4116f6:	c3                   	retq   
--
  41182a:	e9 12 00 00 00       	jmpq   411841 <_ZN5boost15program_options8validateItcEEvRNS_3anyERKSt6vectorISbIT0_St11char_traitsIS5_ESaIS5_EESaIS9_EEPT_l+0x141>
  41182f:	48 8d 7d d8          	lea    -0x28(%rbp),%rdi
  411833:	e8 c8 5f ff ff       	callq  407800 <_ZNSsD1Ev@plt>
  411838:	48 81 c4 10 01 00 00 	add    $0x110,%rsp
  41183f:	5d                   	pop    %rbp
  411840:	c3                   	retq   
--
  411b87:	48 8d 05 7a 88 22 00 	lea    0x22887a(%rip),%rax        # 63a408 <_ZZN5boost15program_options10validators17get_single_stringIcEERKSbIT_St11char_traitsIS3_ESaIS3_EERKSt6vectorIS7_SaIS7_EEbE5empty>
  411b8e:	48 89 45 f8          	mov    %rax,-0x8(%rbp)
  411b92:	48 8b 45 f8          	mov    -0x8(%rbp),%rax
  411b96:	48 81 c4 b0 01 00 00 	add    $0x1b0,%rsp
  411b9d:	5d                   	pop    %rbp
  411b9e:	c3                   	retq   
--
  411bef:	48 89 45 d0          	mov    %rax,-0x30(%rbp)
  411bf3:	e8 08 08 01 00       	callq  422400 <_ZN5boost3anyD2Ev465>
  411bf8:	48 8b 45 e0          	mov    -0x20(%rbp),%rax
  411bfc:	48 83 c4 30          	add    $0x30,%rsp
  411c00:	5d                   	pop    %rbp
  411c01:	c3                   	retq   
--
  411c1c:	48 8b 7d f8          	mov    -0x8(%rbp),%rdi
  411c20:	e8 6b 8e 00 00       	callq  41aa90 <_ZN5boost6detail20lexical_cast_do_castItSsE17lexical_cast_implERKSs87>
  411c25:	0f b7 c0             	movzwl %ax,%eax
  411c28:	48 83 c4 10          	add    $0x10,%rsp
  411c2c:	5d                   	pop    %rbp
  411c2d:	c3                   	retq   
--
  411c82:	48 8b 45 c0          	mov    -0x40(%rbp),%rax
  411c86:	48 8b 4d d0          	mov    -0x30(%rbp),%rcx
  411c8a:	48 89 01             	mov    %rax,(%rcx)
  411c8d:	48 83 c4 50          	add    $0x50,%rsp
  411c91:	5d                   	pop    %rbp
  411c92:	c3                   	retq   
--
  411cda:	48 8b 75 f8          	mov    -0x8(%rbp),%rsi
  411cde:	48 8d 8d 40 ff ff ff 	lea    -0xc0(%rbp),%rcx
  411ce5:	48 89 bd 28 ff ff ff 	mov    %rdi,-0xd8(%rbp)
  411cec:	48 89 cf             	mov    %rcx,%rdi
  411cef:	48 89 85 20 ff ff ff 	mov    %rax,-0xe0(%rbp)
  411cf6:	e8 c5 3b 01 00       	callq  4258c0 <_ZN5boost17enable_error_infoINS_15program_options20invalid_option_valueEEENS_16exception_detail29enable_error_info_return_typeIT_E4typeERKS5_655>
--
  411da8:	48 89 7d f8          	mov    %rdi,-0x8(%rbp)
  411dac:	48 8b 7d f8          	mov    -0x8(%rbp),%rdi
  411db0:	e8 2b 7d 00 00       	callq  419ae0 <_ZN5boost15program_options16validation_errorD2Ev48>
  411db5:	48 83 c4 10          	add    $0x10,%rsp
  411db9:	5d                   	pop    %rbp
  411dba:	c3                   	retq   
--
  411e2b:	48 8b 45 f0          	mov    -0x10(%rbp),%rax
  411e2f:	48 89 c7             	mov    %rax,%rdi
  411e32:	e8 29 7b 00 00       	callq  419960 <_ZN5boost15program_options5errorD2Ev41>
  411e37:	48 83 c4 10          	add    $0x10,%rsp
  411e3b:	5d                   	pop    %rbp
  411e3c:	c3                   	retq   
--
  411e48:	48 89 7d f8          	mov    %rdi,-0x8(%rbp)
  411e4c:	48 8b 7d f8          	mov    -0x8(%rbp),%rdi
  411e50:	e8 eb 7d 00 00       	callq  419c40 <_ZNSt8_Rb_treeISsSt4pairIKSsS0_ISsSsEESt10_Select1stIS3_ESt4lessISsESaIS3_EED2Ev56>
  411e55:	48 83 c4 10          	add    $0x10,%rsp
  411e59:	5d                   	pop    %rbp
  411e5a:	c3                   	retq   
--
  411e8e:	e9 00 00 00 00       	jmpq   411e93 <_ZNSt8_Rb_treeISsSt4pairIKSsS0_ISsSsEESt10_Select1stIS3_ESt4lessISsESaIS3_EED2Ev+0x33>
  411e93:	48 8b 7d e0          	mov    -0x20(%rbp),%rdi
  411e97:	e8 d4 77 00 00       	callq  419670 <_ZNSt8_Rb_treeISsSt4pairIKSsS0_ISsSsEESt10_Select1stIS3_ESt4lessISsESaIS3_EE13_Rb_tree_implIS7_Lb1EED2Ev26>
  411e9c:	48 83 c4 30          	add    $0x30,%rsp
  411ea0:	5d                   	pop    %rbp
  411ea1:	c3                   	retq   
--
  411f1b:	48 8b 45 e8          	mov    -0x18(%rbp),%rax
  411f1f:	48 89 45 f0          	mov    %rax,-0x10(%rbp)
  411f23:	e9 b0 ff ff ff       	jmpq   411ed8 <_ZNSt8_Rb_treeISsSt4pairIKSsS0_ISsSsEESt10_Select1stIS3_ESt4lessISsESaIS3_EE8_M_eraseEPSt13_Rb_tree_nodeIS3_E+0x18>
  411f28:	48 83 c4 20          	add    $0x20,%rsp
  411f2c:	5d                   	pop    %rbp
  411f2d:	c3                   	retq   
--
  411f34:	48 89 7d f8          	mov    %rdi,-0x8(%rbp)
  411f38:	48 8b 7d f8          	mov    -0x8(%rbp),%rdi
  411f3c:	48 8b 7f 10          	mov    0x10(%rdi),%rdi
  411f40:	48 89 f8             	mov    %rdi,%rax
  411f43:	5d                   	pop    %rbp
  411f44:	c3                   	retq   
--
  411f58:	48 89 7d f8          	mov    %rdi,-0x8(%rbp)
  411f5c:	48 8b 7d f8          	mov    -0x8(%rbp),%rdi
  411f60:	e8 3b bf 00 00       	callq  41dea0 <_ZNSaISt13_Rb_tree_nodeISt4pairIKSsS0_ISsSsEEEED2Ev267>
  411f65:	48 83 c4 10          	add    $0x10,%rsp
  411f69:	5d                   	pop    %rbp
  411f6a:	c3                   	retq   
--
  411f78:	48 89 7d f8          	mov    %rdi,-0x8(%rbp)
  411f7c:	48 8b 7d f8          	mov    -0x8(%rbp),%rdi
  411f80:	e8 9b 3f 01 00       	callq  425f20 <_ZN9__gnu_cxx13new_allocatorISt13_Rb_tree_nodeISt4pairIKSsS2_ISsSsEEEED2Ev674>
  411f85:	48 83 c4 10          	add    $0x10,%rsp
  411f89:	5d                   	pop    %rbp
  411f8a:	c3                   	retq   
--
0000000000411f90 <_ZN9__gnu_cxx13new_allocatorISt13_Rb_tree_nodeISt4pairIKSsS2_ISsSsEEEED2Ev>:
  411f90:	55                   	push   %rbp
  411f91:	48 89 e5             	mov    %rsp,%rbp
  411f94:	48 89 7d f8          	mov    %rdi,-0x8(%rbp)
  411f98:	5d                   	pop    %rbp
  411f99:	c3                   	retq   
--
  411fa4:	48 89 7d f8          	mov    %rdi,-0x8(%rbp)
  411fa8:	48 8b 7d f8          	mov    -0x8(%rbp),%rdi
  411fac:	48 8b 7f 18          	mov    0x18(%rdi),%rdi
  411fb0:	48 89 f8             	mov    %rdi,%rax
  411fb3:	5d                   	pop    %rbp
  411fb4:	c3                   	retq   
--
  411fc4:	48 89 7d f8          	mov    %rdi,-0x8(%rbp)
  411fc8:	48 8b 7d f8          	mov    -0x8(%rbp),%rdi
  411fcc:	48 8b 7f 10          	mov    0x10(%rdi),%rdi
  411fd0:	48 89 f8             	mov    %rdi,%rax
  411fd3:	5d                   	pop    %rbp
  411fd4:	c3                   	retq   
--
  41200c:	48 8b 75 f0          	mov    -0x10(%rbp),%rsi
  412010:	48 8b 7d e8          	mov    -0x18(%rbp),%rdi
  412014:	e8 67 7d 00 00       	callq  419d80 <_ZNSt8_Rb_treeISsSt4pairIKSsS0_ISsSsEESt10_Select1stIS3_ESt4lessISsESaIS3_EE11_M_put_nodeEPSt13_Rb_tree_nodeIS3_E61>
  412019:	48 83 c4 20          	add    $0x20,%rsp
  41201d:	5d                   	pop    %rbp
  41201e:	c3                   	retq   
--
  412021:	48 89 e5             	mov    %rsp,%rbp
  412024:	48 89 7d f8          	mov    %rdi,-0x8(%rbp)
  412028:	48 8b 7d f8          	mov    -0x8(%rbp),%rdi
  41202c:	48 89 f8             	mov    %rdi,%rax
  41202f:	5d                   	pop    %rbp
  412030:	c3                   	retq   
--
  41204c:	48 89 75 f0          	mov    %rsi,-0x10(%rbp)
  412050:	48 8b 7d f0          	mov    -0x10(%rbp),%rdi
  412054:	e8 f7 7c 00 00       	callq  419d50 <_ZNSt13_Rb_tree_nodeISt4pairIKSsS0_ISsSsEEED2Ev60>
  412059:	48 83 c4 10          	add    $0x10,%rsp
  41205d:	5d                   	pop    %rbp
  41205e:	c3                   	retq   
--
  412083:	48 89 f7             	mov    %rsi,%rdi
  412086:	48 8b 75 e8          	mov    -0x18(%rbp),%rsi
  41208a:	e8 71 12 01 00       	callq  423300 <_ZN9__gnu_cxx13new_allocatorISt13_Rb_tree_nodeISt4pairIKSsS2_ISsSsEEEE10deallocateEPS6_m521>
  41208f:	48 83 c4 20          	add    $0x20,%rsp
  412093:	5d                   	pop    %rbp
  412094:	c3                   	retq   
--
  4120b4:	48 8b 55 f0          	mov    -0x10(%rbp),%rdx
  4120b8:	48 89 d7             	mov    %rdx,%rdi
  4120bb:	e8 b0 55 ff ff       	callq  407670 <_ZdlPv@plt>
  4120c0:	48 83 c4 20          	add    $0x20,%rsp
  4120c4:	5d                   	pop    %rbp
  4120c5:	c3                   	retq   
--
  4120dc:	48 8b 7d f8          	mov    -0x8(%rbp),%rdi
  4120e0:	48 81 c7 20 00 00 00 	add    $0x20,%rdi
  4120e7:	e8 d4 0b 01 00       	callq  422cc0 <_ZNSt4pairIKSsS_ISsSsEED2Ev491>
  4120ec:	48 83 c4 10          	add    $0x10,%rsp
  4120f0:	5d                   	pop    %rbp
  4120f1:	c3                   	retq   
--
  412120:	e8 eb 8b 00 00       	callq  41ad10 <_ZNSt4pairISsSsED2Ev93>
  412125:	48 8b 7d f0          	mov    -0x10(%rbp),%rdi
  412129:	e8 d2 56 ff ff       	callq  407800 <_ZNSsD1Ev@plt>
  41212e:	48 83 c4 10          	add    $0x10,%rsp
  412132:	5d                   	pop    %rbp
  412133:	c3                   	retq   
--
  412160:	e8 9b 56 ff ff       	callq  407800 <_ZNSsD1Ev@plt>
  412165:	48 8b 7d f0          	mov    -0x10(%rbp),%rdi
  412169:	e8 92 56 ff ff       	callq  407800 <_ZNSsD1Ev@plt>
  41216e:	48 83 c4 10          	add    $0x10,%rsp
  412172:	5d                   	pop    %rbp
  412173:	c3                   	retq   
--
  412193:	48 89 45 f0          	mov    %rax,-0x10(%rbp)
  412197:	e8 64 a3 00 00       	callq  41c500 <_ZN5boost16exception_detail10clone_implINS0_19error_info_injectorINS_15program_options20invalid_option_valueEEEEC1ERKS5_184>
  41219c:	48 8b 45 f0          	mov    -0x10(%rbp),%rax
  4121a0:	48 83 c4 10          	add    $0x10,%rsp
  4121a4:	5d                   	pop    %rbp
  4121a5:	c3                   	retq   
  4121a6:	66 2e 0f 1f 84 00 00 	nopw   %cs:0x0(%rax,%rax,1)
  4121ad:	00 00 00 

00000000004121b0 <_ZN5boost17enable_error_infoINS_15program_options20invalid_option_valueEEENS_16exception_detail29enable_error_info_return_typeIT_E4typeERKS5_>:
--
  4121c3:	48 89 45 f0          	mov    %rax,-0x10(%rbp)
  4121c7:	e8 04 0f 01 00       	callq  4230d0 <_ZN5boost16exception_detail19error_info_injectorINS_15program_options20invalid_option_valueEEC2ERKS3_511>
  4121cc:	48 8b 45 f0          	mov    -0x10(%rbp),%rax
  4121d0:	48 83 c4 10          	add    $0x10,%rsp
  4121d4:	5d                   	pop    %rbp
  4121d5:	c3                   	retq   
--
  412204:	48 81 c6 b8 00 00 00 	add    $0xb8,%rsi
  41220b:	48 89 f7             	mov    %rsi,%rdi
  41220e:	e8 1d da 00 00       	callq  41fc30 <_ZN5boost16exception_detail10clone_baseD2Ev363>
  412213:	48 83 c4 10          	add    $0x10,%rsp
  412217:	5d                   	pop    %rbp
  412218:	c3                   	retq   
--
  412245:	48 8b 45 f0          	mov    -0x10(%rbp),%rax
  412249:	48 89 c7             	mov    %rax,%rdi
  41224c:	e8 5f 0e 01 00       	callq  4230b0 <_ZN5boost15program_options20invalid_option_valueD2Ev510>
  412251:	48 83 c4 10          	add    $0x10,%rsp
  412255:	5d                   	pop    %rbp
  412256:	c3                   	retq   
--
  41226c:	48 8b 7d f8          	mov    -0x8(%rbp),%rdi
  412270:	48 81 c7 70 ff ff ff 	add    $0xffffffffffffff70,%rdi
  412277:	e8 94 cf 00 00       	callq  41f210 <_ZN5boost16exception_detail19error_info_injectorINS_15program_options20invalid_option_valueEED2Ev329>
  41227c:	48 83 c4 10          	add    $0x10,%rsp
  412280:	5d                   	pop    %rbp
  412281:	c3                   	retq   
--
  4122a0:	48 8b 75 f8          	mov    -0x8(%rbp),%rsi
  4122a4:	48 89 f7             	mov    %rsi,%rdi
  4122a7:	e8 64 cf 00 00       	callq  41f210 <_ZN5boost16exception_detail19error_info_injectorINS_15program_options20invalid_option_valueEED2Ev329>
  4122ac:	48 83 c4 10          	add    $0x10,%rsp
  4122b0:	5d                   	pop    %rbp
  4122b1:	c3                   	retq   
--
  4122cc:	48 8b 7d f8          	mov    -0x8(%rbp),%rdi
  4122d0:	48 81 c7 70 ff ff ff 	add    $0xffffffffffffff70,%rdi
  4122d7:	e8 24 c6 00 00       	callq  41e900 <_ZN5boost16exception_detail10clone_implINS0_19error_info_injectorINS_15program_options20invalid_option_valueEEEED1Ev306>
  4122dc:	48 83 c4 10          	add    $0x10,%rsp
  4122e0:	5d                   	pop    %rbp
  4122e1:	c3                   	retq   
--
  412306:	48 03 47 d8          	add    -0x28(%rdi),%rax
  41230a:	48 89 c7             	mov    %rax,%rdi
  41230d:	e8 ee c5 00 00       	callq  41e900 <_ZN5boost16exception_detail10clone_implINS0_19error_info_injectorINS_15program_options20invalid_option_valueEEEED1Ev306>
  412312:	48 83 c4 10          	add    $0x10,%rsp
  412316:	5d                   	pop    %rbp
  412317:	c3                   	retq   
--
  412334:	e8 c7 c5 00 00       	callq  41e900 <_ZN5boost16exception_detail10clone_implINS0_19error_info_injectorINS_15program_options20invalid_option_valueEEEED1Ev306>
  412339:	48 8b 7d f0          	mov    -0x10(%rbp),%rdi
  41233d:	e8 2e 53 ff ff       	callq  407670 <_ZdlPv@plt>
  412342:	48 83 c4 10          	add    $0x10,%rsp
  412346:	5d                   	pop    %rbp
  412347:	c3                   	retq   
--
  4123ab:	e8 50 54 ff ff       	callq  407800 <_ZNSsD1Ev@plt>
  4123b0:	48 8d 7d e0          	lea    -0x20(%rbp),%rdi
  4123b4:	e8 d7 56 ff ff       	callq  407a90 <_ZNSaIcED1Ev@plt>
  4123b9:	48 83 c4 40          	add    $0x40,%rsp
  4123bd:	5d                   	pop    %rbp
  4123be:	c3                   	retq   
--
  412462:	48 01 c8             	add    %rcx,%rax
  412465:	48 89 45 c0          	mov    %rax,-0x40(%rbp)
  412469:	48 8b 45 c0          	mov    -0x40(%rbp),%rax
  41246d:	48 83 c4 40          	add    $0x40,%rsp
  412471:	5d                   	pop    %rbp
  412472:	c3                   	retq   
--
  412480:	e8 eb 51 ff ff       	callq  407670 <_ZdlPv@plt>
  412485:	48 8b 7d e8          	mov    -0x18(%rbp),%rdi
  412489:	e8 d2 57 ff ff       	callq  407c60 <_Unwind_Resume@plt>
  41248e:	66 90                	xchg   %ax,%ax

0000000000412490 <_ZNK5boost16exception_detail10clone_implINS0_19error_info_injectorINS_15program_options20invalid_option_valueEEEE7rethrowEv>:
--
  4124af:	48 89 c1             	mov    %rax,%rcx
  4124b2:	48 89 c7             	mov    %rax,%rdi
  4124b5:	48 8b 75 e0          	mov    -0x20(%rbp),%rsi
  4124b9:	48 89 4d d8          	mov    %rcx,-0x28(%rbp)
  4124bd:	e8 7e 94 00 00       	callq  41b940 <_ZN5boost16exception_detail10clone_implINS0_19error_info_injectorINS_15program_options20invalid_option_valueEEEEC1ERKS6_142>
  4124c2:	e9 00 00 00 00       	jmpq   4124c7 <_ZNK5boost16exception_detail10clone_implINS0_19error_info_injectorINS_15program_options20invalid_option_valueEEEE7rethrowEv+0x37>
--
  41250c:	48 8b 7d f8          	mov    -0x8(%rbp),%rdi
  412510:	48 81 c7 70 ff ff ff 	add    $0xffffffffffffff70,%rdi
  412517:	e8 84 c0 00 00       	callq  41e5a0 <_ZN5boost16exception_detail10clone_implINS0_19error_info_injectorINS_15program_options20invalid_option_valueEEEED0Ev296>
  41251c:	48 83 c4 10          	add    $0x10,%rsp
  412520:	5d                   	pop    %rbp
  412521:	c3                   	retq   
--
  412546:	48 03 47 e8          	add    -0x18(%rdi),%rax
  41254a:	48 89 c7             	mov    %rax,%rdi
  41254d:	e8 5e 1b 01 00       	callq  4240b0 <_ZNK5boost16exception_detail10clone_implINS0_19error_info_injectorINS_15program_options20invalid_option_valueEEEE5cloneEv566>
  412552:	48 83 c4 10          	add    $0x10,%rsp
  412556:	5d                   	pop    %rbp
  412557:	c3                   	retq   
  412558:	0f 1f 84 00 00 00 00 	nopl   0x0(%rax,%rax,1)
  41255f:	00 

0000000000412560 <_ZTv0_n32_NK5boost16exception_detail10clone_implINS0_19error_info_injectorINS_15program_options20invalid_option_valueEEEE7rethrowEv>:
--
  41256c:	48 8b 7d f8          	mov    -0x8(%rbp),%rdi
  412570:	48 89 f8             	mov    %rdi,%rax
  412573:	48 8b 3f             	mov    (%rdi),%rdi
  412576:	48 03 47 e0          	add    -0x20(%rdi),%rax
  41257a:	48 89 c7             	mov    %rax,%rdi
  41257d:	e8 8e 7c 00 00       	callq  41a210 <_ZNK5boost16exception_detail10clone_implINS0_19error_info_injectorINS_15program_options20invalid_option_valueEEEE7rethrowEv73>
  412582:	48 83 c4 10          	add    $0x10,%rsp
  412586:	5d                   	pop    %rbp
  412587:	c3                   	retq   
--
  4125a6:	48 03 47 d8          	add    -0x28(%rdi),%rax
  4125aa:	48 89 c7             	mov    %rax,%rdi
  4125ad:	e8 ee bf 00 00       	callq  41e5a0 <_ZN5boost16exception_detail10clone_implINS0_19error_info_injectorINS_15program_options20invalid_option_valueEEEED0Ev296>
  4125b2:	48 83 c4 10          	add    $0x10,%rsp
  4125b6:	5d                   	pop    %rbp
  4125b7:	c3                   	retq   
--
  41262a:	48 89 06             	mov    %rax,(%rsi)
  41262d:	48 89 96 90 00 00 00 	mov    %rdx,0x90(%rsi)
  412634:	48 89 8e b8 00 00 00 	mov    %rcx,0xb8(%rsi)
  41263b:	48 83 c4 30          	add    $0x30,%rsp
  41263f:	5d                   	pop    %rbp
  412640:	c3                   	retq   
--
  4126cf:	48 8b 55 d8          	mov    -0x28(%rbp),%rdx
  4126d3:	48 89 02             	mov    %rax,(%rdx)
  4126d6:	48 89 8a 90 00 00 00 	mov    %rcx,0x90(%rdx)
  4126dd:	48 83 c4 30          	add    $0x30,%rsp
  4126e1:	5d                   	pop    %rbp
  4126e2:	c3                   	retq   
--
  41273e:	48 05 10 00 00 00    	add    $0x10,%rax
  412744:	48 8b 75 e8          	mov    -0x18(%rbp),%rsi
  412748:	48 89 06             	mov    %rax,(%rsi)
  41274b:	48 83 c4 20          	add    $0x20,%rsp
  41274f:	5d                   	pop    %rbp
  412750:	c3                   	retq   
--
  412774:	e8 97 ca 00 00       	callq  41f210 <_ZN5boost16exception_detail19error_info_injectorINS_15program_options20invalid_option_valueEED2Ev329>
  412779:	48 8b 7d f0          	mov    -0x10(%rbp),%rdi
  41277d:	e8 ee 4e ff ff       	callq  407670 <_ZdlPv@plt>
  412782:	48 83 c4 10          	add    $0x10,%rsp
  412786:	5d                   	pop    %rbp
  412787:	c3                   	retq   
--
  41279c:	48 8b 7d f8          	mov    -0x8(%rbp),%rdi
  4127a0:	48 81 c7 70 ff ff ff 	add    $0xffffffffffffff70,%rdi
  4127a7:	e8 44 20 01 00       	callq  4247f0 <_ZN5boost16exception_detail19error_info_injectorINS_15program_options20invalid_option_valueEED0Ev592>
  4127ac:	48 83 c4 10          	add    $0x10,%rsp
  4127b0:	5d                   	pop    %rbp
  4127b1:	c3                   	retq   
--
  4127fb:	48 8b 45 f0          	mov    -0x10(%rbp),%rax
  4127ff:	8b 88 88 00 00 00    	mov    0x88(%rax),%ecx
  412805:	89 8e 88 00 00 00    	mov    %ecx,0x88(%rsi)
  41280b:	48 83 c4 20          	add    $0x20,%rsp
  41280f:	5d                   	pop    %rbp
  412810:	c3                   	retq   
--
  412834:	e8 77 08 01 00       	callq  4230b0 <_ZN5boost15program_options20invalid_option_valueD2Ev510>
  412839:	48 8b 7d f0          	mov    -0x10(%rbp),%rdi
  41283d:	e8 2e 4e ff ff       	callq  407670 <_ZdlPv@plt>
  412842:	48 83 c4 10          	add    $0x10,%rsp
  412846:	5d                   	pop    %rbp
  412847:	c3                   	retq   
--
  41292d:	8b 48 10             	mov    0x10(%rax),%ecx
  412930:	48 8b 45 d8          	mov    -0x28(%rbp),%rax
  412934:	89 48 10             	mov    %ecx,0x10(%rax)
  412937:	48 83 c4 40          	add    $0x40,%rsp
  41293b:	5d                   	pop    %rbp
  41293c:	c3                   	retq   
--
  4129a8:	48 89 7d f8          	mov    %rdi,-0x8(%rbp)
  4129ac:	48 8b 7d f8          	mov    -0x8(%rbp),%rdi
  4129b0:	e8 9b ce 00 00       	callq  41f850 <_ZN5boost15program_options22error_with_option_nameD2Ev347>
  4129b5:	48 83 c4 10          	add    $0x10,%rsp
  4129b9:	5d                   	pop    %rbp
  4129ba:	c3                   	retq   
--
  4129d4:	e8 07 71 00 00       	callq  419ae0 <_ZN5boost15program_options16validation_errorD2Ev48>
  4129d9:	48 8b 7d f0          	mov    -0x10(%rbp),%rdi
  4129dd:	e8 8e 4c ff ff       	callq  407670 <_ZdlPv@plt>
  4129e2:	48 83 c4 10          	add    $0x10,%rsp
  4129e6:	5d                   	pop    %rbp
  4129e7:	c3                   	retq   
--
  412a1e:	48 05 10 00 00 00    	add    $0x10,%rax
  412a24:	48 8b 75 e8          	mov    -0x18(%rbp),%rsi
  412a28:	48 89 06             	mov    %rax,(%rsi)
  412a2b:	48 83 c4 20          	add    $0x20,%rsp
  412a2f:	5d                   	pop    %rbp
  412a30:	c3                   	retq   
--
  412a50:	48 8b 7d f8          	mov    -0x8(%rbp),%rdi
  412a54:	48 8b 75 f0          	mov    -0x10(%rbp),%rsi
  412a58:	e8 03 21 01 00       	callq  424b60 <_ZNSt8_Rb_treeISsSt4pairIKSsSsESt10_Select1stIS2_ESt4lessISsESaIS2_EEC2ERKS8_602>
  412a5d:	48 83 c4 10          	add    $0x10,%rsp
  412a61:	5d                   	pop    %rbp
  412a62:	c3                   	retq   
--
  412a80:	48 8b 7d f8          	mov    -0x8(%rbp),%rdi
  412a84:	48 8b 75 f0          	mov    -0x10(%rbp),%rsi
  412a88:	e8 73 c8 00 00       	callq  41f300 <_ZNSt8_Rb_treeISsSt4pairIKSsS0_ISsSsEESt10_Select1stIS3_ESt4lessISsESaIS3_EEC2ERKS9_332>
  412a8d:	48 83 c4 10          	add    $0x10,%rsp
  412a91:	5d                   	pop    %rbp
  412a92:	c3                   	retq   
--
  412c1b:	48 8b 7d d8          	mov    -0x28(%rbp),%rdi
  412c1f:	e8 4c 6a 00 00       	callq  419670 <_ZNSt8_Rb_treeISsSt4pairIKSsS0_ISsSsEESt10_Select1stIS3_ESt4lessISsESaIS3_EE13_Rb_tree_implIS7_Lb1EED2Ev26>
  412c24:	e9 09 00 00 00       	jmpq   412c32 <_ZNSt8_Rb_treeISsSt4pairIKSsS0_ISsSsEESt10_Select1stIS3_ESt4lessISsESaIS3_EEC2ERKS9_+0x192>
  412c29:	48 81 c4 a0 00 00 00 	add    $0xa0,%rsp
  412c30:	5d                   	pop    %rbp
  412c31:	c3                   	retq   
--
  412c41:	48 89 e5             	mov    %rsp,%rbp
  412c44:	48 89 7d f8          	mov    %rdi,-0x8(%rbp)
  412c48:	48 8b 7d f8          	mov    -0x8(%rbp),%rdi
  412c4c:	48 89 f8             	mov    %rdi,%rax
  412c4f:	5d                   	pop    %rbp
  412c50:	c3                   	retq   
--
  412c9e:	48 89 d7             	mov    %rdx,%rdi
  412ca1:	e8 2a 03 01 00       	callq  422fd0 <_ZNSt8_Rb_treeISsSt4pairIKSsS0_ISsSsEESt10_Select1stIS3_ESt4lessISsESaIS3_EE13_Rb_tree_implIS7_Lb1EE13_M_initializeEv505>
  412ca6:	e9 00 00 00 00       	jmpq   412cab <_ZNSt8_Rb_treeISsSt4pairIKSsS0_ISsSsEESt10_Select1stIS3_ESt4lessISsESaIS3_EE13_Rb_tree_implIS7_Lb1EEC2ERKS7_RKSaISt13_Rb_tree_nodeIS3_EE+0x4b>
  412cab:	48 83 c4 30          	add    $0x30,%rsp
  412caf:	5d                   	pop    %rbp
  412cb0:	c3                   	retq   
--
  412cd1:	48 89 e5             	mov    %rsp,%rbp
  412cd4:	48 89 7d f8          	mov    %rdi,-0x8(%rbp)
  412cd8:	48 8b 7d f8          	mov    -0x8(%rbp),%rdi
  412cdc:	48 8b 47 10          	mov    0x10(%rdi),%rax
  412ce0:	5d                   	pop    %rbp
  412ce1:	c3                   	retq   
--
  412d8c:	48 8b 75 e0          	mov    -0x20(%rbp),%rsi
  412d90:	48 8b 7d c0          	mov    -0x40(%rbp),%rdi
  412d94:	48 89 45 a8          	mov    %rax,-0x58(%rbp)
  412d98:	e8 23 a1 00 00       	callq  41cec0 <_ZNSt8_Rb_treeISsSt4pairIKSsS0_ISsSsEESt10_Select1stIS3_ESt4lessISsESaIS3_EE8_M_eraseEPSt13_Rb_tree_nodeIS3_E213>
  412d9d:	e9 00 00 00 00       	jmpq   412da2 <_ZNSt8_Rb_treeISsSt4pairIKSsS0_ISsSsEESt10_Select1stIS3_ESt4lessISsESaIS3_EE7_M_copyEPKSt13_Rb_tree_nodeIS3_EPSB_+0xb2>
  412da2:	e8 29 49 ff ff       	callq  4076d0 <__cxa_rethrow@plt>
--
  412e96:	e9 00 00 00 00       	jmpq   412e9b <_ZNSt8_Rb_treeISsSt4pairIKSsS0_ISsSsEESt10_Select1stIS3_ESt4lessISsESaIS3_EE7_M_copyEPKSt13_Rb_tree_nodeIS3_EPSB_+0x1ab>
  412e9b:	e9 0d 00 00 00       	jmpq   412ead <_ZNSt8_Rb_treeISsSt4pairIKSsS0_ISsSsEESt10_Select1stIS3_ESt4lessISsESaIS3_EE7_M_copyEPKSt13_Rb_tree_nodeIS3_EPSB_+0x1bd>
  412ea0:	48 8b 45 e0          	mov    -0x20(%rbp),%rax
  412ea4:	48 81 c4 90 00 00 00 	add    $0x90,%rsp
  412eab:	5d                   	pop    %rbp
  412eac:	c3                   	retq   
--
  412ed4:	48 89 7d f8          	mov    %rdi,-0x8(%rbp)
  412ed8:	48 8b 7d f8          	mov    -0x8(%rbp),%rdi
  412edc:	48 8b 7f 10          	mov    0x10(%rdi),%rdi
  412ee0:	48 89 f8             	mov    %rdi,%rax
  412ee3:	5d                   	pop    %rbp
  412ee4:	c3                   	retq   
--
  412ef4:	48 89 7d f8          	mov    %rdi,-0x8(%rbp)
  412ef8:	48 8b 7d f8          	mov    -0x8(%rbp),%rdi
  412efc:	48 81 c7 08 00 00 00 	add    $0x8,%rdi
  412f03:	48 89 f8             	mov    %rdi,%rax
  412f06:	5d                   	pop    %rbp
  412f07:	c3                   	retq   
--
  412f18:	48 8b 7d f8          	mov    -0x8(%rbp),%rdi
  412f1c:	48 81 c7 08 00 00 00 	add    $0x8,%rdi
  412f23:	48 81 c7 08 00 00 00 	add    $0x8,%rdi
  412f2a:	48 89 f8             	mov    %rdi,%rax
  412f2d:	5d                   	pop    %rbp
  412f2e:	c3                   	retq   
--
  412f38:	48 89 7d f8          	mov    %rdi,-0x8(%rbp)
  412f3c:	48 8b 7d f8          	mov    -0x8(%rbp),%rdi
  412f40:	e8 2b 39 01 00       	callq  426870 <_ZNSt18_Rb_tree_node_base10_S_minimumEPS_689>
  412f45:	48 83 c4 10          	add    $0x10,%rsp
  412f49:	5d                   	pop    %rbp
  412f4a:	c3                   	retq   
--
  412f58:	48 8b 7d f8          	mov    -0x8(%rbp),%rdi
  412f5c:	48 81 c7 08 00 00 00 	add    $0x8,%rdi
  412f63:	48 81 c7 10 00 00 00 	add    $0x10,%rdi
  412f6a:	48 89 f8             	mov    %rdi,%rax
  412f6d:	5d                   	pop    %rbp
  412f6e:	c3                   	retq   
--
  412f78:	48 89 7d f8          	mov    %rdi,-0x8(%rbp)
  412f7c:	48 8b 7d f8          	mov    -0x8(%rbp),%rdi
  412f80:	e8 5b 65 00 00       	callq  4194e0 <_ZNSt18_Rb_tree_node_base10_S_maximumEPS_18>
  412f85:	48 83 c4 10          	add    $0x10,%rsp
  412f89:	5d                   	pop    %rbp
  412f8a:	c3                   	retq   
--
  412f98:	48 8b 7d f8          	mov    -0x8(%rbp),%rdi
  412f9c:	48 81 c7 08 00 00 00 	add    $0x8,%rdi
  412fa3:	48 81 c7 18 00 00 00 	add    $0x18,%rdi
  412faa:	48 89 f8             	mov    %rdi,%rax
  412fad:	5d                   	pop    %rbp
  412fae:	c3                   	retq   
--
  412fce:	48 8b 40 18          	mov    0x18(%rax),%rax
  412fd2:	48 89 45 f8          	mov    %rax,-0x8(%rbp)
  412fd6:	e9 dd ff ff ff       	jmpq   412fb8 <_ZNSt18_Rb_tree_node_base10_S_maximumEPS_+0x8>
  412fdb:	48 8b 45 f8          	mov    -0x8(%rbp),%rax
  412fdf:	5d                   	pop    %rbp
  412fe0:	c3                   	retq   
--
  41300e:	48 8b 40 10          	mov    0x10(%rax),%rax
  413012:	48 89 45 f8          	mov    %rax,-0x8(%rbp)
  413016:	e9 dd ff ff ff       	jmpq   412ff8 <_ZNSt18_Rb_tree_node_base10_S_minimumEPS_+0x8>
  41301b:	48 8b 45 f8          	mov    -0x8(%rbp),%rax
  41301f:	5d                   	pop    %rbp
  413020:	c3                   	retq   
--
  413074:	48 c7 40 18 00 00 00 	movq   $0x0,0x18(%rax)
  41307b:	00 
  41307c:	48 8b 45 e8          	mov    -0x18(%rbp),%rax
  413080:	48 83 c4 20          	add    $0x20,%rsp
  413084:	5d                   	pop    %rbp
  413085:	c3                   	retq   
--
  413094:	48 89 7d f8          	mov    %rdi,-0x8(%rbp)
  413098:	48 8b 7d f8          	mov    -0x8(%rbp),%rdi
  41309c:	48 8b 7f 18          	mov    0x18(%rdi),%rdi
  4130a0:	48 89 f8             	mov    %rdi,%rax
  4130a3:	5d                   	pop    %rbp
  4130a4:	c3                   	retq   
--
  4130b4:	48 89 7d f8          	mov    %rdi,-0x8(%rbp)
  4130b8:	48 8b 7d f8          	mov    -0x8(%rbp),%rdi
  4130bc:	48 8b 7f 10          	mov    0x10(%rdi),%rdi
  4130c0:	48 89 f8             	mov    %rdi,%rax
  4130c3:	5d                   	pop    %rbp
  4130c4:	c3                   	retq   
--
  41313e:	48 8b 75 e8          	mov    -0x18(%rbp),%rsi
  413142:	48 8b 7d d0          	mov    -0x30(%rbp),%rdi
  413146:	48 89 45 b8          	mov    %rax,-0x48(%rbp)
  41314a:	e8 31 6c 00 00       	callq  419d80 <_ZNSt8_Rb_treeISsSt4pairIKSsS0_ISsSsEESt10_Select1stIS3_ESt4lessISsESaIS3_EE11_M_put_nodeEPSt13_Rb_tree_nodeIS3_E61>
  41314f:	e9 00 00 00 00       	jmpq   413154 <_ZNSt8_Rb_treeISsSt4pairIKSsS0_ISsSsEESt10_Select1stIS3_ESt4lessISsESaIS3_EE14_M_create_nodeIJRKS3_EEEPSt13_Rb_tree_nodeIS3_EDpOT_+0x84>
  413154:	e8 77 45 ff ff       	callq  4076d0 <__cxa_rethrow@plt>
--
  41316c:	e9 00 00 00 00       	jmpq   413171 <_ZNSt8_Rb_treeISsSt4pairIKSsS0_ISsSsEESt10_Select1stIS3_ESt4lessISsESaIS3_EE14_M_create_nodeIJRKS3_EEEPSt13_Rb_tree_nodeIS3_EDpOT_+0xa1>
  413171:	e9 0a 00 00 00       	jmpq   413180 <_ZNSt8_Rb_treeISsSt4pairIKSsS0_ISsSsEESt10_Select1stIS3_ESt4lessISsESaIS3_EE14_M_create_nodeIJRKS3_EEEPSt13_Rb_tree_nodeIS3_EDpOT_+0xb0>
  413176:	48 8b 45 e8          	mov    -0x18(%rbp),%rax
  41317a:	48 83 c4 50          	add    $0x50,%rsp
  41317e:	5d                   	pop    %rbp
  41317f:	c3                   	retq   
--
  4131b3:	48 89 7d f8          	mov    %rdi,-0x8(%rbp)
  4131b7:	48 8b 7d f8          	mov    -0x8(%rbp),%rdi
  4131bb:	e8 d0 05 01 00       	callq  423790 <_ZN9__gnu_cxx13new_allocatorISt13_Rb_tree_nodeISt4pairIKSsS2_ISsSsEEEE8allocateEmPKv537>
  4131c0:	48 83 c4 10          	add    $0x10,%rsp
  4131c4:	5d                   	pop    %rbp
  4131c5:	c3                   	retq   
--
  413204:	48 8b 75 d8          	mov    -0x28(%rbp),%rsi
  413208:	48 89 c2             	mov    %rax,%rdx
  41320b:	e8 90 82 00 00       	callq  41b4a0 <_ZNSt16allocator_traitsISaISt13_Rb_tree_nodeISt4pairIKSsS1_ISsSsEEEEE12_S_constructIS5_JRKS4_EEENSt9enable_ifIXsr18__construct_helperIT_DpT0_EE5valueEvE4typeERS6_PSC_DpOSD_125>
  413210:	48 83 c4 30          	add    $0x30,%rsp
  413214:	5d                   	pop    %rbp
  413215:	c3                   	retq   
--
  413220:	55                   	push   %rbp
  413221:	48 89 e5             	mov    %rsp,%rbp
  413224:	48 89 7d f8          	mov    %rdi,-0x8(%rbp)
  413228:	48 8b 45 f8          	mov    -0x8(%rbp),%rax
  41322c:	5d                   	pop    %rbp
  41322d:	c3                   	retq   
--
  413261:	48 8b 75 d8          	mov    -0x28(%rbp),%rsi
  413265:	48 89 c2             	mov    %rax,%rdx
  413268:	e8 73 cd 00 00       	callq  41ffe0 <_ZN9__gnu_cxx13new_allocatorISt13_Rb_tree_nodeISt4pairIKSsS2_ISsSsEEEE9constructIS6_JRKS5_EEEvPT_DpOT0_369>
  41326d:	48 83 c4 30          	add    $0x30,%rsp
  413271:	5d                   	pop    %rbp
  413272:	c3                   	retq   
--
  4132ba:	48 8b 7d d8          	mov    -0x28(%rbp),%rdi
  4132be:	48 89 c6             	mov    %rax,%rsi
  4132c1:	e8 6a 09 01 00       	callq  423c30 <_ZNSt13_Rb_tree_nodeISt4pairIKSsS0_ISsSsEEEC2IJRKS3_EEEDpOT_552>
  4132c6:	48 83 c4 30          	add    $0x30,%rsp
  4132ca:	5d                   	pop    %rbp
  4132cb:	c3                   	retq   
--
  413313:	48 8b 7d e0          	mov    -0x20(%rbp),%rdi
  413317:	48 89 c6             	mov    %rax,%rsi
  41331a:	e8 f1 ab 00 00       	callq  41df10 <_ZNSt4pairIKSsS_ISsSsEEC2ERKS2_269>
  41331f:	48 83 c4 20          	add    $0x20,%rsp
  413323:	5d                   	pop    %rbp
  413324:	c3                   	retq   
--
  413364:	48 8b 75 d0          	mov    -0x30(%rbp),%rsi
  413368:	e8 63 70 00 00       	callq  41a3d0 <_ZNSt4pairISsSsEC2ERKS0_78>
  41336d:	e9 00 00 00 00       	jmpq   413372 <_ZNSt4pairIKSsS_ISsSsEEC2ERKS2_+0x42>
  413372:	48 83 c4 30          	add    $0x30,%rsp
  413376:	5d                   	pop    %rbp
  413377:	c3                   	retq   
--
  4133d4:	48 8b 75 d0          	mov    -0x30(%rbp),%rsi
  4133d8:	e8 b3 43 ff ff       	callq  407790 <_ZNSsC1ERKSs@plt>
  4133dd:	e9 00 00 00 00       	jmpq   4133e2 <_ZNSt4pairISsSsEC2ERKS0_+0x42>
  4133e2:	48 83 c4 30          	add    $0x30,%rsp
  4133e6:	5d                   	pop    %rbp
  4133e7:	c3                   	retq   
--
  413447:	48 69 7d f0 38 00 00 	imul   $0x38,-0x10(%rbp),%rdi
  41344e:	00 
  41344f:	e8 ec 47 ff ff       	callq  407c40 <_Znwm@plt>
  413454:	48 83 c4 20          	add    $0x20,%rsp
  413458:	5d                   	pop    %rbp
  413459:	c3                   	retq   
--
  413461:	48 89 e5             	mov    %rsp,%rbp
  413464:	48 b8 92 24 49 92 24 	movabs $0x492492492492492,%rax
  41346b:	49 92 04 
  41346e:	48 89 7d f8          	mov    %rdi,-0x8(%rbp)
  413472:	5d                   	pop    %rbp
  413473:	c3                   	retq   
--
  41349c:	48 89 f7             	mov    %rsi,%rdi
  41349f:	48 8b 75 e8          	mov    -0x18(%rbp),%rsi
  4134a3:	e8 38 8c 00 00       	callq  41c0e0 <_ZN9__gnu_cxx13new_allocatorISt13_Rb_tree_nodeISt4pairIKSsS2_ISsSsEEEEC2ERKS7_171>
  4134a8:	48 83 c4 20          	add    $0x20,%rsp
  4134ac:	5d                   	pop    %rbp
  4134ad:	c3                   	retq   
--
  4134d4:	48 89 47 18          	mov    %rax,0x18(%rdi)
  4134d8:	48 89 f8             	mov    %rdi,%rax
  4134db:	48 05 08 00 00 00    	add    $0x8,%rax
  4134e1:	48 89 47 20          	mov    %rax,0x20(%rdi)
  4134e5:	5d                   	pop    %rbp
  4134e6:	c3                   	retq   
--
  4134f0:	55                   	push   %rbp
  4134f1:	48 89 e5             	mov    %rsp,%rbp
  4134f4:	48 89 7d f8          	mov    %rdi,-0x8(%rbp)
  4134f8:	48 89 75 f0          	mov    %rsi,-0x10(%rbp)
  4134fc:	5d                   	pop    %rbp
  4134fd:	c3                   	retq   
--
  41367b:	48 8b 7d d8          	mov    -0x28(%rbp),%rdi
  41367f:	e8 8c 59 00 00       	callq  419010 <_ZNSt8_Rb_treeISsSt4pairIKSsSsESt10_Select1stIS2_ESt4lessISsESaIS2_EE13_Rb_tree_implIS6_Lb1EED2Ev1>
  413684:	e9 09 00 00 00       	jmpq   413692 <_ZNSt8_Rb_treeISsSt4pairIKSsSsESt10_Select1stIS2_ESt4lessISsESaIS2_EEC2ERKS8_+0x192>
  413689:	48 81 c4 a0 00 00 00 	add    $0xa0,%rsp
  413690:	5d                   	pop    %rbp
  413691:	c3                   	retq   
--
  4136a1:	48 89 e5             	mov    %rsp,%rbp
  4136a4:	48 89 7d f8          	mov    %rdi,-0x8(%rbp)
  4136a8:	48 8b 7d f8          	mov    -0x8(%rbp),%rdi
  4136ac:	48 89 f8             	mov    %rdi,%rax
  4136af:	5d                   	pop    %rbp
  4136b0:	c3                   	retq   
--
  4136fe:	48 89 d7             	mov    %rdx,%rdi
  413701:	e8 da c9 00 00       	callq  4200e0 <_ZNSt8_Rb_treeISsSt4pairIKSsSsESt10_Select1stIS2_ESt4lessISsESaIS2_EE13_Rb_tree_implIS6_Lb1EE13_M_initializeEv374>
  413706:	e9 00 00 00 00       	jmpq   41370b <_ZNSt8_Rb_treeISsSt4pairIKSsSsESt10_Select1stIS2_ESt4lessISsESaIS2_EE13_Rb_tree_implIS6_Lb1EEC2ERKS6_RKSaISt13_Rb_tree_nodeIS2_EE+0x4b>
  41370b:	48 83 c4 30          	add    $0x30,%rsp
  41370f:	5d                   	pop    %rbp
  413710:	c3                   	retq   
--
  413731:	48 89 e5             	mov    %rsp,%rbp
  413734:	48 89 7d f8          	mov    %rdi,-0x8(%rbp)
  413738:	48 8b 7d f8          	mov    -0x8(%rbp),%rdi
  41373c:	48 8b 47 10          	mov    0x10(%rdi),%rax
  413740:	5d                   	pop    %rbp
  413741:	c3                   	retq   
--
  4137ec:	48 8b 75 e0          	mov    -0x20(%rbp),%rsi
  4137f0:	48 8b 7d c0          	mov    -0x40(%rbp),%rdi
  4137f4:	48 89 45 a8          	mov    %rax,-0x58(%rbp)
  4137f8:	e8 93 fa 00 00       	callq  423290 <_ZNSt8_Rb_treeISsSt4pairIKSsSsESt10_Select1stIS2_ESt4lessISsESaIS2_EE8_M_eraseEPSt13_Rb_tree_nodeIS2_E519>
  4137fd:	e9 00 00 00 00       	jmpq   413802 <_ZNSt8_Rb_treeISsSt4pairIKSsSsESt10_Select1stIS2_ESt4lessISsESaIS2_EE7_M_copyEPKSt13_Rb_tree_nodeIS2_EPSA_+0xb2>
  413802:	e8 c9 3e ff ff       	callq  4076d0 <__cxa_rethrow@plt>
--
  4138f6:	e9 00 00 00 00       	jmpq   4138fb <_ZNSt8_Rb_treeISsSt4pairIKSsSsESt10_Select1stIS2_ESt4lessISsESaIS2_EE7_M_copyEPKSt13_Rb_tree_nodeIS2_EPSA_+0x1ab>
  4138fb:	e9 0d 00 00 00       	jmpq   41390d <_ZNSt8_Rb_treeISsSt4pairIKSsSsESt10_Select1stIS2_ESt4lessISsESaIS2_EE7_M_copyEPKSt13_Rb_tree_nodeIS2_EPSA_+0x1bd>
  413900:	48 8b 45 e0          	mov    -0x20(%rbp),%rax
  413904:	48 81 c4 90 00 00 00 	add    $0x90,%rsp
  41390b:	5d                   	pop    %rbp
  41390c:	c3                   	retq   
--
  413934:	48 89 7d f8          	mov    %rdi,-0x8(%rbp)
  413938:	48 8b 7d f8          	mov    -0x8(%rbp),%rdi
  41393c:	48 8b 7f 10          	mov    0x10(%rdi),%rdi
  413940:	48 89 f8             	mov    %rdi,%rax
  413943:	5d                   	pop    %rbp
  413944:	c3                   	retq   
--
  413954:	48 89 7d f8          	mov    %rdi,-0x8(%rbp)
  413958:	48 8b 7d f8          	mov    -0x8(%rbp),%rdi
  41395c:	48 81 c7 08 00 00 00 	add    $0x8,%rdi
  413963:	48 89 f8             	mov    %rdi,%rax
  413966:	5d                   	pop    %rbp
  413967:	c3                   	retq   
--
  413978:	48 8b 7d f8          	mov    -0x8(%rbp),%rdi
  41397c:	48 81 c7 08 00 00 00 	add    $0x8,%rdi
  413983:	48 81 c7 08 00 00 00 	add    $0x8,%rdi
  41398a:	48 89 f8             	mov    %rdi,%rax
  41398d:	5d                   	pop    %rbp
  41398e:	c3                   	retq   
--
  413998:	48 89 7d f8          	mov    %rdi,-0x8(%rbp)
  41399c:	48 8b 7d f8          	mov    -0x8(%rbp),%rdi
  4139a0:	e8 cb 2e 01 00       	callq  426870 <_ZNSt18_Rb_tree_node_base10_S_minimumEPS_689>
  4139a5:	48 83 c4 10          	add    $0x10,%rsp
  4139a9:	5d                   	pop    %rbp
  4139aa:	c3                   	retq   
--
  4139b8:	48 8b 7d f8          	mov    -0x8(%rbp),%rdi
  4139bc:	48 81 c7 08 00 00 00 	add    $0x8,%rdi
  4139c3:	48 81 c7 10 00 00 00 	add    $0x10,%rdi
  4139ca:	48 89 f8             	mov    %rdi,%rax
  4139cd:	5d                   	pop    %rbp
  4139ce:	c3                   	retq   
--
  4139d8:	48 89 7d f8          	mov    %rdi,-0x8(%rbp)
  4139dc:	48 8b 7d f8          	mov    -0x8(%rbp),%rdi
  4139e0:	e8 fb 5a 00 00       	callq  4194e0 <_ZNSt18_Rb_tree_node_base10_S_maximumEPS_18>
  4139e5:	48 83 c4 10          	add    $0x10,%rsp
  4139e9:	5d                   	pop    %rbp
  4139ea:	c3                   	retq   
--
  4139f8:	48 8b 7d f8          	mov    -0x8(%rbp),%rdi
  4139fc:	48 81 c7 08 00 00 00 	add    $0x8,%rdi
  413a03:	48 81 c7 18 00 00 00 	add    $0x18,%rdi
  413a0a:	48 89 f8             	mov    %rdi,%rax
  413a0d:	5d                   	pop    %rbp
  413a0e:	c3                   	retq   
--
  413a54:	48 c7 40 18 00 00 00 	movq   $0x0,0x18(%rax)
  413a5b:	00 
  413a5c:	48 8b 45 e8          	mov    -0x18(%rbp),%rax
  413a60:	48 83 c4 20          	add    $0x20,%rsp
  413a64:	5d                   	pop    %rbp
  413a65:	c3                   	retq   
--
  413a74:	48 89 7d f8          	mov    %rdi,-0x8(%rbp)
  413a78:	48 8b 7d f8          	mov    -0x8(%rbp),%rdi
  413a7c:	48 8b 7f 18          	mov    0x18(%rdi),%rdi
  413a80:	48 89 f8             	mov    %rdi,%rax
  413a83:	5d                   	pop    %rbp
  413a84:	c3                   	retq   
--
  413a94:	48 89 7d f8          	mov    %rdi,-0x8(%rbp)
  413a98:	48 8b 7d f8          	mov    -0x8(%rbp),%rdi
  413a9c:	48 8b 7f 10          	mov    0x10(%rdi),%rdi
  413aa0:	48 89 f8             	mov    %rdi,%rax
  413aa3:	5d                   	pop    %rbp
  413aa4:	c3                   	retq   
--
  413b1e:	48 8b 75 e8          	mov    -0x18(%rbp),%rsi
  413b22:	48 8b 7d d0          	mov    -0x30(%rbp),%rdi
  413b26:	48 89 45 b8          	mov    %rax,-0x48(%rbp)
  413b2a:	e8 61 9c 00 00       	callq  41d790 <_ZNSt8_Rb_treeISsSt4pairIKSsSsESt10_Select1stIS2_ESt4lessISsESaIS2_EE11_M_put_nodeEPSt13_Rb_tree_nodeIS2_E242>
  413b2f:	e9 00 00 00 00       	jmpq   413b34 <_ZNSt8_Rb_treeISsSt4pairIKSsSsESt10_Select1stIS2_ESt4lessISsESaIS2_EE14_M_create_nodeIJRKS2_EEEPSt13_Rb_tree_nodeIS2_EDpOT_+0x84>
  413b34:	e8 97 3b ff ff       	callq  4076d0 <__cxa_rethrow@plt>
--
  413b4c:	e9 00 00 00 00       	jmpq   413b51 <_ZNSt8_Rb_treeISsSt4pairIKSsSsESt10_Select1stIS2_ESt4lessISsESaIS2_EE14_M_create_nodeIJRKS2_EEEPSt13_Rb_tree_nodeIS2_EDpOT_+0xa1>
  413b51:	e9 0a 00 00 00       	jmpq   413b60 <_ZNSt8_Rb_treeISsSt4pairIKSsSsESt10_Select1stIS2_ESt4lessISsESaIS2_EE14_M_create_nodeIJRKS2_EEEPSt13_Rb_tree_nodeIS2_EDpOT_+0xb0>
  413b56:	48 8b 45 e8          	mov    -0x18(%rbp),%rax
  413b5a:	48 83 c4 50          	add    $0x50,%rsp
  413b5e:	5d                   	pop    %rbp
  413b5f:	c3                   	retq   
--
  413b93:	48 89 7d f8          	mov    %rdi,-0x8(%rbp)
  413b97:	48 8b 7d f8          	mov    -0x8(%rbp),%rdi
  413b9b:	e8 50 78 00 00       	callq  41b3f0 <_ZN9__gnu_cxx13new_allocatorISt13_Rb_tree_nodeISt4pairIKSsSsEEE8allocateEmPKv122>
  413ba0:	48 83 c4 10          	add    $0x10,%rsp
  413ba4:	5d                   	pop    %rbp
  413ba5:	c3                   	retq   
--
  413be4:	48 8b 75 d8          	mov    -0x28(%rbp),%rsi
  413be8:	48 89 c2             	mov    %rax,%rdx
  413beb:	e8 30 97 00 00       	callq  41d320 <_ZNSt16allocator_traitsISaISt13_Rb_tree_nodeISt4pairIKSsSsEEEE12_S_constructIS4_JRKS3_EEENSt9enable_ifIXsr18__construct_helperIT_DpT0_EE5valueEvE4typeERS5_PSB_DpOSC_230>
  413bf0:	48 83 c4 30          	add    $0x30,%rsp
  413bf4:	5d                   	pop    %rbp
  413bf5:	c3                   	retq   
--
  413c00:	55                   	push   %rbp
  413c01:	48 89 e5             	mov    %rsp,%rbp
  413c04:	48 89 7d f8          	mov    %rdi,-0x8(%rbp)
  413c08:	48 8b 45 f8          	mov    -0x8(%rbp),%rax
  413c0c:	5d                   	pop    %rbp
  413c0d:	c3                   	retq   
--
  413c41:	48 8b 75 d8          	mov    -0x28(%rbp),%rsi
  413c45:	48 89 c2             	mov    %rax,%rdx
  413c48:	e8 d3 05 01 00       	callq  424220 <_ZN9__gnu_cxx13new_allocatorISt13_Rb_tree_nodeISt4pairIKSsSsEEE9constructIS5_JRKS4_EEEvPT_DpOT0_573>
  413c4d:	48 83 c4 30          	add    $0x30,%rsp
  413c51:	5d                   	pop    %rbp
  413c52:	c3                   	retq   
--
  413c9a:	48 8b 7d d8          	mov    -0x28(%rbp),%rdi
  413c9e:	48 89 c6             	mov    %rax,%rsi
  413ca1:	e8 5a 14 01 00       	callq  425100 <_ZNSt13_Rb_tree_nodeISt4pairIKSsSsEEC2IJRKS2_EEEDpOT_625>
  413ca6:	48 83 c4 30          	add    $0x30,%rsp
  413caa:	5d                   	pop    %rbp
  413cab:	c3                   	retq   
--
  413cf3:	48 8b 7d e0          	mov    -0x20(%rbp),%rdi
  413cf7:	48 89 c6             	mov    %rax,%rsi
  413cfa:	e8 d1 7b 00 00       	callq  41b8d0 <_ZNSt4pairIKSsSsEC2ERKS1_141>
  413cff:	48 83 c4 20          	add    $0x20,%rsp
  413d03:	5d                   	pop    %rbp
  413d04:	c3                   	retq   
--
  413d44:	48 8b 75 d0          	mov    -0x30(%rbp),%rsi
  413d48:	e8 43 3a ff ff       	callq  407790 <_ZNSsC1ERKSs@plt>
  413d4d:	e9 00 00 00 00       	jmpq   413d52 <_ZNSt4pairIKSsSsEC2ERKS1_+0x42>
  413d52:	48 83 c4 30          	add    $0x30,%rsp
  413d56:	5d                   	pop    %rbp
  413d57:	c3                   	retq   
--
  413db7:	48 69 7d f0 30 00 00 	imul   $0x30,-0x10(%rbp),%rdi
  413dbe:	00 
  413dbf:	e8 7c 3e ff ff       	callq  407c40 <_Znwm@plt>
  413dc4:	48 83 c4 20          	add    $0x20,%rsp
  413dc8:	5d                   	pop    %rbp
  413dc9:	c3                   	retq   
--
  413dd1:	48 89 e5             	mov    %rsp,%rbp
  413dd4:	48 b8 55 55 55 55 55 	movabs $0x555555555555555,%rax
  413ddb:	55 55 05 
  413dde:	48 89 7d f8          	mov    %rdi,-0x8(%rbp)
  413de2:	5d                   	pop    %rbp
  413de3:	c3                   	retq   
--
  413e0c:	48 89 f7             	mov    %rsi,%rdi
  413e0f:	48 8b 75 e8          	mov    -0x18(%rbp),%rsi
  413e13:	e8 18 bc 00 00       	callq  41fa30 <_ZN9__gnu_cxx13new_allocatorISt13_Rb_tree_nodeISt4pairIKSsSsEEEC2ERKS6_354>
  413e18:	48 83 c4 20          	add    $0x20,%rsp
  413e1c:	5d                   	pop    %rbp
  413e1d:	c3                   	retq   
--
  413e44:	48 89 47 18          	mov    %rax,0x18(%rdi)
  413e48:	48 89 f8             	mov    %rdi,%rax
  413e4b:	48 05 08 00 00 00    	add    $0x8,%rax
  413e51:	48 89 47 20          	mov    %rax,0x20(%rdi)
  413e55:	5d                   	pop    %rbp
  413e56:	c3                   	retq   
--
  413e60:	55                   	push   %rbp
  413e61:	48 89 e5             	mov    %rsp,%rbp
  413e64:	48 89 7d f8          	mov    %rdi,-0x8(%rbp)
  413e68:	48 89 75 f0          	mov    %rsi,-0x10(%rbp)
  413e6c:	5d                   	pop    %rbp
  413e6d:	c3                   	retq   
--
  413ea7:	48 83 c6 08          	add    $0x8,%rsi
  413eab:	e8 e0 38 ff ff       	callq  407790 <_ZNSsC1ERKSs@plt>
  413eb0:	e9 00 00 00 00       	jmpq   413eb5 <_ZNSt11logic_errorC2ERKS_+0x45>
  413eb5:	48 83 c4 30          	add    $0x30,%rsp
  413eb9:	5d                   	pop    %rbp
  413eba:	c3                   	retq   
--
  413ee8:	48 89 7d f8          	mov    %rdi,-0x8(%rbp)
  413eec:	48 8b 7d f8          	mov    -0x8(%rbp),%rdi
  413ef0:	e8 eb 3c ff ff       	callq  407be0 <_ZNSt11logic_errorD2Ev@plt>
  413ef5:	48 83 c4 10          	add    $0x10,%rsp
  413ef9:	5d                   	pop    %rbp
  413efa:	c3                   	retq   
--
  413f14:	e8 47 5a 00 00       	callq  419960 <_ZN5boost15program_options5errorD2Ev41>
  413f19:	48 8b 7d f0          	mov    -0x10(%rbp),%rdi
  413f1d:	e8 4e 37 ff ff       	callq  407670 <_ZdlPv@plt>
  413f22:	48 83 c4 10          	add    $0x10,%rsp
  413f26:	5d                   	pop    %rbp
  413f27:	c3                   	retq   
--
  413fde:	48 89 c6             	mov    %rax,%rsi
  413fe1:	e8 1a ab 00 00       	callq  41eb00 <_ZN5boost16exception_detail20copy_boost_exceptionEPNS_9exceptionEPKS1_315>
  413fe6:	e9 00 00 00 00       	jmpq   413feb <_ZN5boost16exception_detail10clone_implINS0_19error_info_injectorINS_15program_options20invalid_option_valueEEEEC1ERKS6_NS6_9clone_tagE+0xbb>
  413feb:	48 83 c4 50          	add    $0x50,%rsp
  413fef:	5d                   	pop    %rbp
  413ff0:	c3                   	retq   
--
  41405f:	48 89 c7             	mov    %rax,%rdi
  414062:	e8 29 3c ff ff       	callq  407c90 <_ZNSsaSERKSs@plt>
  414067:	48 89 45 e0          	mov    %rax,-0x20(%rbp)
  41406b:	48 83 c4 20          	add    $0x20,%rsp
  41406f:	5d                   	pop    %rbp
  414070:	c3                   	retq   
--
  41414e:	48 8d 7d e8          	lea    -0x18(%rbp),%rdi
  414152:	e8 79 f7 00 00       	callq  4238d0 <_ZNKSt17_Rb_tree_iteratorISt4pairIKSsSsEEdeEv540>
  414157:	48 05 08 00 00 00    	add    $0x8,%rax
  41415d:	48 83 c4 60          	add    $0x60,%rsp
  414161:	5d                   	pop    %rbp
  414162:	c3                   	retq   
--
  414188:	e8 53 80 00 00       	callq  41c1e0 <_ZNSt8_Rb_treeISsSt4pairIKSsSsESt10_Select1stIS2_ESt4lessISsESaIS2_EE11lower_boundERS1_174>
  41418d:	48 89 45 f8          	mov    %rax,-0x8(%rbp)
  414191:	48 8b 45 f8          	mov    -0x8(%rbp),%rax
  414195:	48 83 c4 20          	add    $0x20,%rsp
  414199:	5d                   	pop    %rbp
  41419a:	c3                   	retq   
--
  4141b7:	48 3b 37             	cmp    (%rdi),%rsi
  4141ba:	0f 94 c0             	sete   %al
  4141bd:	24 01                	and    $0x1,%al
  4141bf:	0f b6 c0             	movzbl %al,%eax
  4141c2:	5d                   	pop    %rbp
  4141c3:	c3                   	retq   
--
  4141e0:	e8 bb 58 00 00       	callq  419aa0 <_ZNSt8_Rb_treeISsSt4pairIKSsSsESt10_Select1stIS2_ESt4lessISsESaIS2_EE3endEv47>
  4141e5:	48 89 45 f8          	mov    %rax,-0x8(%rbp)
  4141e9:	48 8b 45 f8          	mov    -0x8(%rbp),%rax
  4141ed:	48 83 c4 10          	add    $0x10,%rsp
  4141f1:	5d                   	pop    %rbp
  4141f2:	c3                   	retq   
--
  414208:	48 89 7d f0          	mov    %rdi,-0x10(%rbp)
  41420c:	48 8b 7d f0          	mov    -0x10(%rbp),%rdi
  414210:	e8 0b 14 01 00       	callq  425620 <_ZNKSt8_Rb_treeISsSt4pairIKSsSsESt10_Select1stIS2_ESt4lessISsESaIS2_EE8key_compEv645>
  414215:	48 83 c4 20          	add    $0x20,%rsp
  414219:	5d                   	pop    %rbp
  41421a:	c3                   	retq   
--
  414228:	48 8b 7d f8          	mov    -0x8(%rbp),%rdi
  41422c:	48 8b 3f             	mov    (%rdi),%rdi
  41422f:	48 81 c7 20 00 00 00 	add    $0x20,%rdi
  414236:	48 89 f8             	mov    %rdi,%rax
  414239:	5d                   	pop    %rbp
  41423a:	c3                   	retq   
--
  414347:	48 8b 75 c8          	mov    -0x38(%rbp),%rsi
  41434b:	48 8b 7d 98          	mov    -0x68(%rbp),%rdi
  41434f:	48 89 85 60 ff ff ff 	mov    %rax,-0xa0(%rbp)
  414356:	e8 65 ff 00 00       	callq  4242c0 <_ZNSt8_Rb_treeISsSt4pairIKSsSsESt10_Select1stIS2_ESt4lessISsESaIS2_EE15_M_destroy_nodeEPSt13_Rb_tree_nodeIS2_E577>
  41435b:	e9 00 00 00 00       	jmpq   414360 <_ZNSt8_Rb_treeISsSt4pairIKSsSsESt10_Select1stIS2_ESt4lessISsESaIS2_EE22_M_emplace_hint_uniqueIJRKSt21piecewise_construct_tSt5tupleIJRS1_EESD_IJEEEEESt17_Rb_tree_iteratorIS2_ESt23_Rb_tree_const_iteratorIS2_EDpOT_+0x120>
  414360:	e8 6b 33 ff ff       	callq  4076d0 <__cxa_rethrow@plt>
--
  4143a1:	e9 00 00 00 00       	jmpq   4143a6 <_ZNSt8_Rb_treeISsSt4pairIKSsSsESt10_Select1stIS2_ESt4lessISsESaIS2_EE22_M_emplace_hint_uniqueIJRKSt21piecewise_construct_tSt5tupleIJRS1_EESD_IJEEEEESt17_Rb_tree_iteratorIS2_ESt23_Rb_tree_const_iteratorIS2_EDpOT_+0x166>
  4143a6:	e9 0d 00 00 00       	jmpq   4143b8 <_ZNSt8_Rb_treeISsSt4pairIKSsSsESt10_Select1stIS2_ESt4lessISsESaIS2_EE22_M_emplace_hint_uniqueIJRKSt21piecewise_construct_tSt5tupleIJRS1_EESD_IJEEEEESt17_Rb_tree_iteratorIS2_ESt23_Rb_tree_const_iteratorIS2_EDpOT_+0x178>
  4143ab:	48 8b 45 f8          	mov    -0x8(%rbp),%rax
  4143af:	48 81 c4 b0 00 00 00 	add    $0xb0,%rsp
  4143b6:	5d                   	pop    %rbp
  4143b7:	c3                   	retq   
--
  4143ec:	48 8b 75 f8          	mov    -0x8(%rbp),%rsi
  4143f0:	48 8b 7d f0          	mov    -0x10(%rbp),%rdi
  4143f4:	48 8b 3f             	mov    (%rdi),%rdi
  4143f7:	48 89 3e             	mov    %rdi,(%rsi)
  4143fa:	5d                   	pop    %rbp
  4143fb:	c3                   	retq   
--
  41441c:	48 89 f7             	mov    %rsi,%rdi
  41441f:	48 8b 75 e8          	mov    -0x18(%rbp),%rsi
  414423:	e8 38 6d 00 00       	callq  41b160 <_ZNSt11_Tuple_implILm0EJRKSsEEC2ES1_113>
  414428:	48 83 c4 20          	add    $0x20,%rsp
  41442c:	5d                   	pop    %rbp
  41442d:	c3                   	retq   
--
  41444c:	48 89 f7             	mov    %rsi,%rdi
  41444f:	48 8b 75 e8          	mov    -0x18(%rbp),%rsi
  414453:	e8 a8 82 00 00       	callq  41c700 <_ZNSt10_Head_baseILm0ERKSsLb0EEC2ES1_189>
  414458:	48 83 c4 20          	add    $0x20,%rsp
  41445c:	5d                   	pop    %rbp
  41445d:	c3                   	retq   
--
  414468:	48 89 75 f0          	mov    %rsi,-0x10(%rbp)
  41446c:	48 8b 75 f8          	mov    -0x8(%rbp),%rsi
  414470:	48 8b 7d f0          	mov    -0x10(%rbp),%rdi
  414474:	48 89 3e             	mov    %rdi,(%rsi)
  414477:	5d                   	pop    %rbp
  414478:	c3                   	retq   
--
  414518:	48 8b 75 d8          	mov    -0x28(%rbp),%rsi
  41451c:	48 8b 7d c0          	mov    -0x40(%rbp),%rdi
  414520:	48 89 45 98          	mov    %rax,-0x68(%rbp)
  414524:	e8 67 92 00 00       	callq  41d790 <_ZNSt8_Rb_treeISsSt4pairIKSsSsESt10_Select1stIS2_ESt4lessISsESaIS2_EE11_M_put_nodeEPSt13_Rb_tree_nodeIS2_E242>
  414529:	e9 00 00 00 00       	jmpq   41452e <_ZNSt8_Rb_treeISsSt4pairIKSsSsESt10_Select1stIS2_ESt4lessISsESaIS2_EE14_M_create_nodeIJRKSt21piecewise_construct_tSt5tupleIJRS1_EESD_IJEEEEEPSt13_Rb_tree_nodeIS2_EDpOT_+0xae>
  41452e:	e8 9d 31 ff ff       	callq  4076d0 <__cxa_rethrow@plt>
--
  414546:	e9 00 00 00 00       	jmpq   41454b <_ZNSt8_Rb_treeISsSt4pairIKSsSsESt10_Select1stIS2_ESt4lessISsESaIS2_EE14_M_create_nodeIJRKSt21piecewise_construct_tSt5tupleIJRS1_EESD_IJEEEEEPSt13_Rb_tree_nodeIS2_EDpOT_+0xcb>
  41454b:	e9 0a 00 00 00       	jmpq   41455a <_ZNSt8_Rb_treeISsSt4pairIKSsSsESt10_Select1stIS2_ESt4lessISsESaIS2_EE14_M_create_nodeIJRKSt21piecewise_construct_tSt5tupleIJRS1_EESD_IJEEEEEPSt13_Rb_tree_nodeIS2_EDpOT_+0xda>
  414550:	48 8b 45 d8          	mov    -0x28(%rbp),%rax
  414554:	48 83 c4 70          	add    $0x70,%rsp
  414558:	5d                   	pop    %rbp
  414559:	c3                   	retq   
--
  414570:	55                   	push   %rbp
  414571:	48 89 e5             	mov    %rsp,%rbp
  414574:	48 89 7d f8          	mov    %rdi,-0x8(%rbp)
  414578:	48 8b 45 f8          	mov    -0x8(%rbp),%rax
  41457c:	5d                   	pop    %rbp
  41457d:	c3                   	retq   
--
  414580:	55                   	push   %rbp
  414581:	48 89 e5             	mov    %rsp,%rbp
  414584:	48 89 7d f8          	mov    %rdi,-0x8(%rbp)
  414588:	48 8b 45 f8          	mov    -0x8(%rbp),%rax
  41458c:	5d                   	pop    %rbp
  41458d:	c3                   	retq   
--
  414590:	55                   	push   %rbp
  414591:	48 89 e5             	mov    %rsp,%rbp
  414594:	48 89 7d f8          	mov    %rdi,-0x8(%rbp)
  414598:	48 8b 45 f8          	mov    -0x8(%rbp),%rax
  41459c:	5d                   	pop    %rbp
  41459d:	c3                   	retq   
--
  4148bb:	e8 a0 b2 00 00       	callq  41fb60 <_ZNSt4pairIPSt18_Rb_tree_node_baseS1_EC2IRS1_vEEOT_RKS1_361>
  4148c0:	48 8b 45 f0          	mov    -0x10(%rbp),%rax
  4148c4:	48 8b 55 f8          	mov    -0x8(%rbp),%rdx
  4148c8:	48 81 c4 a0 00 00 00 	add    $0xa0,%rsp
  4148cf:	5d                   	pop    %rbp
  4148d0:	c3                   	retq   
--
  4148f5:	48 8d 7d f0          	lea    -0x10(%rbp),%rdi
  4148f9:	48 89 c6             	mov    %rax,%rsi
  4148fc:	e8 1f 87 00 00       	callq  41d020 <_ZNKSt10_Select1stISt4pairIKSsSsEEclERKS2_216>
  414901:	48 83 c4 10          	add    $0x10,%rsp
  414905:	5d                   	pop    %rbp
  414906:	c3                   	retq   
--
  4149d9:	48 8b 75 d8          	mov    -0x28(%rbp),%rsi
  4149dd:	e8 9e 9b 00 00       	callq  41e580 <_ZNSt17_Rb_tree_iteratorISt4pairIKSsSsEEC2EPSt13_Rb_tree_nodeIS2_E295>
  4149e2:	48 8b 45 f8          	mov    -0x8(%rbp),%rax
  4149e6:	48 83 c4 60          	add    $0x60,%rsp
  4149ea:	5d                   	pop    %rbp
  4149eb:	c3                   	retq   
--
  4149f8:	48 89 75 f0          	mov    %rsi,-0x10(%rbp)
  4149fc:	48 8b 75 f8          	mov    -0x8(%rbp),%rsi
  414a00:	48 8b 7d f0          	mov    -0x10(%rbp),%rdi
  414a04:	48 89 3e             	mov    %rdi,(%rsi)
  414a07:	5d                   	pop    %rbp
  414a08:	c3                   	retq   
--
  414a25:	48 8d 7d f0          	lea    -0x10(%rbp),%rdi
  414a29:	48 89 c6             	mov    %rax,%rsi
  414a2c:	e8 ef 85 00 00       	callq  41d020 <_ZNKSt10_Select1stISt4pairIKSsSsEEclERKS2_216>
  414a31:	48 83 c4 10          	add    $0x10,%rsp
  414a35:	5d                   	pop    %rbp
  414a36:	c3                   	retq   
--
  414a41:	48 89 e5             	mov    %rsp,%rbp
  414a44:	48 89 7d f8          	mov    %rdi,-0x8(%rbp)
  414a48:	48 89 75 f0          	mov    %rsi,-0x10(%rbp)
  414a4c:	48 8b 45 f0          	mov    -0x10(%rbp),%rax
  414a50:	5d                   	pop    %rbp
  414a51:	c3                   	retq   
--
  414a64:	48 89 7d f8          	mov    %rdi,-0x8(%rbp)
  414a68:	48 8b 7d f8          	mov    -0x8(%rbp),%rdi
  414a6c:	48 81 c7 20 00 00 00 	add    $0x20,%rdi
  414a73:	48 89 f8             	mov    %rdi,%rax
  414a76:	5d                   	pop    %rbp
  414a77:	c3                   	retq   
--
  414a84:	48 89 7d f8          	mov    %rdi,-0x8(%rbp)
  414a88:	48 8b 7d f8          	mov    -0x8(%rbp),%rdi
  414a8c:	48 81 c7 20 00 00 00 	add    $0x20,%rdi
  414a93:	48 89 f8             	mov    %rdi,%rax
  414a96:	5d                   	pop    %rbp
  414a97:	c3                   	retq   
--
  414abe:	48 8b 75 e8          	mov    -0x18(%rbp),%rsi
  414ac2:	e8 b9 9a 00 00       	callq  41e580 <_ZNSt17_Rb_tree_iteratorISt4pairIKSsSsEEC2EPSt13_Rb_tree_nodeIS2_E295>
  414ac7:	48 8b 45 f8          	mov    -0x8(%rbp),%rax
  414acb:	48 83 c4 20          	add    $0x20,%rsp
  414acf:	5d                   	pop    %rbp
  414ad0:	c3                   	retq   
--
  414ae1:	48 89 e5             	mov    %rsp,%rbp
  414ae4:	48 89 7d f8          	mov    %rdi,-0x8(%rbp)
  414ae8:	48 8b 7d f8          	mov    -0x8(%rbp),%rdi
  414aec:	48 8b 47 28          	mov    0x28(%rdi),%rax
  414af0:	5d                   	pop    %rbp
  414af1:	c3                   	retq   
--
  414b2f:	48 8b 00             	mov    (%rax),%rax
  414b32:	48 8b 55 e0          	mov    -0x20(%rbp),%rdx
  414b36:	48 89 42 08          	mov    %rax,0x8(%rdx)
  414b3a:	48 83 c4 20          	add    $0x20,%rsp
  414b3e:	5d                   	pop    %rbp
  414b3f:	c3                   	retq   
--
  414ca3:	e8 b8 ae 00 00       	callq  41fb60 <_ZNSt4pairIPSt18_Rb_tree_node_baseS1_EC2IRS1_vEEOT_RKS1_361>
  414ca8:	48 8b 45 f0          	mov    -0x10(%rbp),%rax
  414cac:	48 8b 55 f8          	mov    -0x8(%rbp),%rdx
  414cb0:	48 83 c4 70          	add    $0x70,%rsp
  414cb4:	5d                   	pop    %rbp
  414cb5:	c3                   	retq   
--
  414cf8:	48 8b 00             	mov    (%rax),%rax
  414cfb:	48 8b 55 e0          	mov    -0x20(%rbp),%rdx
  414cff:	48 89 42 08          	mov    %rax,0x8(%rdx)
  414d03:	48 83 c4 20          	add    $0x20,%rsp
  414d07:	5d                   	pop    %rbp
  414d08:	c3                   	retq   
--
  414d2f:	48 8b 7d f0          	mov    -0x10(%rbp),%rdi
  414d33:	48 89 07             	mov    %rax,(%rdi)
  414d36:	48 89 f8             	mov    %rdi,%rax
  414d39:	48 83 c4 10          	add    $0x10,%rsp
  414d3d:	5d                   	pop    %rbp
  414d3e:	c3                   	retq   
--
  414d5f:	48 8b 7d f0          	mov    -0x10(%rbp),%rdi
  414d63:	48 89 07             	mov    %rax,(%rdi)
  414d66:	48 89 f8             	mov    %rdi,%rax
  414d69:	48 83 c4 10          	add    $0x10,%rsp
  414d6d:	5d                   	pop    %rbp
  414d6e:	c3                   	retq   
--
  414d9f:	48 8b 45 e8          	mov    -0x18(%rbp),%rax
  414da3:	48 8b 00             	mov    (%rax),%rax
  414da6:	48 89 42 08          	mov    %rax,0x8(%rdx)
  414daa:	48 83 c4 20          	add    $0x20,%rsp
  414dae:	5d                   	pop    %rbp
  414daf:	c3                   	retq   
--
  414db0:	55                   	push   %rbp
  414db1:	48 89 e5             	mov    %rsp,%rbp
  414db4:	48 89 7d f8          	mov    %rdi,-0x8(%rbp)
  414db8:	48 8b 45 f8          	mov    -0x8(%rbp),%rax
  414dbc:	5d                   	pop    %rbp
  414dbd:	c3                   	retq   
--
  414dd4:	e8 a7 97 00 00       	callq  41e580 <_ZNSt17_Rb_tree_iteratorISt4pairIKSsSsEEC2EPSt13_Rb_tree_nodeIS2_E295>
  414dd9:	e9 00 00 00 00       	jmpq   414dde <_ZNSt8_Rb_treeISsSt4pairIKSsSsESt10_Select1stIS2_ESt4lessISsESaIS2_EE5beginEv+0x1e>
  414dde:	48 8b 45 f8          	mov    -0x8(%rbp),%rax
  414de2:	48 83 c4 20          	add    $0x20,%rsp
  414de6:	5d                   	pop    %rbp
  414de7:	c3                   	retq   
--
  414e38:	48 8b 00             	mov    (%rax),%rax
  414e3b:	48 8b 55 e0          	mov    -0x20(%rbp),%rdx
  414e3f:	48 89 42 08          	mov    %rax,0x8(%rdx)
  414e43:	48 83 c4 20          	add    $0x20,%rsp
  414e47:	5d                   	pop    %rbp
  414e48:	c3                   	retq   
--
  414e50:	55                   	push   %rbp
  414e51:	48 89 e5             	mov    %rsp,%rbp
  414e54:	48 89 7d f8          	mov    %rdi,-0x8(%rbp)
  414e58:	48 8b 45 f8          	mov    -0x8(%rbp),%rax
  414e5c:	5d                   	pop    %rbp
  414e5d:	c3                   	retq   
--
  414ebe:	48 8b 4d b8          	mov    -0x48(%rbp),%rcx
  414ec2:	49 89 c0             	mov    %rax,%r8
  414ec5:	e8 c6 01 01 00       	callq  425090 <_ZNSt16allocator_traitsISaISt13_Rb_tree_nodeISt4pairIKSsSsEEEE12_S_constructIS4_JRKSt21piecewise_construct_tSt5tupleIJRS2_EESB_IJEEEEENSt9enable_ifIXsr18__construct_helperIT_DpT0_EE5valueEvE4typeERS5_PSG_DpOSH_624>
  414eca:	48 83 c4 50          	add    $0x50,%rsp
  414ece:	5d                   	pop    %rbp
  414ecf:	c3                   	retq   
--
  414f2b:	48 8b 4d b8          	mov    -0x48(%rbp),%rcx
  414f2f:	49 89 c0             	mov    %rax,%r8
  414f32:	e8 09 09 01 00       	callq  425840 <_ZN9__gnu_cxx13new_allocatorISt13_Rb_tree_nodeISt4pairIKSsSsEEE9constructIS5_JRKSt21piecewise_construct_tSt5tupleIJRS3_EESB_IJEEEEEvPT_DpOT0_654>
  414f37:	48 83 c4 50          	add    $0x50,%rsp
  414f3b:	5d                   	pop    %rbp
  414f3c:	c3                   	retq   
--
  414fa4:	48 8b 55 b8          	mov    -0x48(%rbp),%rdx
  414fa8:	48 89 c1             	mov    %rax,%rcx
  414fab:	e8 90 c8 00 00       	callq  421840 <_ZNSt13_Rb_tree_nodeISt4pairIKSsSsEEC2IJRKSt21piecewise_construct_tSt5tupleIJRS1_EES8_IJEEEEEDpOT_435>
  414fb0:	48 83 c4 50          	add    $0x50,%rsp
  414fb4:	5d                   	pop    %rbp
  414fb5:	c3                   	retq   
--
  415039:	48 8b 7d b8          	mov    -0x48(%rbp),%rdi
  41503d:	48 89 45 a8          	mov    %rax,-0x58(%rbp)
  415041:	e8 2a f8 00 00       	callq  424870 <_ZNSt4pairIKSsSsEC2IJRS0_EJEEESt21piecewise_construct_tSt5tupleIJDpT_EES5_IJDpT0_EE595>
  415046:	48 83 c4 60          	add    $0x60,%rsp
  41504a:	5d                   	pop    %rbp
  41504b:	c3                   	retq   
--
  41506c:	48 89 f7             	mov    %rsi,%rdi
  41506f:	48 8b 75 e8          	mov    -0x18(%rbp),%rsi
  415073:	e8 e8 9c 00 00       	callq  41ed60 <_ZNSt11_Tuple_implILm0EJRKSsEEC2EOS2_322>
  415078:	48 83 c4 20          	add    $0x20,%rsp
  41507c:	5d                   	pop    %rbp
  41507d:	c3                   	retq   
--
  415098:	48 8b 7d e0          	mov    -0x20(%rbp),%rdi
  41509c:	48 89 c6             	mov    %rax,%rsi
  41509f:	e8 dc e5 00 00       	callq  423680 <_ZNSt4pairIKSsSsEC2IJRS0_EJLm0EEJEJEEERSt5tupleIJDpT_EERS4_IJDpT1_EESt12_Index_tupleIJXspT0_EEESD_IJXspT2_EEE533>
  4150a4:	48 83 c4 30          	add    $0x30,%rsp
  4150a8:	5d                   	pop    %rbp
  4150a9:	c3                   	retq   
--
  4150f1:	48 89 c7             	mov    %rax,%rdi
  4150f4:	e8 d7 24 ff ff       	callq  4075d0 <_ZNSsC1Ev@plt>
  4150f9:	e9 00 00 00 00       	jmpq   4150fe <_ZNSt4pairIKSsSsEC2IJRS0_EJLm0EEJEJEEERSt5tupleIJDpT_EERS4_IJDpT1_EESt12_Index_tupleIJXspT0_EEESD_IJXspT2_EEE+0x4e>
  4150fe:	48 83 c4 40          	add    $0x40,%rsp
  415102:	5d                   	pop    %rbp
  415103:	c3                   	retq   
--
  415128:	48 89 7d f8          	mov    %rdi,-0x8(%rbp)
  41512c:	48 8b 7d f8          	mov    -0x8(%rbp),%rdi
  415130:	e8 eb d0 00 00       	callq  422220 <_ZSt12__get_helperILm0ERKSsJEENSt9__add_refIT0_E4typeERSt11_Tuple_implIXT_EJS3_DpT1_EE460>
  415135:	48 83 c4 10          	add    $0x10,%rsp
  415139:	5d                   	pop    %rbp
  41513a:	c3                   	retq   
--
  415148:	48 89 7d f8          	mov    %rdi,-0x8(%rbp)
  41514c:	48 8b 7d f8          	mov    -0x8(%rbp),%rdi
  415150:	e8 fb 16 01 00       	callq  426850 <_ZNSt11_Tuple_implILm0EJRKSsEE7_M_headERS2_688>
  415155:	48 83 c4 10          	add    $0x10,%rsp
  415159:	5d                   	pop    %rbp
  41515a:	c3                   	retq   
--
  415168:	48 89 7d f8          	mov    %rdi,-0x8(%rbp)
  41516c:	48 8b 7d f8          	mov    -0x8(%rbp),%rdi
  415170:	e8 ab 47 00 00       	callq  419920 <_ZNSt10_Head_baseILm0ERKSsLb0EE7_M_headERS2_39>
  415175:	48 83 c4 10          	add    $0x10,%rsp
  415179:	5d                   	pop    %rbp
  41517a:	c3                   	retq   
--
  415181:	48 89 e5             	mov    %rsp,%rbp
  415184:	48 89 7d f8          	mov    %rdi,-0x8(%rbp)
  415188:	48 8b 7d f8          	mov    -0x8(%rbp),%rdi
  41518c:	48 8b 07             	mov    (%rdi),%rax
  41518f:	5d                   	pop    %rbp
  415190:	c3                   	retq   
--
  4151e1:	48 89 c6             	mov    %rax,%rsi
  4151e4:	e8 17 75 00 00       	callq  41c700 <_ZNSt10_Head_baseILm0ERKSsLb0EEC2ES1_189>
  4151e9:	e9 00 00 00 00       	jmpq   4151ee <_ZNSt11_Tuple_implILm0EJRKSsEEC2EOS2_+0x4e>
  4151ee:	48 83 c4 30          	add    $0x30,%rsp
  4151f2:	5d                   	pop    %rbp
  4151f3:	c3                   	retq   
--
  415210:	55                   	push   %rbp
  415211:	48 89 e5             	mov    %rsp,%rbp
  415214:	48 89 7d f8          	mov    %rdi,-0x8(%rbp)
  415218:	48 8b 45 f8          	mov    -0x8(%rbp),%rax
  41521c:	5d                   	pop    %rbp
  41521d:	c3                   	retq   
--
  415221:	48 89 e5             	mov    %rsp,%rbp
  415224:	48 89 7d f8          	mov    %rdi,-0x8(%rbp)
  415228:	48 8b 7d f8          	mov    -0x8(%rbp),%rdi
  41522c:	48 89 f8             	mov    %rdi,%rax
  41522f:	5d                   	pop    %rbp
  415230:	c3                   	retq   
--
0000000000415240 <_ZNKSt8_Rb_treeISsSt4pairIKSsSsESt10_Select1stIS2_ESt4lessISsESaIS2_EE8key_compEv>:
  415240:	55                   	push   %rbp
  415241:	48 89 e5             	mov    %rsp,%rbp
  415244:	48 89 7d f0          	mov    %rdi,-0x10(%rbp)
  415248:	5d                   	pop    %rbp
  415249:	c3                   	retq   
--
  41526f:	e8 0c 93 00 00       	callq  41e580 <_ZNSt17_Rb_tree_iteratorISt4pairIKSsSsEEC2EPSt13_Rb_tree_nodeIS2_E295>
  415274:	e9 00 00 00 00       	jmpq   415279 <_ZNSt8_Rb_treeISsSt4pairIKSsSsESt10_Select1stIS2_ESt4lessISsESaIS2_EE3endEv+0x29>
  415279:	48 8b 45 f8          	mov    -0x8(%rbp),%rax
  41527d:	48 83 c4 20          	add    $0x20,%rsp
  415281:	5d                   	pop    %rbp
  415282:	c3                   	retq   
--
  4152cc:	e8 ff d7 00 00       	callq  422ad0 <_ZNSt8_Rb_treeISsSt4pairIKSsSsESt10_Select1stIS2_ESt4lessISsESaIS2_EE14_M_lower_boundEPSt13_Rb_tree_nodeIS2_ESB_RS1_486>
  4152d1:	48 89 45 f8          	mov    %rax,-0x8(%rbp)
  4152d5:	48 8b 45 f8          	mov    -0x8(%rbp),%rax
  4152d9:	48 83 c4 30          	add    $0x30,%rsp
  4152dd:	5d                   	pop    %rbp
  4152de:	c3                   	retq   
--
  415365:	48 8b 75 e0          	mov    -0x20(%rbp),%rsi
  415369:	e8 12 92 00 00       	callq  41e580 <_ZNSt17_Rb_tree_iteratorISt4pairIKSsSsEEC2EPSt13_Rb_tree_nodeIS2_E295>
  41536e:	48 8b 45 f8          	mov    -0x8(%rbp),%rax
  415372:	48 83 c4 30          	add    $0x30,%rsp
  415376:	5d                   	pop    %rbp
  415377:	c3                   	retq   
--
  4153cc:	48 8b 55 d8          	mov    -0x28(%rbp),%rdx
  4153d0:	48 89 02             	mov    %rax,(%rdx)
  4153d3:	48 89 8a 90 00 00 00 	mov    %rcx,0x90(%rdx)
  4153da:	48 83 c4 30          	add    $0x30,%rsp
  4153de:	5d                   	pop    %rbp
  4153df:	c3                   	retq   
--
  4154ae:	48 89 c6             	mov    %rax,%rsi
  4154b1:	e8 4a 96 00 00       	callq  41eb00 <_ZN5boost16exception_detail20copy_boost_exceptionEPNS_9exceptionEPKS1_315>
  4154b6:	e9 00 00 00 00       	jmpq   4154bb <_ZN5boost16exception_detail10clone_implINS0_19error_info_injectorINS_15program_options20invalid_option_valueEEEEC1ERKS5_+0xbb>
  4154bb:	48 83 c4 40          	add    $0x40,%rsp
  4154bf:	5d                   	pop    %rbp
  4154c0:	c3                   	retq   
--
  415535:	48 8b 75 f0          	mov    -0x10(%rbp),%rsi
  415539:	66 8b 06             	mov    (%rsi),%ax
  41553c:	66 89 47 08          	mov    %ax,0x8(%rdi)
  415540:	48 83 c4 20          	add    $0x20,%rsp
  415544:	5d                   	pop    %rbp
  415545:	c3                   	retq   
--
  41555b:	48 05 10 00 00 00    	add    $0x10,%rax
  415561:	48 89 7d f8          	mov    %rdi,-0x8(%rbp)
  415565:	48 8b 7d f8          	mov    -0x8(%rbp),%rdi
  415569:	48 89 07             	mov    %rax,(%rdi)
  41556c:	5d                   	pop    %rbp
  41556d:	c3                   	retq   
--
  415578:	48 89 7d f8          	mov    %rdi,-0x8(%rbp)
  41557c:	48 8b 7d f8          	mov    -0x8(%rbp),%rdi
  415580:	e8 8b b9 00 00       	callq  420f10 <_ZN5boost3any11placeholderD2Ev410>
  415585:	48 83 c4 10          	add    $0x10,%rsp
  415589:	5d                   	pop    %rbp
  41558a:	c3                   	retq   
--
  4155a4:	e8 07 5b 00 00       	callq  41b0b0 <_ZN5boost3any6holderItED2Ev109>
  4155a9:	48 8b 7d f0          	mov    -0x10(%rbp),%rdi
  4155ad:	e8 be 20 ff ff       	callq  407670 <_ZdlPv@plt>
  4155b2:	48 83 c4 10          	add    $0x10,%rsp
  4155b6:	5d                   	pop    %rbp
  4155b7:	c3                   	retq   
--
  4155c0:	55                   	push   %rbp
  4155c1:	48 89 e5             	mov    %rsp,%rbp
  4155c4:	48 8b 05 bd 49 22 00 	mov    0x2249bd(%rip),%rax        # 639f88 <_DYNAMIC+0x250>
  4155cb:	48 89 7d f8          	mov    %rdi,-0x8(%rbp)
  4155cf:	5d                   	pop    %rbp
  4155d0:	c3                   	retq   
--
  41561b:	e8 f0 fc 00 00       	callq  425310 <_ZN5boost3any6holderItEC2ERKt631>
  415620:	e9 00 00 00 00       	jmpq   415625 <_ZNK5boost3any6holderItE5cloneEv+0x45>
  415625:	48 8b 45 d8          	mov    -0x28(%rbp),%rax
  415629:	48 83 c4 30          	add    $0x30,%rsp
  41562d:	5d                   	pop    %rbp
  41562e:	c3                   	retq   
--
  415685:	48 8b 75 f0          	mov    -0x10(%rbp),%rsi
  415689:	66 8b 06             	mov    (%rsi),%ax
  41568c:	66 89 47 08          	mov    %ax,0x8(%rdi)
  415690:	48 83 c4 20          	add    $0x20,%rsp
  415694:	5d                   	pop    %rbp
  415695:	c3                   	retq   
--
00000000004156a0 <_ZN5boost3any11placeholderD2Ev>:
  4156a0:	55                   	push   %rbp
  4156a1:	48 89 e5             	mov    %rsp,%rbp
  4156a4:	48 89 7d f8          	mov    %rdi,-0x8(%rbp)
  4156a8:	5d                   	pop    %rbp
  4156a9:	c3                   	retq   
--
  4156c4:	e8 47 b8 00 00       	callq  420f10 <_ZN5boost3any11placeholderD2Ev410>
  4156c9:	48 8b 7d f0          	mov    -0x10(%rbp),%rdi
  4156cd:	e8 9e 1f ff ff       	callq  407670 <_ZdlPv@plt>
  4156d2:	48 83 c4 10          	add    $0x10,%rsp
  4156d6:	5d                   	pop    %rbp
  4156d7:	c3                   	retq   
--
  41577d:	e8 6e d6 00 00       	callq  422df0 <_ZN5boost16bad_lexical_castD2Ev497>
  415782:	e9 0a 00 00 00       	jmpq   415791 <_ZN5boost6detail20lexical_cast_do_castItSsE17lexical_cast_implERKSs+0xb1>
  415787:	0f b7 45 f6          	movzwl -0xa(%rbp),%eax
  41578b:	48 83 c4 60          	add    $0x60,%rsp
  41578f:	5d                   	pop    %rbp
  415790:	c3                   	retq   
--

00000000004157a0 <_ZN5boost6detail16lcast_src_lengthISsE14check_coverageEv>:
  4157a0:	55                   	push   %rbp
  4157a1:	48 89 e5             	mov    %rsp,%rbp
  4157a4:	5d                   	pop    %rbp
  4157a5:	c3                   	retq   
--
  4157c4:	48 8b 75 f0          	mov    -0x10(%rbp),%rsi
  4157c8:	48 89 32             	mov    %rsi,(%rdx)
  4157cb:	48 8b 75 e8          	mov    -0x18(%rbp),%rsi
  4157cf:	48 89 72 08          	mov    %rsi,0x8(%rdx)
  4157d3:	5d                   	pop    %rbp
  4157d4:	c3                   	retq   
--
  415825:	48 89 70 08          	mov    %rsi,0x8(%rax)
  415829:	80 e1 01             	and    $0x1,%cl
  41582c:	0f b6 c1             	movzbl %cl,%eax
  41582f:	48 83 c4 20          	add    $0x20,%rsp
  415833:	5d                   	pop    %rbp
  415834:	c3                   	retq   
--
  415858:	e8 03 7e 00 00       	callq  41d660 <_ZN5boost6detail26lexical_stream_limited_srcIcSt11char_traitsIcELb0EE12shr_unsignedItEEbRT_240>
  41585d:	24 01                	and    $0x1,%al
  41585f:	0f b6 c0             	movzbl %al,%eax
  415862:	48 83 c4 10          	add    $0x10,%rsp
  415866:	5d                   	pop    %rbp
  415867:	c3                   	retq   
--
  415894:	48 8b 75 f8          	mov    -0x8(%rbp),%rsi
  415898:	48 8d 4d b8          	lea    -0x48(%rbp),%rcx
  41589c:	48 89 7d a0          	mov    %rdi,-0x60(%rbp)
  4158a0:	48 89 cf             	mov    %rcx,%rdi
  4158a3:	48 89 45 98          	mov    %rax,-0x68(%rbp)
  4158a7:	e8 e4 75 00 00       	callq  41ce90 <_ZN5boost17enable_error_infoINS_16bad_lexical_castEEENS_16exception_detail29enable_error_info_return_typeIT_E4typeERKS4_212>
--
  415970:	48 89 56 08          	mov    %rdx,0x8(%rsi)
  415974:	48 8b 55 e8          	mov    -0x18(%rbp),%rdx
  415978:	48 89 56 10          	mov    %rdx,0x10(%rsi)
  41597c:	48 83 c4 20          	add    $0x20,%rsp
  415980:	5d                   	pop    %rbp
  415981:	c3                   	retq   
--
  415998:	48 89 7d f8          	mov    %rdi,-0x8(%rbp)
  41599c:	48 8b 7d f8          	mov    -0x8(%rbp),%rdi
  4159a0:	e8 fb 1b ff ff       	callq  4075a0 <_ZNSt8bad_castD2Ev@plt>
  4159a5:	48 83 c4 10          	add    $0x10,%rsp
  4159a9:	5d                   	pop    %rbp
  4159aa:	c3                   	retq   
--
  4159c4:	e8 27 d4 00 00       	callq  422df0 <_ZN5boost16bad_lexical_castD2Ev497>
  4159c9:	48 8b 7d f0          	mov    -0x10(%rbp),%rdi
  4159cd:	e8 9e 1c ff ff       	callq  407670 <_ZdlPv@plt>
  4159d2:	48 83 c4 10          	add    $0x10,%rsp
  4159d6:	5d                   	pop    %rbp
  4159d7:	c3                   	retq   
--
  4159e0:	55                   	push   %rbp
  4159e1:	48 89 e5             	mov    %rsp,%rbp
  4159e4:	48 8d 05 dc 14 01 00 	lea    0x114dc(%rip),%rax        # 426ec7 <_IO_stdin_used+0x2c7>
  4159eb:	48 89 7d f8          	mov    %rdi,-0x8(%rbp)
  4159ef:	5d                   	pop    %rbp
  4159f0:	c3                   	retq   
--
  415a13:	48 89 45 f0          	mov    %rax,-0x10(%rbp)
  415a17:	e8 34 ea 00 00       	callq  424450 <_ZN5boost16exception_detail10clone_implINS0_19error_info_injectorINS_16bad_lexical_castEEEEC1ERKS4_584>
  415a1c:	48 8b 45 f0          	mov    -0x10(%rbp),%rax
  415a20:	48 83 c4 10          	add    $0x10,%rsp
  415a24:	5d                   	pop    %rbp
  415a25:	c3                   	retq   
  415a26:	66 2e 0f 1f 84 00 00 	nopw   %cs:0x0(%rax,%rax,1)
  415a2d:	00 00 00 

0000000000415a30 <_ZN5boost17enable_error_infoINS_16bad_lexical_castEEENS_16exception_detail29enable_error_info_return_typeIT_E4typeERKS4_>:
--
  415a43:	48 89 45 f0          	mov    %rax,-0x10(%rbp)
  415a47:	e8 e4 b1 00 00       	callq  420c30 <_ZN5boost16exception_detail19error_info_injectorINS_16bad_lexical_castEEC2ERKS2_404>
  415a4c:	48 8b 45 f0          	mov    -0x10(%rbp),%rax
  415a50:	48 83 c4 10          	add    $0x10,%rsp
  415a54:	5d                   	pop    %rbp
  415a55:	c3                   	retq   
--
  415a84:	48 81 c6 40 00 00 00 	add    $0x40,%rsi
  415a8b:	48 89 f7             	mov    %rsi,%rdi
  415a8e:	e8 9d a1 00 00       	callq  41fc30 <_ZN5boost16exception_detail10clone_baseD2Ev363>
  415a93:	48 83 c4 10          	add    $0x10,%rsp
  415a97:	5d                   	pop    %rbp
  415a98:	c3                   	retq   
--
  415ac5:	48 8b 45 f0          	mov    -0x10(%rbp),%rax
  415ac9:	48 89 c7             	mov    %rax,%rdi
  415acc:	e8 1f d3 00 00       	callq  422df0 <_ZN5boost16bad_lexical_castD2Ev497>
  415ad1:	48 83 c4 10          	add    $0x10,%rsp
  415ad5:	5d                   	pop    %rbp
  415ad6:	c3                   	retq   
--
  415aec:	48 8b 7d f8          	mov    -0x8(%rbp),%rdi
  415af0:	48 81 c7 e8 ff ff ff 	add    $0xffffffffffffffe8,%rdi
  415af7:	e8 a4 f3 00 00       	callq  424ea0 <_ZN5boost16exception_detail19error_info_injectorINS_16bad_lexical_castEED2Ev615>
  415afc:	48 83 c4 10          	add    $0x10,%rsp
  415b00:	5d                   	pop    %rbp
  415b01:	c3                   	retq   
--
  415b20:	48 8b 75 f8          	mov    -0x8(%rbp),%rsi
  415b24:	48 89 f7             	mov    %rsi,%rdi
  415b27:	e8 74 f3 00 00       	callq  424ea0 <_ZN5boost16exception_detail19error_info_injectorINS_16bad_lexical_castEED2Ev615>
  415b2c:	48 83 c4 10          	add    $0x10,%rsp
  415b30:	5d                   	pop    %rbp
  415b31:	c3                   	retq   
--
  415b4c:	48 8b 7d f8          	mov    -0x8(%rbp),%rdi
  415b50:	48 81 c7 e8 ff ff ff 	add    $0xffffffffffffffe8,%rdi
  415b57:	e8 d4 54 00 00       	callq  41b030 <_ZN5boost16exception_detail10clone_implINS0_19error_info_injectorINS_16bad_lexical_castEEEED1Ev107>
  415b5c:	48 83 c4 10          	add    $0x10,%rsp
  415b60:	5d                   	pop    %rbp
  415b61:	c3                   	retq   
--
  415b86:	48 03 47 d8          	add    -0x28(%rdi),%rax
  415b8a:	48 89 c7             	mov    %rax,%rdi
  415b8d:	e8 9e 54 00 00       	callq  41b030 <_ZN5boost16exception_detail10clone_implINS0_19error_info_injectorINS_16bad_lexical_castEEEED1Ev107>
  415b92:	48 83 c4 10          	add    $0x10,%rsp
  415b96:	5d                   	pop    %rbp
  415b97:	c3                   	retq   
--
  415bb4:	e8 77 54 00 00       	callq  41b030 <_ZN5boost16exception_detail10clone_implINS0_19error_info_injectorINS_16bad_lexical_castEEEED1Ev107>
  415bb9:	48 8b 7d f0          	mov    -0x10(%rbp),%rdi
  415bbd:	e8 ae 1a ff ff       	callq  407670 <_ZdlPv@plt>
  415bc2:	48 83 c4 10          	add    $0x10,%rsp
  415bc6:	5d                   	pop    %rbp
  415bc7:	c3                   	retq   
--
  415c32:	48 01 c8             	add    %rcx,%rax
  415c35:	48 89 45 c0          	mov    %rax,-0x40(%rbp)
  415c39:	48 8b 45 c0          	mov    -0x40(%rbp),%rax
  415c3d:	48 83 c4 40          	add    $0x40,%rsp
  415c41:	5d                   	pop    %rbp
  415c42:	c3                   	retq   
--
  415c50:	e8 1b 1a ff ff       	callq  407670 <_ZdlPv@plt>
  415c55:	48 8b 7d e8          	mov    -0x18(%rbp),%rdi
  415c59:	e8 02 20 ff ff       	callq  407c60 <_Unwind_Resume@plt>
  415c5e:	66 90                	xchg   %ax,%ax

0000000000415c60 <_ZNK5boost16exception_detail10clone_implINS0_19error_info_injectorINS_16bad_lexical_castEEEE7rethrowEv>:
--
  415c7f:	48 89 c1             	mov    %rax,%rcx
  415c82:	48 89 c7             	mov    %rax,%rdi
  415c85:	48 8b 75 e0          	mov    -0x20(%rbp),%rsi
  415c89:	48 89 4d d8          	mov    %rcx,-0x28(%rbp)
  415c8d:	e8 5e c1 00 00       	callq  421df0 <_ZN5boost16exception_detail10clone_implINS0_19error_info_injectorINS_16bad_lexical_castEEEEC1ERKS5_445>
  415c92:	e9 00 00 00 00       	jmpq   415c97 <_ZNK5boost16exception_detail10clone_implINS0_19error_info_injectorINS_16bad_lexical_castEEEE7rethrowEv+0x37>
--
  415cdc:	48 8b 7d f8          	mov    -0x8(%rbp),%rdi
  415ce0:	48 81 c7 e8 ff ff ff 	add    $0xffffffffffffffe8,%rdi
  415ce7:	e8 54 e4 00 00       	callq  424140 <_ZN5boost16exception_detail10clone_implINS0_19error_info_injectorINS_16bad_lexical_castEEEED0Ev567>
  415cec:	48 83 c4 10          	add    $0x10,%rsp
  415cf0:	5d                   	pop    %rbp
  415cf1:	c3                   	retq   
--
  415d16:	48 03 47 e8          	add    -0x18(%rdi),%rax
  415d1a:	48 89 c7             	mov    %rax,%rdi
  415d1d:	e8 5e b9 00 00       	callq  421680 <_ZNK5boost16exception_detail10clone_implINS0_19error_info_injectorINS_16bad_lexical_castEEEE5cloneEv427>
  415d22:	48 83 c4 10          	add    $0x10,%rsp
  415d26:	5d                   	pop    %rbp
  415d27:	c3                   	retq   
  415d28:	0f 1f 84 00 00 00 00 	nopl   0x0(%rax,%rax,1)
  415d2f:	00 

0000000000415d30 <_ZTv0_n32_NK5boost16exception_detail10clone_implINS0_19error_info_injectorINS_16bad_lexical_castEEEE7rethrowEv>:
--
  415d3c:	48 8b 7d f8          	mov    -0x8(%rbp),%rdi
  415d40:	48 89 f8             	mov    %rdi,%rax
  415d43:	48 8b 3f             	mov    (%rdi),%rdi
  415d46:	48 03 47 e0          	add    -0x20(%rdi),%rax
  415d4a:	48 89 c7             	mov    %rax,%rdi
  415d4d:	e8 7e 00 01 00       	callq  425dd0 <_ZNK5boost16exception_detail10clone_implINS0_19error_info_injectorINS_16bad_lexical_castEEEE7rethrowEv672>
  415d52:	48 83 c4 10          	add    $0x10,%rsp
  415d56:	5d                   	pop    %rbp
  415d57:	c3                   	retq   
--
  415d76:	48 03 47 d8          	add    -0x28(%rdi),%rax
  415d7a:	48 89 c7             	mov    %rax,%rdi
  415d7d:	e8 be e3 00 00       	callq  424140 <_ZN5boost16exception_detail10clone_implINS0_19error_info_injectorINS_16bad_lexical_castEEEED0Ev567>
  415d82:	48 83 c4 10          	add    $0x10,%rsp
  415d86:	5d                   	pop    %rbp
  415d87:	c3                   	retq   
--
  415df8:	48 89 06             	mov    %rax,(%rsi)
  415dfb:	48 89 56 18          	mov    %rdx,0x18(%rsi)
  415dff:	48 89 4e 40          	mov    %rcx,0x40(%rsi)
  415e03:	48 83 c4 30          	add    $0x30,%rsp
  415e07:	5d                   	pop    %rbp
  415e08:	c3                   	retq   
--
  415e89:	48 8b 55 d8          	mov    -0x28(%rbp),%rdx
  415e8d:	48 89 02             	mov    %rax,(%rdx)
  415e90:	48 89 4a 18          	mov    %rcx,0x18(%rdx)
  415e94:	48 83 c4 30          	add    $0x30,%rsp
  415e98:	5d                   	pop    %rbp
  415e99:	c3                   	retq   
--
  415f03:	48 89 7e 08          	mov    %rdi,0x8(%rsi)
  415f07:	48 8b 40 10          	mov    0x10(%rax),%rax
  415f0b:	48 89 46 10          	mov    %rax,0x10(%rsi)
  415f0f:	48 83 c4 20          	add    $0x20,%rsp
  415f13:	5d                   	pop    %rbp
  415f14:	c3                   	retq   
--
  415f34:	e8 67 ef 00 00       	callq  424ea0 <_ZN5boost16exception_detail19error_info_injectorINS_16bad_lexical_castEED2Ev615>
  415f39:	48 8b 7d f0          	mov    -0x10(%rbp),%rdi
  415f3d:	e8 2e 17 ff ff       	callq  407670 <_ZdlPv@plt>
  415f42:	48 83 c4 10          	add    $0x10,%rsp
  415f46:	5d                   	pop    %rbp
  415f47:	c3                   	retq   
--
  415f5c:	48 8b 7d f8          	mov    -0x8(%rbp),%rdi
  415f60:	48 81 c7 e8 ff ff ff 	add    $0xffffffffffffffe8,%rdi
  415f67:	e8 64 99 00 00       	callq  41f8d0 <_ZN5boost16exception_detail19error_info_injectorINS_16bad_lexical_castEED0Ev348>
  415f6c:	48 83 c4 10          	add    $0x10,%rsp
  415f70:	5d                   	pop    %rbp
  415f71:	c3                   	retq   
--
  416025:	48 89 c6             	mov    %rax,%rsi
  416028:	e8 d3 8a 00 00       	callq  41eb00 <_ZN5boost16exception_detail20copy_boost_exceptionEPNS_9exceptionEPKS1_315>
  41602d:	e9 00 00 00 00       	jmpq   416032 <_ZN5boost16exception_detail10clone_implINS0_19error_info_injectorINS_16bad_lexical_castEEEEC1ERKS5_NS5_9clone_tagE+0xb2>
  416032:	48 83 c4 50          	add    $0x50,%rsp
  416036:	5d                   	pop    %rbp
  416037:	c3                   	retq   
--
  4160c9:	48 8b 55 d8          	mov    -0x28(%rbp),%rdx
  4160cd:	48 89 02             	mov    %rax,(%rdx)
  4160d0:	48 89 4a 18          	mov    %rcx,0x18(%rdx)
  4160d4:	48 83 c4 30          	add    $0x30,%rsp
  4160d8:	5d                   	pop    %rbp
  4160d9:	c3                   	retq   
--
  4161a5:	48 89 c6             	mov    %rax,%rsi
  4161a8:	e8 53 89 00 00       	callq  41eb00 <_ZN5boost16exception_detail20copy_boost_exceptionEPNS_9exceptionEPKS1_315>
  4161ad:	e9 00 00 00 00       	jmpq   4161b2 <_ZN5boost16exception_detail10clone_implINS0_19error_info_injectorINS_16bad_lexical_castEEEEC1ERKS4_+0xb2>
  4161b2:	48 83 c4 40          	add    $0x40,%rsp
  4161b6:	5d                   	pop    %rbp
  4161b7:	c3                   	retq   
--
  41629f:	e9 00 00 00 00       	jmpq   4162a4 <_ZN5boost6detail26lexical_stream_limited_srcIcSt11char_traitsIcELb0EE12shr_unsignedItEEbRT_+0xa4>
  4162a4:	48 8b 7d e8          	mov    -0x18(%rbp),%rdi
  4162a8:	48 8b 45 d8          	mov    -0x28(%rbp),%rax
  4162ac:	48 8b 30             	mov    (%rax),%rsi
  4162af:	48 8b 50 08          	mov    0x8(%rax),%rdx
  4162b3:	e8 08 fe 00 00       	callq  4260c0 <_ZN5boost6detail18lcast_ret_unsignedISt11char_traitsIcEtcEEbRT0_PKT1_S8_681>
--
  4162e4:	8a 45 ff             	mov    -0x1(%rbp),%al
  4162e7:	24 01                	and    $0x1,%al
  4162e9:	0f b6 c0             	movzbl %al,%eax
  4162ec:	48 83 c4 30          	add    $0x30,%rsp
  4162f0:	5d                   	pop    %rbp
  4162f1:	c3                   	retq   
--
  41631a:	39 c8                	cmp    %ecx,%eax
  41631c:	0f 94 c2             	sete   %dl
  41631f:	80 e2 01             	and    $0x1,%dl
  416322:	0f b6 c2             	movzbl %dl,%eax
  416325:	5d                   	pop    %rbp
  416326:	c3                   	retq   
  416327:	66 0f 1f 84 00 00 00 	nopw   0x0(%rax,%rax,1)
  41632e:	00 00 

0000000000416330 <_ZN5boost6detail18lcast_ret_unsignedISt11char_traitsIcEtcEEbRT0_PKT1_S8_>:
--
  416356:	48 89 55 e0          	mov    %rdx,-0x20(%rbp)
  41635a:	48 8b 55 f0          	mov    -0x10(%rbp),%rdx
  41635e:	66 c7 02 00 00       	movw   $0x0,(%rdx)
  416363:	48 8b 55 e8          	mov    -0x18(%rbp),%rdx
  416367:	48 3b 55 e0          	cmp    -0x20(%rbp),%rdx
  41636b:	0f 87 26 00 00 00    	ja     416397 <_ZN5boost6detail18lcast_ret_unsignedISt11char_traitsIcEtcEEbRT0_PKT1_S8_+0x67>
  416371:	48 8b 45 e0          	mov    -0x20(%rbp),%rax
  416375:	0f be 08             	movsbl (%rax),%ecx
  416378:	81 f9 30 00 00 00    	cmp    $0x30,%ecx
  41637e:	0f 8c 13 00 00 00    	jl     416397 <_ZN5boost6detail18lcast_ret_unsignedISt11char_traitsIcEtcEEbRT0_PKT1_S8_+0x67>
  416384:	48 8b 45 e0          	mov    -0x20(%rbp),%rax
  416388:	0f be 08             	movsbl (%rax),%ecx
  41638b:	81 f9 3a 00 00 00    	cmp    $0x3a,%ecx
  416391:	0f 8c 09 00 00 00    	jl     4163a0 <_ZN5boost6detail18lcast_ret_unsignedISt11char_traitsIcEtcEEbRT0_PKT1_S8_+0x70>
  416397:	c6 45 ff 00          	movb   $0x0,-0x1(%rbp)
  41639b:	e9 ee 04 00 00       	jmpq   41688e <_ZN5boost6detail18lcast_ret_unsignedISt11char_traitsIcEtcEEbRT0_PKT1_S8_+0x55e>
--
  4163c5:	c6 45 db 00          	movb   $0x0,-0x25(%rbp)
  4163c9:	48 8d 7d d0          	lea    -0x30(%rbp),%rdi
  4163cd:	e8 ae 15 ff ff       	callq  407980 <_ZNSt6localeC1Ev@plt>
  4163d2:	e8 69 12 ff ff       	callq  407640 <_ZNSt6locale7classicEv@plt>
  4163d7:	48 89 45 80          	mov    %rax,-0x80(%rbp)
  4163db:	e9 00 00 00 00       	jmpq   4163e0 <_ZN5boost6detail18lcast_ret_unsignedISt11char_traitsIcEtcEEbRT0_PKT1_S8_+0xb0>
  4163e0:	48 8d 7d d0          	lea    -0x30(%rbp),%rdi
  4163e4:	48 8b 75 80          	mov    -0x80(%rbp),%rsi
  4163e8:	e8 33 e0 00 00       	callq  424420 <_ZNKSt6localeneERKS_583>
  4163ed:	a8 01                	test   $0x1,%al
  4163ef:	0f 85 05 00 00 00    	jne    4163fa <_ZN5boost6detail18lcast_ret_unsignedISt11char_traitsIcEtcEEbRT0_PKT1_S8_+0xca>
  4163f5:	e9 2c 03 00 00       	jmpq   416726 <_ZN5boost6detail18lcast_ret_unsignedISt11char_traitsIcEtcEEbRT0_PKT1_S8_+0x3f6>
  4163fa:	48 8d 7d d0          	lea    -0x30(%rbp),%rdi
  4163fe:	e8 6d 15 ff ff       	callq  407970 <_ZSt9use_facetISt8numpunctIcEERKT_RKSt6locale@plt>
  416403:	48 89 85 78 ff ff ff 	mov    %rax,-0x88(%rbp)
  41640a:	e9 00 00 00 00       	jmpq   41640f <_ZN5boost6detail18lcast_ret_unsignedISt11char_traitsIcEtcEEbRT0_PKT1_S8_+0xdf>
  41640f:	48 8b 85 78 ff ff ff 	mov    -0x88(%rbp),%rax
  416416:	48 89 45 b8          	mov    %rax,-0x48(%rbp)
  41641a:	48 8d 7d a8          	lea    -0x58(%rbp),%rdi
  41641e:	48 89 c6             	mov    %rax,%rsi
  416421:	e8 4a 16 ff ff       	callq  407a70 <_ZNKSt8numpunctIcE8groupingEv@plt>
  416426:	e9 00 00 00 00       	jmpq   41642b <_ZN5boost6detail18lcast_ret_unsignedISt11char_traitsIcEtcEEbRT0_PKT1_S8_+0xfb>
--
  416433:	48 8b 7d b0          	mov    -0x50(%rbp),%rdi
  416437:	e8 b4 12 ff ff       	callq  4076f0 <_ZNKSs4sizeEv@plt>
  41643c:	48 89 45 a0          	mov    %rax,-0x60(%rbp)
  416440:	48 81 7d a0 00 00 00 	cmpq   $0x0,-0x60(%rbp)
  416447:	00 
  416448:	0f 84 b3 02 00 00    	je     416701 <_ZN5boost6detail18lcast_ret_unsignedISt11char_traitsIcEtcEEbRT0_PKT1_S8_+0x3d1>
  41644e:	48 8b 7d b0          	mov    -0x50(%rbp),%rdi
  416452:	31 c0                	xor    %eax,%eax
  416454:	89 c6                	mov    %eax,%esi
  416456:	e8 75 16 ff ff       	callq  407ad0 <_ZNKSsixEm@plt>
  41645b:	48 89 85 70 ff ff ff 	mov    %rax,-0x90(%rbp)
  416462:	e9 00 00 00 00       	jmpq   416467 <_ZN5boost6detail18lcast_ret_unsignedISt11char_traitsIcEtcEEbRT0_PKT1_S8_+0x137>
  416467:	48 8b 85 70 ff ff ff 	mov    -0x90(%rbp),%rax
  41646e:	0f be 08             	movsbl (%rax),%ecx
  416471:	81 f9 00 00 00 00    	cmp    $0x0,%ecx
  416477:	0f 8e 84 02 00 00    	jle    416701 <_ZN5boost6detail18lcast_ret_unsignedISt11char_traitsIcEtcEEbRT0_PKT1_S8_+0x3d1>
  41647d:	c6 45 9f 00          	movb   $0x0,-0x61(%rbp)
  416481:	48 8b 7d b8          	mov    -0x48(%rbp),%rdi
  416485:	e8 f6 13 ff ff       	callq  407880 <_ZNKSt8numpunctIcE13thousands_sepEv@plt>
  41648a:	88 85 6f ff ff ff    	mov    %al,-0x91(%rbp)
  416490:	e9 00 00 00 00       	jmpq   416495 <_ZN5boost6detail18lcast_ret_unsignedISt11char_traitsIcEtcEEbRT0_PKT1_S8_+0x165>
--
  41649e:	48 8b 7d b0          	mov    -0x50(%rbp),%rdi
  4164a2:	0f b6 4d 9f          	movzbl -0x61(%rbp),%ecx
  4164a6:	89 ce                	mov    %ecx,%esi
  4164a8:	e8 23 16 ff ff       	callq  407ad0 <_ZNKSsixEm@plt>
  4164ad:	48 89 85 60 ff ff ff 	mov    %rax,-0xa0(%rbp)
  4164b4:	e9 00 00 00 00       	jmpq   4164b9 <_ZN5boost6detail18lcast_ret_unsignedISt11char_traitsIcEtcEEbRT0_PKT1_S8_+0x189>
--
  4164c9:	88 ca                	mov    %cl,%dl
  4164cb:	88 55 9d             	mov    %dl,-0x63(%rbp)
  4164ce:	c6 45 9c 01          	movb   $0x1,-0x64(%rbp)
  4164d2:	48 8b 45 e0          	mov    -0x20(%rbp),%rax
  4164d6:	48 3b 45 e8          	cmp    -0x18(%rbp),%rax
  4164da:	0f 82 02 02 00 00    	jb     4166e2 <_ZN5boost6detail18lcast_ret_unsignedISt11char_traitsIcEtcEEbRT0_PKT1_S8_+0x3b2>
  4164e0:	80 7d 9d 00          	cmpb   $0x0,-0x63(%rbp)
  4164e4:	0f 84 56 01 00 00    	je     416640 <_ZN5boost6detail18lcast_ret_unsignedISt11char_traitsIcEtcEEbRT0_PKT1_S8_+0x310>
--
  41650c:	99                   	cltd   
  41650d:	8b 8d 5c ff ff ff    	mov    -0xa4(%rbp),%ecx
  416513:	f7 f9                	idiv   %ecx
  416515:	0f b7 75 dc          	movzwl -0x24(%rbp),%esi
  416519:	39 f0                	cmp    %esi,%eax
  41651b:	0f 84 2e 00 00 00    	je     41654f <_ZN5boost6detail18lcast_ret_unsignedISt11char_traitsIcEtcEEbRT0_PKT1_S8_+0x21f>
  416521:	c6 45 db 01          	movb   $0x1,-0x25(%rbp)
  416525:	e9 25 00 00 00       	jmpq   41654f <_ZN5boost6detail18lcast_ret_unsignedISt11char_traitsIcEtcEEbRT0_PKT1_S8_+0x21f>
  41652a:	89 d1                	mov    %edx,%ecx
  41652c:	48 89 45 c8          	mov    %rax,-0x38(%rbp)
  416530:	89 4d c4             	mov    %ecx,-0x3c(%rbp)
  416533:	e9 48 03 00 00       	jmpq   416880 <_ZN5boost6detail18lcast_ret_unsignedISt11char_traitsIcEtcEEbRT0_PKT1_S8_+0x550>
  416538:	48 8d 7d a8          	lea    -0x58(%rbp),%rdi
  41653c:	89 d1                	mov    %edx,%ecx
  41653e:	48 89 45 c8          	mov    %rax,-0x38(%rbp)
  416542:	89 4d c4             	mov    %ecx,-0x3c(%rbp)
  416545:	e8 b6 12 ff ff       	callq  407800 <_ZNSsD1Ev@plt>
  41654a:	e9 31 03 00 00       	jmpq   416880 <_ZN5boost6detail18lcast_ret_unsignedISt11char_traitsIcEtcEEbRT0_PKT1_S8_+0x550>
--
  41656e:	66 89 ca             	mov    %cx,%dx
  416571:	66 89 55 96          	mov    %dx,-0x6a(%rbp)
  416575:	48 8b 45 e0          	mov    -0x20(%rbp),%rax
  416579:	0f be 08             	movsbl (%rax),%ecx
  41657c:	81 f9 30 00 00 00    	cmp    $0x30,%ecx
  416582:	0f 8c 6f 00 00 00    	jl     4165f7 <_ZN5boost6detail18lcast_ret_unsignedISt11char_traitsIcEtcEEbRT0_PKT1_S8_+0x2c7>
  416588:	48 8b 45 e0          	mov    -0x20(%rbp),%rax
  41658c:	0f be 08             	movsbl (%rax),%ecx
  41658f:	81 f9 3a 00 00 00    	cmp    $0x3a,%ecx
  416595:	0f 8d 5c 00 00 00    	jge    4165f7 <_ZN5boost6detail18lcast_ret_unsignedISt11char_traitsIcEtcEEbRT0_PKT1_S8_+0x2c7>
  41659b:	66 81 7d 98 00 00    	cmpw   $0x0,-0x68(%rbp)
  4165a1:	0f 84 17 00 00 00    	je     4165be <_ZN5boost6detail18lcast_ret_unsignedISt11char_traitsIcEtcEEbRT0_PKT1_S8_+0x28e>
--
  4165ab:	0f b7 4d 98          	movzwl -0x68(%rbp),%ecx
  4165af:	99                   	cltd   
  4165b0:	f7 f9                	idiv   %ecx
  4165b2:	0f b7 4d 9a          	movzwl -0x66(%rbp),%ecx
  4165b6:	39 c8                	cmp    %ecx,%eax
  4165b8:	0f 85 39 00 00 00    	jne    4165f7 <_ZN5boost6detail18lcast_ret_unsignedISt11char_traitsIcEtcEEbRT0_PKT1_S8_+0x2c7>
--
  4165cc:	66 89 c8             	mov    %cx,%ax
  4165cf:	0f b7 c8             	movzwl %ax,%ecx
  4165d2:	48 8b 75 f0          	mov    -0x10(%rbp),%rsi
  4165d6:	0f b7 16             	movzwl (%rsi),%edx
  4165d9:	39 d1                	cmp    %edx,%ecx
  4165db:	0f 8c 16 00 00 00    	jl     4165f7 <_ZN5boost6detail18lcast_ret_unsignedISt11char_traitsIcEtcEEbRT0_PKT1_S8_+0x2c7>
  4165e1:	f6 45 db 01          	testb  $0x1,-0x25(%rbp)
  4165e5:	0f 84 1c 00 00 00    	je     416607 <_ZN5boost6detail18lcast_ret_unsignedISt11char_traitsIcEtcEEbRT0_PKT1_S8_+0x2d7>
  4165eb:	66 81 7d 98 00 00    	cmpw   $0x0,-0x68(%rbp)
  4165f1:	0f 84 10 00 00 00    	je     416607 <_ZN5boost6detail18lcast_ret_unsignedISt11char_traitsIcEtcEEbRT0_PKT1_S8_+0x2d7>
  4165f7:	c6 45 ff 00          	movb   $0x0,-0x1(%rbp)
  4165fb:	c7 45 90 01 00 00 00 	movl   $0x1,-0x70(%rbp)
  416602:	e9 01 01 00 00       	jmpq   416708 <_ZN5boost6detail18lcast_ret_unsignedISt11char_traitsIcEtcEEbRT0_PKT1_S8_+0x3d8>
--
  416628:	66 89 ce             	mov    %cx,%si
  41662b:	66 89 75 dc          	mov    %si,-0x24(%rbp)
  41662f:	40 8a 7d 9d          	mov    -0x63(%rbp),%dil
  416633:	40 80 c7 ff          	add    $0xff,%dil
  416637:	40 88 7d 9d          	mov    %dil,-0x63(%rbp)
  41663b:	e9 8a 00 00 00       	jmpq   4166ca <_ZN5boost6detail18lcast_ret_unsignedISt11char_traitsIcEtcEEbRT0_PKT1_S8_+0x39a>
  416640:	48 8d 75 9e          	lea    -0x62(%rbp),%rsi
  416644:	48 8b 7d e0          	mov    -0x20(%rbp),%rdi
  416648:	e8 f3 f4 00 00       	callq  425b40 <_ZNSt11char_traitsIcE2eqERKcS2_665>
  41664d:	a8 01                	test   $0x1,%al
  41664f:	0f 85 09 00 00 00    	jne    41665e <_ZN5boost6detail18lcast_ret_unsignedISt11char_traitsIcEtcEEbRT0_PKT1_S8_+0x32e>
  416655:	c6 45 9c 00          	movb   $0x0,-0x64(%rbp)
  416659:	e9 84 00 00 00       	jmpq   4166e2 <_ZN5boost6detail18lcast_ret_unsignedISt11char_traitsIcEtcEEbRT0_PKT1_S8_+0x3b2>
  41665e:	48 8b 45 e8          	mov    -0x18(%rbp),%rax
  416662:	48 3b 45 e0          	cmp    -0x20(%rbp),%rax
  416666:	0f 85 10 00 00 00    	jne    41667c <_ZN5boost6detail18lcast_ret_unsignedISt11char_traitsIcEtcEEbRT0_PKT1_S8_+0x34c>
  41666c:	c6 45 ff 00          	movb   $0x0,-0x1(%rbp)
  416670:	c7 45 90 01 00 00 00 	movl   $0x1,-0x70(%rbp)
  416677:	e9 8c 00 00 00       	jmpq   416708 <_ZN5boost6detail18lcast_ret_unsignedISt11char_traitsIcEtcEEbRT0_PKT1_S8_+0x3d8>
  41667c:	0f b6 45 9f          	movzbl -0x61(%rbp),%eax
  416680:	89 c1                	mov    %eax,%ecx
  416682:	48 8b 55 a0          	mov    -0x60(%rbp),%rdx
  416686:	48 81 ea 01 00 00 00 	sub    $0x1,%rdx
  41668d:	48 39 d1             	cmp    %rdx,%rcx
  416690:	0f 83 08 00 00 00    	jae    41669e <_ZN5boost6detail18lcast_ret_unsignedISt11char_traitsIcEtcEEbRT0_PKT1_S8_+0x36e>
--
  41669e:	48 8b 7d b0          	mov    -0x50(%rbp),%rdi
  4166a2:	0f b6 45 9f          	movzbl -0x61(%rbp),%eax
  4166a6:	89 c6                	mov    %eax,%esi
  4166a8:	e8 23 14 ff ff       	callq  407ad0 <_ZNKSsixEm@plt>
  4166ad:	48 89 85 50 ff ff ff 	mov    %rax,-0xb0(%rbp)
  4166b4:	e9 00 00 00 00       	jmpq   4166b9 <_ZN5boost6detail18lcast_ret_unsignedISt11char_traitsIcEtcEEbRT0_PKT1_S8_+0x389>
  4166b9:	48 8b 85 50 ff ff ff 	mov    -0xb0(%rbp),%rax
  4166c0:	8a 08                	mov    (%rax),%cl
  4166c2:	88 4d 9d             	mov    %cl,-0x63(%rbp)
  4166c5:	e9 00 00 00 00       	jmpq   4166ca <_ZN5boost6detail18lcast_ret_unsignedISt11char_traitsIcEtcEEbRT0_PKT1_S8_+0x39a>
  4166ca:	e9 00 00 00 00       	jmpq   4166cf <_ZN5boost6detail18lcast_ret_unsignedISt11char_traitsIcEtcEEbRT0_PKT1_S8_+0x39f>
  4166cf:	48 8b 45 e0          	mov    -0x20(%rbp),%rax
  4166d3:	48 05 ff ff ff ff    	add    $0xffffffffffffffff,%rax
  4166d9:	48 89 45 e0          	mov    %rax,-0x20(%rbp)
  4166dd:	e9 f0 fd ff ff       	jmpq   4164d2 <_ZN5boost6detail18lcast_ret_unsignedISt11char_traitsIcEtcEEbRT0_PKT1_S8_+0x1a2>
  4166e2:	f6 45 9c 01          	testb  $0x1,-0x64(%rbp)
  4166e6:	0f 84 10 00 00 00    	je     4166fc <_ZN5boost6detail18lcast_ret_unsignedISt11char_traitsIcEtcEEbRT0_PKT1_S8_+0x3cc>
  4166ec:	c6 45 ff 01          	movb   $0x1,-0x1(%rbp)
  4166f0:	c7 45 90 01 00 00 00 	movl   $0x1,-0x70(%rbp)
  4166f7:	e9 0c 00 00 00       	jmpq   416708 <_ZN5boost6detail18lcast_ret_unsignedISt11char_traitsIcEtcEEbRT0_PKT1_S8_+0x3d8>
  4166fc:	e9 00 00 00 00       	jmpq   416701 <_ZN5boost6detail18lcast_ret_unsignedISt11char_traitsIcEtcEEbRT0_PKT1_S8_+0x3d1>
  416701:	c7 45 90 00 00 00 00 	movl   $0x0,-0x70(%rbp)
  416708:	48 8d 7d a8          	lea    -0x58(%rbp),%rdi
  41670c:	e8 ef 10 ff ff       	callq  407800 <_ZNSsD1Ev@plt>
  416711:	8b 45 90             	mov    -0x70(%rbp),%eax
  416714:	85 c0                	test   %eax,%eax
  416716:	0f 85 56 01 00 00    	jne    416872 <_ZN5boost6detail18lcast_ret_unsignedISt11char_traitsIcEtcEEbRT0_PKT1_S8_+0x542>
  41671c:	e9 00 00 00 00       	jmpq   416721 <_ZN5boost6detail18lcast_ret_unsignedISt11char_traitsIcEtcEEbRT0_PKT1_S8_+0x3f1>
  416721:	e9 00 00 00 00       	jmpq   416726 <_ZN5boost6detail18lcast_ret_unsignedISt11char_traitsIcEtcEEbRT0_PKT1_S8_+0x3f6>
  416726:	e9 00 00 00 00       	jmpq   41672b <_ZN5boost6detail18lcast_ret_unsignedISt11char_traitsIcEtcEEbRT0_PKT1_S8_+0x3fb>
  41672b:	48 8b 45 e8          	mov    -0x18(%rbp),%rax
  41672f:	48 3b 45 e0          	cmp    -0x20(%rbp),%rax
  416733:	0f 87 2e 01 00 00    	ja     416867 <_ZN5boost6detail18lcast_ret_unsignedISt11char_traitsIcEtcEEbRT0_PKT1_S8_+0x537>
--
  41675b:	99                   	cltd   
  41675c:	8b 8d 4c ff ff ff    	mov    -0xb4(%rbp),%ecx
  416762:	f7 f9                	idiv   %ecx
  416764:	0f b7 75 dc          	movzwl -0x24(%rbp),%esi
  416768:	39 f0                	cmp    %esi,%eax
  41676a:	0f 84 04 00 00 00    	je     416774 <_ZN5boost6detail18lcast_ret_unsignedISt11char_traitsIcEtcEEbRT0_PKT1_S8_+0x444>
--
  416793:	66 89 ca             	mov    %cx,%dx
  416796:	66 89 55 8a          	mov    %dx,-0x76(%rbp)
  41679a:	48 8b 45 e0          	mov    -0x20(%rbp),%rax
  41679e:	0f be 08             	movsbl (%rax),%ecx
  4167a1:	81 f9 30 00 00 00    	cmp    $0x30,%ecx
  4167a7:	0f 8c 6f 00 00 00    	jl     41681c <_ZN5boost6detail18lcast_ret_unsignedISt11char_traitsIcEtcEEbRT0_PKT1_S8_+0x4ec>
  4167ad:	48 8b 45 e0          	mov    -0x20(%rbp),%rax
  4167b1:	0f be 08             	movsbl (%rax),%ecx
  4167b4:	81 f9 3a 00 00 00    	cmp    $0x3a,%ecx
  4167ba:	0f 8d 5c 00 00 00    	jge    41681c <_ZN5boost6detail18lcast_ret_unsignedISt11char_traitsIcEtcEEbRT0_PKT1_S8_+0x4ec>
  4167c0:	66 81 7d 8c 00 00    	cmpw   $0x0,-0x74(%rbp)
  4167c6:	0f 84 17 00 00 00    	je     4167e3 <_ZN5boost6detail18lcast_ret_unsignedISt11char_traitsIcEtcEEbRT0_PKT1_S8_+0x4b3>
--
  4167d0:	0f b7 4d 8c          	movzwl -0x74(%rbp),%ecx
  4167d4:	99                   	cltd   
  4167d5:	f7 f9                	idiv   %ecx
  4167d7:	0f b7 4d 8e          	movzwl -0x72(%rbp),%ecx
  4167db:	39 c8                	cmp    %ecx,%eax
  4167dd:	0f 85 39 00 00 00    	jne    41681c <_ZN5boost6detail18lcast_ret_unsignedISt11char_traitsIcEtcEEbRT0_PKT1_S8_+0x4ec>
--
  4167f1:	66 89 c8             	mov    %cx,%ax
  4167f4:	0f b7 c8             	movzwl %ax,%ecx
  4167f7:	48 8b 75 f0          	mov    -0x10(%rbp),%rsi
  4167fb:	0f b7 16             	movzwl (%rsi),%edx
  4167fe:	39 d1                	cmp    %edx,%ecx
  416800:	0f 8c 16 00 00 00    	jl     41681c <_ZN5boost6detail18lcast_ret_unsignedISt11char_traitsIcEtcEEbRT0_PKT1_S8_+0x4ec>
  416806:	f6 45 db 01          	testb  $0x1,-0x25(%rbp)
  41680a:	0f 84 1c 00 00 00    	je     41682c <_ZN5boost6detail18lcast_ret_unsignedISt11char_traitsIcEtcEEbRT0_PKT1_S8_+0x4fc>
  416810:	66 81 7d 8c 00 00    	cmpw   $0x0,-0x74(%rbp)
  416816:	0f 84 10 00 00 00    	je     41682c <_ZN5boost6detail18lcast_ret_unsignedISt11char_traitsIcEtcEEbRT0_PKT1_S8_+0x4fc>
  41681c:	c6 45 ff 00          	movb   $0x0,-0x1(%rbp)
  416820:	c7 45 90 01 00 00 00 	movl   $0x1,-0x70(%rbp)
  416827:	e9 46 00 00 00       	jmpq   416872 <_ZN5boost6detail18lcast_ret_unsignedISt11char_traitsIcEtcEEbRT0_PKT1_S8_+0x542>
--
  41684d:	66 89 ce             	mov    %cx,%si
  416850:	66 89 75 dc          	mov    %si,-0x24(%rbp)
  416854:	48 8b 45 e0          	mov    -0x20(%rbp),%rax
  416858:	48 05 ff ff ff ff    	add    $0xffffffffffffffff,%rax
  41685e:	48 89 45 e0          	mov    %rax,-0x20(%rbp)
  416862:	e9 c4 fe ff ff       	jmpq   41672b <_ZN5boost6detail18lcast_ret_unsignedISt11char_traitsIcEtcEEbRT0_PKT1_S8_+0x3fb>
  416867:	c6 45 ff 01          	movb   $0x1,-0x1(%rbp)
  41686b:	c7 45 90 01 00 00 00 	movl   $0x1,-0x70(%rbp)
  416872:	48 8d 7d d0          	lea    -0x30(%rbp),%rdi
  416876:	e8 f5 13 ff ff       	callq  407c70 <_ZNSt6localeD1Ev@plt>
  41687b:	e9 0e 00 00 00       	jmpq   41688e <_ZN5boost6detail18lcast_ret_unsignedISt11char_traitsIcEtcEEbRT0_PKT1_S8_+0x55e>
  416880:	48 8d 7d d0          	lea    -0x30(%rbp),%rdi
  416884:	e8 e7 13 ff ff       	callq  407c70 <_ZNSt6localeD1Ev@plt>
  416889:	e9 11 00 00 00       	jmpq   41689f <_ZN5boost6detail18lcast_ret_unsignedISt11char_traitsIcEtcEEbRT0_PKT1_S8_+0x56f>
  41688e:	8a 45 ff             	mov    -0x1(%rbp),%al
  416891:	24 01                	and    $0x1,%al
  416893:	0f b6 c0             	movzbl %al,%eax
  416896:	48 81 c4 c0 00 00 00 	add    $0xc0,%rsp
  41689d:	5d                   	pop    %rbp
  41689e:	c3                   	retq   
--
  4168cd:	34 01                	xor    $0x1,%al
  4168cf:	24 01                	and    $0x1,%al
  4168d1:	0f b6 c0             	movzbl %al,%eax
  4168d4:	48 83 c4 10          	add    $0x10,%rsp
  4168d8:	5d                   	pop    %rbp
  4168d9:	c3                   	retq   
--
  4168e0:	55                   	push   %rbp
  4168e1:	48 89 e5             	mov    %rsp,%rbp
  4168e4:	66 b8 ff ff          	mov    $0xffff,%ax
  4168e8:	0f b7 c0             	movzwl %ax,%eax
  4168eb:	5d                   	pop    %rbp
  4168ec:	c3                   	retq   
--
  416917:	48 89 c6             	mov    %rax,%rsi
  41691a:	e8 71 90 00 00       	callq  41f990 <_ZSt4swapIPN5boost3any11placeholderEEvRT_S5_352>
  41691f:	48 8b 45 e0          	mov    -0x20(%rbp),%rax
  416923:	48 83 c4 20          	add    $0x20,%rsp
  416927:	5d                   	pop    %rbp
  416928:	c3                   	retq   
--
  41696c:	48 8b 00             	mov    (%rax),%rax
  41696f:	48 8b 75 f0          	mov    -0x10(%rbp),%rsi
  416973:	48 89 06             	mov    %rax,(%rsi)
  416976:	48 83 c4 20          	add    $0x20,%rsp
  41697a:	5d                   	pop    %rbp
  41697b:	c3                   	retq   
--
  416980:	55                   	push   %rbp
  416981:	48 89 e5             	mov    %rsp,%rbp
  416984:	48 89 7d f8          	mov    %rdi,-0x8(%rbp)
  416988:	48 8b 45 f8          	mov    -0x8(%rbp),%rax
  41698c:	5d                   	pop    %rbp
  41698d:	c3                   	retq   
--
  4169ba:	48 8b 75 f8          	mov    -0x8(%rbp),%rsi
  4169be:	48 8d 8d 40 ff ff ff 	lea    -0xc0(%rbp),%rcx
  4169c5:	48 89 bd 28 ff ff ff 	mov    %rdi,-0xd8(%rbp)
  4169cc:	48 89 cf             	mov    %rcx,%rdi
  4169cf:	48 89 85 20 ff ff ff 	mov    %rax,-0xe0(%rbp)
  4169d6:	e8 d5 ef 00 00       	callq  4259b0 <_ZN5boost17enable_error_infoINS_15program_options16validation_errorEEENS_16exception_detail29enable_error_info_return_typeIT_E4typeERKS5_660>
--
  416af2:	48 81 c7 10 00 00 00 	add    $0x10,%rdi
  416af9:	48 8b 45 b0          	mov    -0x50(%rbp),%rax
  416afd:	48 89 38             	mov    %rdi,(%rax)
  416b00:	48 83 c4 50          	add    $0x50,%rsp
  416b04:	5d                   	pop    %rbp
  416b05:	c3                   	retq   
--
  416b45:	48 8d 7d f0          	lea    -0x10(%rbp),%rdi
  416b49:	48 89 45 f0          	mov    %rax,-0x10(%rbp)
  416b4d:	e8 4e 9c 00 00       	callq  4207a0 <_ZNK9__gnu_cxx17__normal_iteratorIPKSsSt6vectorISsSaISsEEEdeEv399>
  416b52:	48 83 c4 10          	add    $0x10,%rsp
  416b56:	5d                   	pop    %rbp
  416b57:	c3                   	retq   
--
  416b73:	48 89 45 f0          	mov    %rax,-0x10(%rbp)
  416b77:	e8 94 b0 00 00       	callq  421c10 <_ZN5boost16exception_detail10clone_implINS0_19error_info_injectorINS_15program_options16validation_errorEEEEC1ERKS5_443>
  416b7c:	48 8b 45 f0          	mov    -0x10(%rbp),%rax
  416b80:	48 83 c4 10          	add    $0x10,%rsp
  416b84:	5d                   	pop    %rbp
  416b85:	c3                   	retq   
  416b86:	66 2e 0f 1f 84 00 00 	nopw   %cs:0x0(%rax,%rax,1)
  416b8d:	00 00 00 

0000000000416b90 <_ZN5boost17enable_error_infoINS_15program_options16validation_errorEEENS_16exception_detail29enable_error_info_return_typeIT_E4typeERKS5_>:
--
  416ba3:	48 89 45 f0          	mov    %rax,-0x10(%rbp)
  416ba7:	e8 d4 f3 00 00       	callq  425f80 <_ZN5boost16exception_detail19error_info_injectorINS_15program_options16validation_errorEEC2ERKS3_677>
  416bac:	48 8b 45 f0          	mov    -0x10(%rbp),%rax
  416bb0:	48 83 c4 10          	add    $0x10,%rsp
  416bb4:	5d                   	pop    %rbp
  416bb5:	c3                   	retq   
--
  416be4:	48 81 c6 b8 00 00 00 	add    $0xb8,%rsi
  416beb:	48 89 f7             	mov    %rsi,%rdi
  416bee:	e8 3d 90 00 00       	callq  41fc30 <_ZN5boost16exception_detail10clone_baseD2Ev363>
  416bf3:	48 83 c4 10          	add    $0x10,%rsp
  416bf7:	5d                   	pop    %rbp
  416bf8:	c3                   	retq   
--
  416c25:	48 8b 45 f0          	mov    -0x10(%rbp),%rax
  416c29:	48 89 c7             	mov    %rax,%rdi
  416c2c:	e8 af 2e 00 00       	callq  419ae0 <_ZN5boost15program_options16validation_errorD2Ev48>
  416c31:	48 83 c4 10          	add    $0x10,%rsp
  416c35:	5d                   	pop    %rbp
  416c36:	c3                   	retq   
--
  416c4c:	48 8b 7d f8          	mov    -0x8(%rbp),%rdi
  416c50:	48 81 c7 70 ff ff ff 	add    $0xffffffffffffff70,%rdi
  416c57:	e8 34 51 00 00       	callq  41bd90 <_ZN5boost16exception_detail19error_info_injectorINS_15program_options16validation_errorEED2Ev163>
  416c5c:	48 83 c4 10          	add    $0x10,%rsp
  416c60:	5d                   	pop    %rbp
  416c61:	c3                   	retq   
--
  416c80:	48 8b 75 f8          	mov    -0x8(%rbp),%rsi
  416c84:	48 89 f7             	mov    %rsi,%rdi
  416c87:	e8 04 51 00 00       	callq  41bd90 <_ZN5boost16exception_detail19error_info_injectorINS_15program_options16validation_errorEED2Ev163>
  416c8c:	48 83 c4 10          	add    $0x10,%rsp
  416c90:	5d                   	pop    %rbp
  416c91:	c3                   	retq   
--
  416cac:	48 8b 7d f8          	mov    -0x8(%rbp),%rdi
  416cb0:	48 81 c7 70 ff ff ff 	add    $0xffffffffffffff70,%rdi
  416cb7:	e8 44 2e 00 00       	callq  419b00 <_ZN5boost16exception_detail10clone_implINS0_19error_info_injectorINS_15program_options16validation_errorEEEED1Ev49>
  416cbc:	48 83 c4 10          	add    $0x10,%rsp
  416cc0:	5d                   	pop    %rbp
  416cc1:	c3                   	retq   
--
  416ce6:	48 03 47 d8          	add    -0x28(%rdi),%rax
  416cea:	48 89 c7             	mov    %rax,%rdi
  416ced:	e8 0e 2e 00 00       	callq  419b00 <_ZN5boost16exception_detail10clone_implINS0_19error_info_injectorINS_15program_options16validation_errorEEEED1Ev49>
  416cf2:	48 83 c4 10          	add    $0x10,%rsp
  416cf6:	5d                   	pop    %rbp
  416cf7:	c3                   	retq   
--
  416d14:	e8 e7 2d 00 00       	callq  419b00 <_ZN5boost16exception_detail10clone_implINS0_19error_info_injectorINS_15program_options16validation_errorEEEED1Ev49>
  416d19:	48 8b 7d f0          	mov    -0x10(%rbp),%rdi
  416d1d:	e8 4e 09 ff ff       	callq  407670 <_ZdlPv@plt>
  416d22:	48 83 c4 10          	add    $0x10,%rsp
  416d26:	5d                   	pop    %rbp
  416d27:	c3                   	retq   
--
  416d92:	48 01 c8             	add    %rcx,%rax
  416d95:	48 89 45 c0          	mov    %rax,-0x40(%rbp)
  416d99:	48 8b 45 c0          	mov    -0x40(%rbp),%rax
  416d9d:	48 83 c4 40          	add    $0x40,%rsp
  416da1:	5d                   	pop    %rbp
  416da2:	c3                   	retq   
--
  416db0:	e8 bb 08 ff ff       	callq  407670 <_ZdlPv@plt>
  416db5:	48 8b 7d e8          	mov    -0x18(%rbp),%rdi
  416db9:	e8 a2 0e ff ff       	callq  407c60 <_Unwind_Resume@plt>
  416dbe:	66 90                	xchg   %ax,%ax

0000000000416dc0 <_ZNK5boost16exception_detail10clone_implINS0_19error_info_injectorINS_15program_options16validation_errorEEEE7rethrowEv>:
--
  416ddf:	48 89 c1             	mov    %rax,%rcx
  416de2:	48 89 c7             	mov    %rax,%rdi
  416de5:	48 8b 75 e0          	mov    -0x20(%rbp),%rsi
  416de9:	48 89 4d d8          	mov    %rcx,-0x28(%rbp)
  416ded:	e8 2e ca 00 00       	callq  423820 <_ZN5boost16exception_detail10clone_implINS0_19error_info_injectorINS_15program_options16validation_errorEEEEC1ERKS6_539>
  416df2:	e9 00 00 00 00       	jmpq   416df7 <_ZNK5boost16exception_detail10clone_implINS0_19error_info_injectorINS_15program_options16validation_errorEEEE7rethrowEv+0x37>
--
  416e3c:	48 8b 7d f8          	mov    -0x8(%rbp),%rdi
  416e40:	48 81 c7 70 ff ff ff 	add    $0xffffffffffffff70,%rdi
  416e47:	e8 64 44 00 00       	callq  41b2b0 <_ZN5boost16exception_detail10clone_implINS0_19error_info_injectorINS_15program_options16validation_errorEEEED0Ev116>
  416e4c:	48 83 c4 10          	add    $0x10,%rsp
  416e50:	5d                   	pop    %rbp
  416e51:	c3                   	retq   
--
  416e76:	48 03 47 e8          	add    -0x18(%rdi),%rax
  416e7a:	48 89 c7             	mov    %rax,%rdi
  416e7d:	e8 be b5 00 00       	callq  422440 <_ZNK5boost16exception_detail10clone_implINS0_19error_info_injectorINS_15program_options16validation_errorEEEE5cloneEv466>
  416e82:	48 83 c4 10          	add    $0x10,%rsp
  416e86:	5d                   	pop    %rbp
  416e87:	c3                   	retq   
  416e88:	0f 1f 84 00 00 00 00 	nopl   0x0(%rax,%rax,1)
  416e8f:	00 

0000000000416e90 <_ZTv0_n32_NK5boost16exception_detail10clone_implINS0_19error_info_injectorINS_15program_options16validation_errorEEEE7rethrowEv>:
--
  416e9c:	48 8b 7d f8          	mov    -0x8(%rbp),%rdi
  416ea0:	48 89 f8             	mov    %rdi,%rax
  416ea3:	48 8b 3f             	mov    (%rdi),%rdi
  416ea6:	48 03 47 e0          	add    -0x20(%rdi),%rax
  416eaa:	48 89 c7             	mov    %rax,%rdi
  416ead:	e8 1e 48 00 00       	callq  41b6d0 <_ZNK5boost16exception_detail10clone_implINS0_19error_info_injectorINS_15program_options16validation_errorEEEE7rethrowEv135>
  416eb2:	48 83 c4 10          	add    $0x10,%rsp
  416eb6:	5d                   	pop    %rbp
  416eb7:	c3                   	retq   
--
  416ed6:	48 03 47 d8          	add    -0x28(%rdi),%rax
  416eda:	48 89 c7             	mov    %rax,%rdi
  416edd:	e8 ce 43 00 00       	callq  41b2b0 <_ZN5boost16exception_detail10clone_implINS0_19error_info_injectorINS_15program_options16validation_errorEEEED0Ev116>
  416ee2:	48 83 c4 10          	add    $0x10,%rsp
  416ee6:	5d                   	pop    %rbp
  416ee7:	c3                   	retq   
--
  416f5a:	48 89 06             	mov    %rax,(%rsi)
  416f5d:	48 89 96 90 00 00 00 	mov    %rdx,0x90(%rsi)
  416f64:	48 89 8e b8 00 00 00 	mov    %rcx,0xb8(%rsi)
  416f6b:	48 83 c4 30          	add    $0x30,%rsp
  416f6f:	5d                   	pop    %rbp
  416f70:	c3                   	retq   
--
  416fff:	48 8b 55 d8          	mov    -0x28(%rbp),%rdx
  417003:	48 89 02             	mov    %rax,(%rdx)
  417006:	48 89 8a 90 00 00 00 	mov    %rcx,0x90(%rdx)
  41700d:	48 83 c4 30          	add    $0x30,%rsp
  417011:	5d                   	pop    %rbp
  417012:	c3                   	retq   
--
  417054:	e8 37 4d 00 00       	callq  41bd90 <_ZN5boost16exception_detail19error_info_injectorINS_15program_options16validation_errorEED2Ev163>
  417059:	48 8b 7d f0          	mov    -0x10(%rbp),%rdi
  41705d:	e8 0e 06 ff ff       	callq  407670 <_ZdlPv@plt>
  417062:	48 83 c4 10          	add    $0x10,%rsp
  417066:	5d                   	pop    %rbp
  417067:	c3                   	retq   
--
  41707c:	48 8b 7d f8          	mov    -0x8(%rbp),%rdi
  417080:	48 81 c7 70 ff ff ff 	add    $0xffffffffffffff70,%rdi
  417087:	e8 74 ef 00 00       	callq  426000 <_ZN5boost16exception_detail19error_info_injectorINS_15program_options16validation_errorEED0Ev678>
  41708c:	48 83 c4 10          	add    $0x10,%rsp
  417090:	5d                   	pop    %rbp
  417091:	c3                   	retq   
--
  41714e:	48 89 c6             	mov    %rax,%rsi
  417151:	e8 aa 79 00 00       	callq  41eb00 <_ZN5boost16exception_detail20copy_boost_exceptionEPNS_9exceptionEPKS1_315>
  417156:	e9 00 00 00 00       	jmpq   41715b <_ZN5boost16exception_detail10clone_implINS0_19error_info_injectorINS_15program_options16validation_errorEEEEC1ERKS6_NS6_9clone_tagE+0xbb>
  41715b:	48 83 c4 50          	add    $0x50,%rsp
  41715f:	5d                   	pop    %rbp
  417160:	c3                   	retq   
--
  4171ec:	48 8b 55 d8          	mov    -0x28(%rbp),%rdx
  4171f0:	48 89 02             	mov    %rax,(%rdx)
  4171f3:	48 89 8a 90 00 00 00 	mov    %rcx,0x90(%rdx)
  4171fa:	48 83 c4 30          	add    $0x30,%rsp
  4171fe:	5d                   	pop    %rbp
  4171ff:	c3                   	retq   
--
  4172ce:	48 89 c6             	mov    %rax,%rsi
  4172d1:	e8 2a 78 00 00       	callq  41eb00 <_ZN5boost16exception_detail20copy_boost_exceptionEPNS_9exceptionEPKS1_315>
  4172d6:	e9 00 00 00 00       	jmpq   4172db <_ZN5boost16exception_detail10clone_implINS0_19error_info_injectorINS_15program_options16validation_errorEEEEC1ERKS5_+0xbb>
  4172db:	48 83 c4 40          	add    $0x40,%rsp
  4172df:	5d                   	pop    %rbp
  4172e0:	c3                   	retq   
--
  41736f:	48 8b 45 e0          	mov    -0x20(%rbp),%rax
  417373:	48 8b 4d e8          	mov    -0x18(%rbp),%rcx
  417377:	48 89 01             	mov    %rax,(%rcx)
  41737a:	48 83 c4 20          	add    $0x20,%rsp
  41737e:	5d                   	pop    %rbp
  41737f:	c3                   	retq   
--
  4173b0:	0f 94 c1             	sete   %cl
  4173b3:	80 e1 01             	and    $0x1,%cl
  4173b6:	0f b6 c1             	movzbl %cl,%eax
  4173b9:	48 83 c4 20          	add    $0x20,%rsp
  4173bd:	5d                   	pop    %rbp
  4173be:	c3                   	retq   
--
  4173c8:	48 89 7d f8          	mov    %rdi,-0x8(%rbp)
  4173cc:	e8 9f 78 00 00       	callq  41ec70 <_ZN5boost9function1IvRKtE5clearEv318>
  4173d1:	e9 00 00 00 00       	jmpq   4173d6 <_ZN5boost9function1IvRKtED2Ev+0x16>
  4173d6:	48 83 c4 10          	add    $0x10,%rsp
  4173da:	5d                   	pop    %rbp
  4173db:	c3                   	retq   
--
  417444:	e8 37 42 00 00       	callq  41b680 <_ZNK5boost6detail8function13basic_vtable1IvRKtE5clearERNS1_15function_bufferE134>
  417449:	48 8b 45 f0          	mov    -0x10(%rbp),%rax
  41744d:	48 c7 00 00 00 00 00 	movq   $0x0,(%rax)
  417454:	48 83 c4 20          	add    $0x20,%rsp
  417458:	5d                   	pop    %rbp
  417459:	c3                   	retq   
--
  417468:	48 8b 7d f8          	mov    -0x8(%rbp),%rdi
  41746c:	48 8b 3f             	mov    (%rdi),%rdi
  41746f:	48 81 e7 fe ff ff ff 	and    $0xfffffffffffffffe,%rdi
  417476:	48 89 f8             	mov    %rdi,%rax
  417479:	5d                   	pop    %rbp
  41747a:	c3                   	retq   
--
  4174b1:	48 8b 7d f0          	mov    -0x10(%rbp),%rdi
  4174b5:	48 8b 75 f0          	mov    -0x10(%rbp),%rsi
  4174b9:	ff d1                	callq  *%rcx
  4174bb:	48 83 c4 20          	add    $0x20,%rsp
  4174bf:	5d                   	pop    %rbp
  4174c0:	c3                   	retq   
--
  4174d8:	48 89 7d f8          	mov    %rdi,-0x8(%rbp)
  4174dc:	48 8b 7d f8          	mov    -0x8(%rbp),%rdi
  4174e0:	e8 1b 49 00 00       	callq  41be00 <_ZN5boost8any_castItEEPT_PNS_3anyE165>
  4174e5:	48 83 c4 10          	add    $0x10,%rsp
  4174e9:	5d                   	pop    %rbp
  4174ea:	c3                   	retq   
--
  41750c:	89 ca                	mov    %ecx,%edx
  41750e:	48 0f 45 fa          	cmovne %rdx,%rdi
  417512:	48 89 f8             	mov    %rdi,%rax
  417515:	48 83 c4 10          	add    $0x10,%rsp
  417519:	5d                   	pop    %rbp
  41751a:	c3                   	retq   
--
  417593:	48 81 c7 08 00 00 00 	add    $0x8,%rdi
  41759a:	48 8b 75 f0          	mov    -0x10(%rbp),%rsi
  41759e:	ff d0                	callq  *%rax
  4175a0:	48 83 c4 40          	add    $0x40,%rsp
  4175a4:	5d                   	pop    %rbp
  4175a5:	c3                   	retq   
--
  4175c3:	0f 95 c0             	setne  %al
  4175c6:	34 01                	xor    $0x1,%al
  4175c8:	24 01                	and    $0x1,%al
  4175ca:	0f b6 c0             	movzbl %al,%eax
  4175cd:	5d                   	pop    %rbp
  4175ce:	c3                   	retq   
--
  4175f4:	48 8b 75 f8          	mov    -0x8(%rbp),%rsi
  4175f8:	48 8d 4d c0          	lea    -0x40(%rbp),%rcx
  4175fc:	48 89 7d a8          	mov    %rdi,-0x58(%rbp)
  417600:	48 89 cf             	mov    %rcx,%rdi
  417603:	48 89 45 a0          	mov    %rax,-0x60(%rbp)
  417607:	e8 74 c4 00 00       	callq  423a80 <_ZN5boost17enable_error_infoINS_17bad_function_callEEENS_16exception_detail29enable_error_info_return_typeIT_E4typeERKS4_544>
--
  4176fb:	48 81 c7 10 00 00 00 	add    $0x10,%rdi
  417702:	48 8b 45 c8          	mov    -0x38(%rbp),%rax
  417706:	48 89 38             	mov    %rdi,(%rax)
  417709:	48 83 c4 40          	add    $0x40,%rsp
  41770d:	5d                   	pop    %rbp
  41770e:	c3                   	retq   
--
  417758:	48 89 7d f8          	mov    %rdi,-0x8(%rbp)
  41775c:	48 8b 7d f8          	mov    -0x8(%rbp),%rdi
  417760:	e8 5b 00 ff ff       	callq  4077c0 <_ZNSt13runtime_errorD2Ev@plt>
  417765:	48 83 c4 10          	add    $0x10,%rsp
  417769:	5d                   	pop    %rbp
  41776a:	c3                   	retq   
--
  417784:	e8 e7 ba 00 00       	callq  423270 <_ZN5boost17bad_function_callD2Ev518>
  417789:	48 8b 7d f0          	mov    -0x10(%rbp),%rdi
  41778d:	e8 de fe fe ff       	callq  407670 <_ZdlPv@plt>
  417792:	48 83 c4 10          	add    $0x10,%rsp
  417796:	5d                   	pop    %rbp
  417797:	c3                   	retq   
--
  4177b3:	48 89 45 f0          	mov    %rax,-0x10(%rbp)
  4177b7:	e8 94 6c 00 00       	callq  41e450 <_ZN5boost16exception_detail10clone_implINS0_19error_info_injectorINS_17bad_function_callEEEEC1ERKS4_293>
  4177bc:	48 8b 45 f0          	mov    -0x10(%rbp),%rax
  4177c0:	48 83 c4 10          	add    $0x10,%rsp
  4177c4:	5d                   	pop    %rbp
  4177c5:	c3                   	retq   
  4177c6:	66 2e 0f 1f 84 00 00 	nopw   %cs:0x0(%rax,%rax,1)
  4177cd:	00 00 00 

00000000004177d0 <_ZN5boost17enable_error_infoINS_17bad_function_callEEENS_16exception_detail29enable_error_info_return_typeIT_E4typeERKS4_>:
--
  4177e3:	48 89 45 f0          	mov    %rax,-0x10(%rbp)
  4177e7:	e8 a4 65 00 00       	callq  41dd90 <_ZN5boost16exception_detail19error_info_injectorINS_17bad_function_callEEC2ERKS2_263>
  4177ec:	48 8b 45 f0          	mov    -0x10(%rbp),%rax
  4177f0:	48 83 c4 10          	add    $0x10,%rsp
  4177f4:	5d                   	pop    %rbp
  4177f5:	c3                   	retq   
--
  417824:	48 81 c6 38 00 00 00 	add    $0x38,%rsi
  41782b:	48 89 f7             	mov    %rsi,%rdi
  41782e:	e8 fd 83 00 00       	callq  41fc30 <_ZN5boost16exception_detail10clone_baseD2Ev363>
  417833:	48 83 c4 10          	add    $0x10,%rsp
  417837:	5d                   	pop    %rbp
  417838:	c3                   	retq   
--
  417865:	48 8b 45 f0          	mov    -0x10(%rbp),%rax
  417869:	48 89 c7             	mov    %rax,%rdi
  41786c:	e8 ff b9 00 00       	callq  423270 <_ZN5boost17bad_function_callD2Ev518>
  417871:	48 83 c4 10          	add    $0x10,%rsp
  417875:	5d                   	pop    %rbp
  417876:	c3                   	retq   
--
  41788c:	48 8b 7d f8          	mov    -0x8(%rbp),%rdi
  417890:	48 81 c7 f0 ff ff ff 	add    $0xfffffffffffffff0,%rdi
  417897:	e8 94 c2 00 00       	callq  423b30 <_ZN5boost16exception_detail19error_info_injectorINS_17bad_function_callEED2Ev548>
  41789c:	48 83 c4 10          	add    $0x10,%rsp
  4178a0:	5d                   	pop    %rbp
  4178a1:	c3                   	retq   
--
  4178c0:	48 8b 75 f8          	mov    -0x8(%rbp),%rsi
  4178c4:	48 89 f7             	mov    %rsi,%rdi
  4178c7:	e8 64 c2 00 00       	callq  423b30 <_ZN5boost16exception_detail19error_info_injectorINS_17bad_function_callEED2Ev548>
  4178cc:	48 83 c4 10          	add    $0x10,%rsp
  4178d0:	5d                   	pop    %rbp
  4178d1:	c3                   	retq   
--
  4178ec:	48 8b 7d f8          	mov    -0x8(%rbp),%rdi
  4178f0:	48 81 c7 f0 ff ff ff 	add    $0xfffffffffffffff0,%rdi
  4178f7:	e8 74 37 00 00       	callq  41b070 <_ZN5boost16exception_detail10clone_implINS0_19error_info_injectorINS_17bad_function_callEEEED1Ev108>
  4178fc:	48 83 c4 10          	add    $0x10,%rsp
  417900:	5d                   	pop    %rbp
  417901:	c3                   	retq   
--
  417926:	48 03 47 d8          	add    -0x28(%rdi),%rax
  41792a:	48 89 c7             	mov    %rax,%rdi
  41792d:	e8 3e 37 00 00       	callq  41b070 <_ZN5boost16exception_detail10clone_implINS0_19error_info_injectorINS_17bad_function_callEEEED1Ev108>
  417932:	48 83 c4 10          	add    $0x10,%rsp
  417936:	5d                   	pop    %rbp
  417937:	c3                   	retq   
--
  417954:	e8 17 37 00 00       	callq  41b070 <_ZN5boost16exception_detail10clone_implINS0_19error_info_injectorINS_17bad_function_callEEEED1Ev108>
  417959:	48 8b 7d f0          	mov    -0x10(%rbp),%rdi
  41795d:	e8 0e fd fe ff       	callq  407670 <_ZdlPv@plt>
  417962:	48 83 c4 10          	add    $0x10,%rsp
  417966:	5d                   	pop    %rbp
  417967:	c3                   	retq   
--
  4179d2:	48 01 c8             	add    %rcx,%rax
  4179d5:	48 89 45 c0          	mov    %rax,-0x40(%rbp)
  4179d9:	48 8b 45 c0          	mov    -0x40(%rbp),%rax
  4179dd:	48 83 c4 40          	add    $0x40,%rsp
  4179e1:	5d                   	pop    %rbp
  4179e2:	c3                   	retq   
--
  4179f0:	e8 7b fc fe ff       	callq  407670 <_ZdlPv@plt>
  4179f5:	48 8b 7d e8          	mov    -0x18(%rbp),%rdi
  4179f9:	e8 62 02 ff ff       	callq  407c60 <_Unwind_Resume@plt>
  4179fe:	66 90                	xchg   %ax,%ax

0000000000417a00 <_ZNK5boost16exception_detail10clone_implINS0_19error_info_injectorINS_17bad_function_callEEEE7rethrowEv>:
--
  417a1f:	48 89 c1             	mov    %rax,%rcx
  417a22:	48 89 c7             	mov    %rax,%rdi
  417a25:	48 8b 75 e0          	mov    -0x20(%rbp),%rsi
  417a29:	48 89 4d d8          	mov    %rcx,-0x28(%rbp)
  417a2d:	e8 8e a6 00 00       	callq  4220c0 <_ZN5boost16exception_detail10clone_implINS0_19error_info_injectorINS_17bad_function_callEEEEC1ERKS5_457>
  417a32:	e9 00 00 00 00       	jmpq   417a37 <_ZNK5boost16exception_detail10clone_implINS0_19error_info_injectorINS_17bad_function_callEEEE7rethrowEv+0x37>
--
  417a7c:	48 8b 7d f8          	mov    -0x8(%rbp),%rdi
  417a80:	48 81 c7 f0 ff ff ff 	add    $0xfffffffffffffff0,%rdi
  417a87:	e8 e4 40 00 00       	callq  41bb70 <_ZN5boost16exception_detail10clone_implINS0_19error_info_injectorINS_17bad_function_callEEEED0Ev151>
  417a8c:	48 83 c4 10          	add    $0x10,%rsp
  417a90:	5d                   	pop    %rbp
  417a91:	c3                   	retq   
--
  417ab6:	48 03 47 e8          	add    -0x18(%rdi),%rax
  417aba:	48 89 c7             	mov    %rax,%rdi
  417abd:	e8 7e 28 00 00       	callq  41a340 <_ZNK5boost16exception_detail10clone_implINS0_19error_info_injectorINS_17bad_function_callEEEE5cloneEv77>
  417ac2:	48 83 c4 10          	add    $0x10,%rsp
  417ac6:	5d                   	pop    %rbp
  417ac7:	c3                   	retq   
  417ac8:	0f 1f 84 00 00 00 00 	nopl   0x0(%rax,%rax,1)
  417acf:	00 

0000000000417ad0 <_ZTv0_n32_NK5boost16exception_detail10clone_implINS0_19error_info_injectorINS_17bad_function_callEEEE7rethrowEv>:
--
  417adc:	48 8b 7d f8          	mov    -0x8(%rbp),%rdi
  417ae0:	48 89 f8             	mov    %rdi,%rax
  417ae3:	48 8b 3f             	mov    (%rdi),%rdi
  417ae6:	48 03 47 e0          	add    -0x20(%rdi),%rax
  417aea:	48 89 c7             	mov    %rax,%rdi
  417aed:	e8 5e 30 00 00       	callq  41ab50 <_ZNK5boost16exception_detail10clone_implINS0_19error_info_injectorINS_17bad_function_callEEEE7rethrowEv88>
  417af2:	48 83 c4 10          	add    $0x10,%rsp
  417af6:	5d                   	pop    %rbp
  417af7:	c3                   	retq   
--
  417b16:	48 03 47 d8          	add    -0x28(%rdi),%rax
  417b1a:	48 89 c7             	mov    %rax,%rdi
  417b1d:	e8 4e 40 00 00       	callq  41bb70 <_ZN5boost16exception_detail10clone_implINS0_19error_info_injectorINS_17bad_function_callEEEED0Ev151>
  417b22:	48 83 c4 10          	add    $0x10,%rsp
  417b26:	5d                   	pop    %rbp
  417b27:	c3                   	retq   
--
  417b98:	48 89 06             	mov    %rax,(%rsi)
  417b9b:	48 89 56 10          	mov    %rdx,0x10(%rsi)
  417b9f:	48 89 4e 38          	mov    %rcx,0x38(%rsi)
  417ba3:	48 83 c4 30          	add    $0x30,%rsp
  417ba7:	5d                   	pop    %rbp
  417ba8:	c3                   	retq   
--
  417c29:	48 8b 55 d8          	mov    -0x28(%rbp),%rdx
  417c2d:	48 89 02             	mov    %rax,(%rdx)
  417c30:	48 89 4a 10          	mov    %rcx,0x10(%rdx)
  417c34:	48 83 c4 30          	add    $0x30,%rsp
  417c38:	5d                   	pop    %rbp
  417c39:	c3                   	retq   
--
  417c8e:	48 05 10 00 00 00    	add    $0x10,%rax
  417c94:	48 8b 75 e8          	mov    -0x18(%rbp),%rsi
  417c98:	48 89 06             	mov    %rax,(%rsi)
  417c9b:	48 83 c4 20          	add    $0x20,%rsp
  417c9f:	5d                   	pop    %rbp
  417ca0:	c3                   	retq   
--
  417cc4:	e8 67 be 00 00       	callq  423b30 <_ZN5boost16exception_detail19error_info_injectorINS_17bad_function_callEED2Ev548>
  417cc9:	48 8b 7d f0          	mov    -0x10(%rbp),%rdi
  417ccd:	e8 9e f9 fe ff       	callq  407670 <_ZdlPv@plt>
  417cd2:	48 83 c4 10          	add    $0x10,%rsp
  417cd6:	5d                   	pop    %rbp
  417cd7:	c3                   	retq   
--
  417cec:	48 8b 7d f8          	mov    -0x8(%rbp),%rdi
  417cf0:	48 81 c7 f0 ff ff ff 	add    $0xfffffffffffffff0,%rdi
  417cf7:	e8 44 19 00 00       	callq  419640 <_ZN5boost16exception_detail19error_info_injectorINS_17bad_function_callEED0Ev25>
  417cfc:	48 83 c4 10          	add    $0x10,%rsp
  417d00:	5d                   	pop    %rbp
  417d01:	c3                   	retq   
--
  417d47:	48 83 c6 08          	add    $0x8,%rsi
  417d4b:	e8 40 fa fe ff       	callq  407790 <_ZNSsC1ERKSs@plt>
  417d50:	e9 00 00 00 00       	jmpq   417d55 <_ZNSt13runtime_errorC2ERKS_+0x45>
  417d55:	48 83 c4 30          	add    $0x30,%rsp
  417d59:	5d                   	pop    %rbp
  417d5a:	c3                   	retq   
--
  417e25:	48 89 c6             	mov    %rax,%rsi
  417e28:	e8 d3 6c 00 00       	callq  41eb00 <_ZN5boost16exception_detail20copy_boost_exceptionEPNS_9exceptionEPKS1_315>
  417e2d:	e9 00 00 00 00       	jmpq   417e32 <_ZN5boost16exception_detail10clone_implINS0_19error_info_injectorINS_17bad_function_callEEEEC1ERKS5_NS5_9clone_tagE+0xb2>
  417e32:	48 83 c4 50          	add    $0x50,%rsp
  417e36:	5d                   	pop    %rbp
  417e37:	c3                   	retq   
--
  417ec9:	48 8b 55 d8          	mov    -0x28(%rbp),%rdx
  417ecd:	48 89 02             	mov    %rax,(%rdx)
  417ed0:	48 89 4a 10          	mov    %rcx,0x10(%rdx)
  417ed4:	48 83 c4 30          	add    $0x30,%rsp
  417ed8:	5d                   	pop    %rbp
  417ed9:	c3                   	retq   
--
  417fa5:	48 89 c6             	mov    %rax,%rsi
  417fa8:	e8 53 6b 00 00       	callq  41eb00 <_ZN5boost16exception_detail20copy_boost_exceptionEPNS_9exceptionEPKS1_315>
  417fad:	e9 00 00 00 00       	jmpq   417fb2 <_ZN5boost16exception_detail10clone_implINS0_19error_info_injectorINS_17bad_function_callEEEEC1ERKS4_+0xb2>
  417fb2:	48 83 c4 40          	add    $0x40,%rsp
  417fb6:	5d                   	pop    %rbp
  417fb7:	c3                   	retq   
--
0000000000418000 <_ZN5boost9function1IvRKtE5dummy7nonnullEv>:
  418000:	55                   	push   %rbp
  418001:	48 89 e5             	mov    %rsp,%rbp
  418004:	48 89 7d f8          	mov    %rdi,-0x8(%rbp)
  418008:	5d                   	pop    %rbp
  418009:	c3                   	retq   
--
  418086:	48 89 4d e0          	mov    %rcx,-0x20(%rbp)
  41808a:	e9 00 00 00 00       	jmpq   41808f <_ZN5boost8any_castItEEPT_PNS_3anyE+0x7f>
  41808f:	48 8b 45 e0          	mov    -0x20(%rbp),%rax
  418093:	48 83 c4 30          	add    $0x30,%rsp
  418097:	5d                   	pop    %rbp
  418098:	c3                   	retq   
--
  4180e7:	48 89 c6             	mov    %rax,%rsi
  4180ea:	e8 21 fb fe ff       	callq  407c10 <_ZNSsC1EOSs@plt>
  4180ef:	48 8b 45 e0          	mov    -0x20(%rbp),%rax
  4180f3:	48 83 c4 20          	add    $0x20,%rsp
  4180f7:	5d                   	pop    %rbp
  4180f8:	c3                   	retq   
--
  418137:	48 89 c6             	mov    %rax,%rsi
  41813a:	e8 d1 fa fe ff       	callq  407c10 <_ZNSsC1EOSs@plt>
  41813f:	48 8b 45 e0          	mov    -0x20(%rbp),%rax
  418143:	48 83 c4 20          	add    $0x20,%rsp
  418147:	5d                   	pop    %rbp
  418148:	c3                   	retq   
--
  418212:	48 8b 7d c8          	mov    -0x38(%rbp),%rdi
  418216:	e8 e5 f5 fe ff       	callq  407800 <_ZNSsD1Ev@plt>
  41821b:	48 8b 45 c0          	mov    -0x40(%rbp),%rax
  41821f:	48 83 c4 60          	add    $0x60,%rsp
  418223:	5d                   	pop    %rbp
  418224:	c3                   	retq   
--
  41829f:	48 8b 7d d0          	mov    -0x30(%rbp),%rdi
  4182a3:	e8 58 f5 fe ff       	callq  407800 <_ZNSsD1Ev@plt>
  4182a8:	48 8b 45 c8          	mov    -0x38(%rbp),%rax
  4182ac:	48 83 c4 40          	add    $0x40,%rsp
  4182b0:	5d                   	pop    %rbp
  4182b1:	c3                   	retq   
--
  4182c8:	48 89 7d f8          	mov    %rdi,-0x8(%rbp)
  4182cc:	48 8b 7d f8          	mov    -0x8(%rbp),%rdi
  4182d0:	e8 4b f5 fe ff       	callq  407820 <strlen@plt>
  4182d5:	48 83 c4 10          	add    $0x10,%rsp
  4182d9:	5d                   	pop    %rbp
  4182da:	c3                   	retq   
--
  4182e1:	48 89 e5             	mov    %rsp,%rbp
  4182e4:	48 89 7d f8          	mov    %rdi,-0x8(%rbp)
  4182e8:	48 8b 7d f8          	mov    -0x8(%rbp),%rdi
  4182ec:	48 c7 07 00 00 00 00 	movq   $0x0,(%rdi)
  4182f3:	5d                   	pop    %rbp
  4182f4:	c3                   	retq   
--
0000000000418300 <_ZN5boost15program_options16typed_value_baseD2Ev>:
  418300:	55                   	push   %rbp
  418301:	48 89 e5             	mov    %rsp,%rbp
  418304:	48 89 7d f8          	mov    %rdi,-0x8(%rbp)
  418308:	5d                   	pop    %rbp
  418309:	c3                   	retq   
--
  418324:	e8 27 18 00 00       	callq  419b50 <_ZN5boost15program_options16typed_value_baseD2Ev51>
  418329:	48 8b 7d f0          	mov    -0x10(%rbp),%rdi
  41832d:	e8 3e f3 fe ff       	callq  407670 <_ZdlPv@plt>
  418332:	48 83 c4 10          	add    $0x10,%rsp
  418336:	5d                   	pop    %rbp
  418337:	c3                   	retq   
--
  41834b:	48 05 10 00 00 00    	add    $0x10,%rax
  418351:	48 89 7d f8          	mov    %rdi,-0x8(%rbp)
  418355:	48 8b 7d f8          	mov    -0x8(%rbp),%rdi
  418359:	48 89 07             	mov    %rax,(%rdi)
  41835c:	5d                   	pop    %rbp
  41835d:	c3                   	retq   
--
0000000000418360 <_ZN5boost15program_options14value_semanticD2Ev>:
  418360:	55                   	push   %rbp
  418361:	48 89 e5             	mov    %rsp,%rbp
  418364:	48 89 7d f8          	mov    %rdi,-0x8(%rbp)
  418368:	5d                   	pop    %rbp
  418369:	c3                   	retq   
--
  418384:	e8 97 a3 00 00       	callq  422720 <_ZN5boost15program_options14value_semanticD2Ev476>
  418389:	48 8b 7d f0          	mov    -0x10(%rbp),%rdi
  41838d:	e8 de f2 fe ff       	callq  407670 <_ZdlPv@plt>
  418392:	48 83 c4 10          	add    $0x10,%rsp
  418396:	5d                   	pop    %rbp
  418397:	c3                   	retq   
--
  4183d7:	48 8b 45 d0          	mov    -0x30(%rbp),%rax
  4183db:	48 89 45 f0          	mov    %rax,-0x10(%rbp)
  4183df:	48 8b 45 f0          	mov    -0x10(%rbp),%rax
  4183e3:	48 83 c4 30          	add    $0x30,%rsp
  4183e7:	5d                   	pop    %rbp
  4183e8:	c3                   	retq   
--
  4184ec:	48 89 c7             	mov    %rax,%rdi
  4184ef:	e8 dc 2e 00 00       	callq  41b3d0 <_ZN5boost9function1IvRKSsEC2Ev121>
  4184f4:	e9 00 00 00 00       	jmpq   4184f9 <_ZN5boost15program_options11typed_valueISscEC2EPSs+0xe9>
  4184f9:	48 83 c4 50          	add    $0x50,%rsp
  4184fd:	5d                   	pop    %rbp
  4184fe:	c3                   	retq   
--
  418598:	48 89 7d f8          	mov    %rdi,-0x8(%rbp)
  41859c:	48 8b 7d f8          	mov    -0x8(%rbp),%rdi
  4185a0:	e8 eb 12 00 00       	callq  419890 <_ZN5boost13function_baseC2Ev37>
  4185a5:	48 83 c4 10          	add    $0x10,%rsp
  4185a9:	5d                   	pop    %rbp
  4185aa:	c3                   	retq   
--
  418904:	48 8b 7d 90          	mov    -0x70(%rbp),%rdi
  418908:	e8 83 ee fe ff       	callq  407790 <_ZNSsC1ERKSs@plt>
  41890d:	48 8b 45 88          	mov    -0x78(%rbp),%rax
  418911:	48 81 c4 a0 00 00 00 	add    $0xa0,%rsp
  418918:	5d                   	pop    %rbp
  418919:	c3                   	retq   
--
  41896f:	e9 07 00 00 00       	jmpq   41897b <_ZNK5boost15program_options11typed_valueISscE10min_tokensEv+0x4b>
  418974:	c7 45 fc 01 00 00 00 	movl   $0x1,-0x4(%rbp)
  41897b:	8b 45 fc             	mov    -0x4(%rbp),%eax
  41897e:	48 83 c4 20          	add    $0x20,%rsp
  418982:	5d                   	pop    %rbp
  418983:	c3                   	retq   
--
  4189c4:	c7 45 fc 00 00 00 00 	movl   $0x0,-0x4(%rbp)
  4189cb:	e9 07 00 00 00       	jmpq   4189d7 <_ZNK5boost15program_options11typed_valueISscE10max_tokensEv+0x47>
  4189d0:	c7 45 fc 01 00 00 00 	movl   $0x1,-0x4(%rbp)
  4189d7:	8b 45 fc             	mov    -0x4(%rbp),%eax
  4189da:	5d                   	pop    %rbp
  4189db:	c3                   	retq   
--
  4189e8:	48 8b 7d f8          	mov    -0x8(%rbp),%rdi
  4189ec:	8a 47 40             	mov    0x40(%rdi),%al
  4189ef:	24 01                	and    $0x1,%al
  4189f1:	0f b6 c0             	movzbl %al,%eax
  4189f4:	5d                   	pop    %rbp
  4189f5:	c3                   	retq   
--
  418a08:	48 8b 7d f8          	mov    -0x8(%rbp),%rdi
  418a0c:	8a 47 44             	mov    0x44(%rdi),%al
  418a0f:	24 01                	and    $0x1,%al
  418a11:	0f b6 c0             	movzbl %al,%eax
  418a14:	5d                   	pop    %rbp
  418a15:	c3                   	retq   
--
  418a7b:	8a 45 ff             	mov    -0x1(%rbp),%al
  418a7e:	24 01                	and    $0x1,%al
  418a80:	0f b6 c0             	movzbl %al,%eax
  418a83:	48 83 c4 30          	add    $0x30,%rsp
  418a87:	5d                   	pop    %rbp
  418a88:	c3                   	retq   
--
  418b08:	48 8b 75 e8          	mov    -0x18(%rbp),%rsi
  418b0c:	48 89 c7             	mov    %rax,%rdi
  418b0f:	e8 7c 96 00 00       	callq  422190 <_ZNK5boost9function1IvRKSsEclES2_459>
  418b14:	48 83 c4 30          	add    $0x30,%rsp
  418b18:	5d                   	pop    %rbp
  418b19:	c3                   	retq   
--
  418bcf:	48 8b 45 f0          	mov    -0x10(%rbp),%rax
  418bd3:	48 89 c7             	mov    %rax,%rdi
  418bd6:	e8 d5 b2 00 00       	callq  423eb0 <_ZN5boost15program_options29value_semantic_codecvt_helperIcED2Ev562>
  418bdb:	48 83 c4 10          	add    $0x10,%rsp
  418bdf:	5d                   	pop    %rbp
  418be0:	c3                   	retq   
--
  418c04:	e8 57 37 00 00       	callq  41c360 <_ZN5boost15program_options11typed_valueISscED2Ev182>
  418c09:	48 8b 7d f0          	mov    -0x10(%rbp),%rdi
  418c0d:	e8 5e ea fe ff       	callq  407670 <_ZdlPv@plt>
  418c12:	48 83 c4 10          	add    $0x10,%rsp
  418c16:	5d                   	pop    %rbp
  418c17:	c3                   	retq   
--
  418c91:	48 8b 7d f0          	mov    -0x10(%rbp),%rdi
  418c95:	48 8b 75 e8          	mov    -0x18(%rbp),%rsi
  418c99:	e8 82 ec fe ff       	callq  407920 <_ZN5boost15program_options8validateERNS_3anyERKSt6vectorISsSaISsEEPSsi@plt>
  418c9e:	48 83 c4 30          	add    $0x30,%rsp
  418ca2:	5d                   	pop    %rbp
  418ca3:	c3                   	retq   
--
  418cb0:	55                   	push   %rbp
  418cb1:	48 89 e5             	mov    %rsp,%rbp
  418cb4:	48 8d 05 dd 05 22 00 	lea    0x2205dd(%rip),%rax        # 639298 <_ZTISs>
  418cbb:	48 89 7d f8          	mov    %rdi,-0x8(%rbp)
  418cbf:	5d                   	pop    %rbp
  418cc0:	c3                   	retq   
--
  418cdc:	48 8b 7d f8          	mov    -0x8(%rbp),%rdi
  418ce0:	48 81 c7 f8 ff ff ff 	add    $0xfffffffffffffff8,%rdi
  418ce7:	e8 04 14 00 00       	callq  41a0f0 <_ZNK5boost15program_options11typed_valueISscE10value_typeEv70>
  418cec:	48 83 c4 10          	add    $0x10,%rsp
  418cf0:	5d                   	pop    %rbp
  418cf1:	c3                   	retq   
--
  418d0c:	48 8b 7d f8          	mov    -0x8(%rbp),%rdi
  418d10:	48 81 c7 f8 ff ff ff 	add    $0xfffffffffffffff8,%rdi
  418d17:	e8 44 36 00 00       	callq  41c360 <_ZN5boost15program_options11typed_valueISscED2Ev182>
  418d1c:	48 83 c4 10          	add    $0x10,%rsp
  418d20:	5d                   	pop    %rbp
  418d21:	c3                   	retq   
--
  418d3c:	48 8b 7d f8          	mov    -0x8(%rbp),%rdi
  418d40:	48 81 c7 f8 ff ff ff 	add    $0xfffffffffffffff8,%rdi
  418d47:	e8 64 56 00 00       	callq  41e3b0 <_ZN5boost15program_options11typed_valueISscED0Ev289>
  418d4c:	48 83 c4 10          	add    $0x10,%rsp
  418d50:	5d                   	pop    %rbp
  418d51:	c3                   	retq   
--
  418d68:	48 89 7d f8          	mov    %rdi,-0x8(%rbp)
  418d6c:	e8 8f 1e 00 00       	callq  41ac00 <_ZN5boost9function1IvRKSsE5clearEv90>
  418d71:	e9 00 00 00 00       	jmpq   418d76 <_ZN5boost9function1IvRKSsED2Ev+0x16>
  418d76:	48 83 c4 10          	add    $0x10,%rsp
  418d7a:	5d                   	pop    %rbp
  418d7b:	c3                   	retq   
--
  418de4:	e8 f7 20 00 00       	callq  41aee0 <_ZNK5boost6detail8function13basic_vtable1IvRKSsE5clearERNS1_15function_bufferE102>
  418de9:	48 8b 45 f0          	mov    -0x10(%rbp),%rax
  418ded:	48 c7 00 00 00 00 00 	movq   $0x0,(%rax)
  418df4:	48 83 c4 20          	add    $0x20,%rsp
  418df8:	5d                   	pop    %rbp
  418df9:	c3                   	retq   
--
  418e08:	48 8b 7d f8          	mov    -0x8(%rbp),%rdi
  418e0c:	48 8b 3f             	mov    (%rdi),%rdi
  418e0f:	48 81 e7 fe ff ff ff 	and    $0xfffffffffffffffe,%rdi
  418e16:	48 89 f8             	mov    %rdi,%rax
  418e19:	5d                   	pop    %rbp
  418e1a:	c3                   	retq   
--
  418e51:	48 8b 7d f0          	mov    -0x10(%rbp),%rdi
  418e55:	48 8b 75 f0          	mov    -0x10(%rbp),%rsi
  418e59:	ff d1                	callq  *%rcx
  418e5b:	48 83 c4 20          	add    $0x20,%rsp
  418e5f:	5d                   	pop    %rbp
  418e60:	c3                   	retq   
--
  418e78:	48 89 7d f8          	mov    %rdi,-0x8(%rbp)
  418e7c:	48 8b 7d f8          	mov    -0x8(%rbp),%rdi
  418e80:	e8 eb 46 00 00       	callq  41d570 <_ZN5boost8any_castISsEEPT_PNS_3anyE237>
  418e85:	48 83 c4 10          	add    $0x10,%rsp
  418e89:	5d                   	pop    %rbp
  418e8a:	c3                   	retq   
--
  418eac:	89 ca                	mov    %ecx,%edx
  418eae:	48 0f 45 fa          	cmovne %rdx,%rdi
  418eb2:	48 89 f8             	mov    %rdi,%rax
  418eb5:	48 83 c4 10          	add    $0x10,%rsp
  418eb9:	5d                   	pop    %rbp
  418eba:	c3                   	retq   
--
  418f33:	48 81 c7 08 00 00 00 	add    $0x8,%rdi
  418f3a:	48 8b 75 f0          	mov    -0x10(%rbp),%rsi
  418f3e:	ff d0                	callq  *%rax
  418f40:	48 83 c4 40          	add    $0x40,%rsp
  418f44:	5d                   	pop    %rbp
  418f45:	c3                   	retq   
--
0000000000418f50 <_ZN5boost9function1IvRKSsE5dummy7nonnullEv>:
  418f50:	55                   	push   %rbp
  418f51:	48 89 e5             	mov    %rsp,%rbp
  418f54:	48 89 7d f8          	mov    %rdi,-0x8(%rbp)
  418f58:	5d                   	pop    %rbp
  418f59:	c3                   	retq   
--
  418fd6:	48 89 4d e0          	mov    %rcx,-0x20(%rbp)
  418fda:	e9 00 00 00 00       	jmpq   418fdf <_ZN5boost8any_castISsEEPT_PNS_3anyE+0x7f>
  418fdf:	48 8b 45 e0          	mov    -0x20(%rbp),%rax
  418fe3:	48 83 c4 30          	add    $0x30,%rsp
  418fe7:	5d                   	pop    %rbp
  418fe8:	c3                   	retq   
--
  419001:	48 89 e5             	mov    %rsp,%rbp
  419004:	48 89 7d f8          	mov    %rdi,-0x8(%rbp)
  419008:	48 8b 7d f8          	mov    -0x8(%rbp),%rdi
  41900c:	8b 07                	mov    (%rdi),%eax
  41900e:	5d                   	pop    %rbp
  41900f:	c3                   	retq   
--
  419018:	48 89 7d f8          	mov    %rdi,-0x8(%rbp)
  41901c:	48 8b 7d f8          	mov    -0x8(%rbp),%rdi
  419020:	e8 7b 9d 00 00       	callq  422da0 <_ZNSaISt13_Rb_tree_nodeISt4pairIKSsSsEEED2Ev495>
  419025:	48 83 c4 10          	add    $0x10,%rsp
  419029:	5d                   	pop    %rbp
  41902a:	c3                   	retq   
--
  419040:	48 8b 75 f8          	mov    -0x8(%rbp),%rsi
  419044:	48 89 f7             	mov    %rsi,%rdi
  419047:	e8 d4 9e 00 00       	callq  422f20 <_ZN5boost16exception_detail19error_info_injectorINS_12bad_any_castEED2Ev503>
  41904c:	48 83 c4 10          	add    $0x10,%rsp
  419050:	5d                   	pop    %rbp
  419051:	c3                   	retq   
--
  41918a:	e9 12 00 00 00       	jmpq   4191a1 <_ZN5boost15program_options8validateItcEEvRNS_3anyERKSt6vectorISbIT0_St11char_traitsIS5_ESaIS5_EESaIS9_EEPT_l4+0x141>
  41918f:	48 8d 7d d8          	lea    -0x28(%rbp),%rdi
  419193:	e8 68 e6 fe ff       	callq  407800 <_ZNSsD1Ev@plt>
  419198:	48 81 c4 10 01 00 00 	add    $0x110,%rsp
  41919f:	5d                   	pop    %rbp
  4191a0:	c3                   	retq   
--
  4191d0:	55                   	push   %rbp
  4191d1:	48 89 e5             	mov    %rsp,%rbp
  4191d4:	48 89 7d f8          	mov    %rdi,-0x8(%rbp)
  4191d8:	48 89 75 f0          	mov    %rsi,-0x10(%rbp)
  4191dc:	5d                   	pop    %rbp
  4191dd:	c3                   	retq   
--
  4191ec:	48 8b 7d f8          	mov    -0x8(%rbp),%rdi
  4191f0:	48 81 c7 20 00 00 00 	add    $0x20,%rdi
  4191f7:	e8 74 00 00 00       	callq  419270 <_ZNSt4pairIKSsSsED2Ev11>
  4191fc:	48 83 c4 10          	add    $0x10,%rsp
  419200:	5d                   	pop    %rbp
  419201:	c3                   	retq   
--
  419218:	48 8b 7d f8          	mov    -0x8(%rbp),%rdi
  41921c:	48 81 c7 08 00 00 00 	add    $0x8,%rdi
  419223:	48 81 c7 08 00 00 00 	add    $0x8,%rdi
  41922a:	48 89 f8             	mov    %rdi,%rax
  41922d:	5d                   	pop    %rbp
  41922e:	c3                   	retq   
--
  419238:	48 89 7d f8          	mov    %rdi,-0x8(%rbp)
  41923c:	48 8b 7d f8          	mov    -0x8(%rbp),%rdi
  419240:	e8 1b e4 fe ff       	callq  407660 <_ZNKSs5c_strEv@plt>
  419245:	48 83 c4 10          	add    $0x10,%rsp
  419249:	5d                   	pop    %rbp
  41924a:	c3                   	retq   
--
  419251:	48 89 e5             	mov    %rsp,%rbp
  419254:	48 89 7d f8          	mov    %rdi,-0x8(%rbp)
  419258:	48 8b 7d f8          	mov    -0x8(%rbp),%rdi
  41925c:	48 8b 47 10          	mov    0x10(%rdi),%rax
  419260:	5d                   	pop    %rbp
  419261:	c3                   	retq   
--
  419290:	e8 6b e5 fe ff       	callq  407800 <_ZNSsD1Ev@plt>
  419295:	48 8b 7d f0          	mov    -0x10(%rbp),%rdi
  419299:	e8 62 e5 fe ff       	callq  407800 <_ZNSsD1Ev@plt>
  41929e:	48 83 c4 10          	add    $0x10,%rsp
  4192a2:	5d                   	pop    %rbp
  4192a3:	c3                   	retq   
--
  4192d8:	48 8b 7d e0          	mov    -0x20(%rbp),%rdi
  4192dc:	48 8b 75 d8          	mov    -0x28(%rbp),%rsi
  4192e0:	e8 db 24 00 00       	callq  41b7c0 <_ZNSt20__uninitialized_copyILb0EE13__uninit_copyIN9__gnu_cxx17__normal_iteratorIPKSsSt6vectorISsSaISsEEEEPSsEET0_T_SC_SB_140>
  4192e5:	48 83 c4 30          	add    $0x30,%rsp
  4192e9:	5d                   	pop    %rbp
  4192ea:	c3                   	retq   
--
  419300:	e8 9b 07 00 00       	callq  419aa0 <_ZNSt8_Rb_treeISsSt4pairIKSsSsESt10_Select1stIS2_ESt4lessISsESaIS2_EE3endEv47>
  419305:	48 89 45 f8          	mov    %rax,-0x8(%rbp)
  419309:	48 8b 45 f8          	mov    -0x8(%rbp),%rax
  41930d:	48 83 c4 10          	add    $0x10,%rsp
  419311:	5d                   	pop    %rbp
  419312:	c3                   	retq   
--
  419350:	0f 94 c1             	sete   %cl
  419353:	80 e1 01             	and    $0x1,%cl
  419356:	0f b6 c1             	movzbl %cl,%eax
  419359:	48 83 c4 20          	add    $0x20,%rsp
  41935d:	5d                   	pop    %rbp
  41935e:	c3                   	retq   
--
  41939b:	8a 45 df             	mov    -0x21(%rbp),%al
  41939e:	24 01                	and    $0x1,%al
  4193a0:	0f b6 c0             	movzbl %al,%eax
  4193a3:	48 83 c4 30          	add    $0x30,%rsp
  4193a7:	5d                   	pop    %rbp
  4193a8:	c3                   	retq   
--
  419465:	48 89 c6             	mov    %rax,%rsi
  419468:	e8 93 56 00 00       	callq  41eb00 <_ZN5boost16exception_detail20copy_boost_exceptionEPNS_9exceptionEPKS1_315>
  41946d:	e9 00 00 00 00       	jmpq   419472 <_ZN5boost16exception_detail10clone_implINS0_19error_info_injectorINS_17bad_function_callEEEEC1ERKS5_NS5_9clone_tagE16+0xb2>
  419472:	48 83 c4 50          	add    $0x50,%rsp
  419476:	5d                   	pop    %rbp
  419477:	c3                   	retq   
--
  4194c8:	48 8b 7d f8          	mov    -0x8(%rbp),%rdi
  4194cc:	48 8b 3f             	mov    (%rdi),%rdi
  4194cf:	48 81 e7 fe ff ff ff 	and    $0xfffffffffffffffe,%rdi
  4194d6:	48 89 f8             	mov    %rdi,%rax
  4194d9:	5d                   	pop    %rbp
  4194da:	c3                   	retq   
--
  4194fe:	48 8b 40 18          	mov    0x18(%rax),%rax
  419502:	48 89 45 f8          	mov    %rax,-0x8(%rbp)
  419506:	e9 dd ff ff ff       	jmpq   4194e8 <_ZNSt18_Rb_tree_node_base10_S_maximumEPS_18+0x8>
  41950b:	48 8b 45 f8          	mov    -0x8(%rbp),%rax
  41950f:	5d                   	pop    %rbp
  419510:	c3                   	retq   
--
  41952c:	48 8b 7d f8          	mov    -0x8(%rbp),%rdi
  419530:	48 81 c7 f8 ff ff ff 	add    $0xfffffffffffffff8,%rdi
  419537:	e8 b4 72 00 00       	callq  4207f0 <_ZN5boost15program_options11typed_valueItcED2Ev401>
  41953c:	48 83 c4 10          	add    $0x10,%rsp
  419540:	5d                   	pop    %rbp
  419541:	c3                   	retq   
--
  41957e:	48 05 10 00 00 00    	add    $0x10,%rax
  419584:	48 8b 75 e8          	mov    -0x18(%rbp),%rsi
  419588:	48 89 06             	mov    %rax,(%rsi)
  41958b:	48 83 c4 20          	add    $0x20,%rsp
  41958f:	5d                   	pop    %rbp
  419590:	c3                   	retq   
--
  4195a1:	48 89 e5             	mov    %rsp,%rbp
  4195a4:	48 89 7d f8          	mov    %rdi,-0x8(%rbp)
  4195a8:	48 8b 7d f8          	mov    -0x8(%rbp),%rdi
  4195ac:	48 89 f8             	mov    %rdi,%rax
  4195af:	5d                   	pop    %rbp
  4195b0:	c3                   	retq   
--
  4195d0:	48 8b 7d f8          	mov    -0x8(%rbp),%rdi
  4195d4:	48 8b 75 f0          	mov    -0x10(%rbp),%rsi
  4195d8:	e8 b3 e1 fe ff       	callq  407790 <_ZNSsC1ERKSs@plt>
  4195dd:	48 83 c4 10          	add    $0x10,%rsp
  4195e1:	5d                   	pop    %rbp
  4195e2:	c3                   	retq   
--
  41960c:	e8 7f 7d 00 00       	callq  421390 <_ZN9__gnu_cxx17__normal_iteratorIPKSsSt6vectorISsSaISsEEEC2ERKS2_415>
  419611:	e9 00 00 00 00       	jmpq   419616 <_ZNKSt6vectorISsSaISsEE3endEv23+0x26>
  419616:	48 8b 45 f8          	mov    -0x8(%rbp),%rax
  41961a:	48 83 c4 20          	add    $0x20,%rsp
  41961e:	5d                   	pop    %rbp
  41961f:	c3                   	retq   
--
  419630:	55                   	push   %rbp
  419631:	48 89 e5             	mov    %rsp,%rbp
  419634:	48 89 7d f8          	mov    %rdi,-0x8(%rbp)
  419638:	48 8b 45 f8          	mov    -0x8(%rbp),%rax
  41963c:	5d                   	pop    %rbp
  41963d:	c3                   	retq   
--
  419654:	e8 d7 a4 00 00       	callq  423b30 <_ZN5boost16exception_detail19error_info_injectorINS_17bad_function_callEED2Ev548>
  419659:	48 8b 7d f0          	mov    -0x10(%rbp),%rdi
  41965d:	e8 0e e0 fe ff       	callq  407670 <_ZdlPv@plt>
  419662:	48 83 c4 10          	add    $0x10,%rsp
  419666:	5d                   	pop    %rbp
  419667:	c3                   	retq   
--
  419678:	48 89 7d f8          	mov    %rdi,-0x8(%rbp)
  41967c:	48 8b 7d f8          	mov    -0x8(%rbp),%rdi
  419680:	e8 1b 48 00 00       	callq  41dea0 <_ZNSaISt13_Rb_tree_nodeISt4pairIKSsS0_ISsSsEEEED2Ev267>
  419685:	48 83 c4 10          	add    $0x10,%rsp
  419689:	5d                   	pop    %rbp
  41968a:	c3                   	retq   
--
  419691:	48 89 e5             	mov    %rsp,%rbp
  419694:	48 89 7d f8          	mov    %rdi,-0x8(%rbp)
  419698:	48 8b 7d f8          	mov    -0x8(%rbp),%rdi
  41969c:	48 8b 07             	mov    (%rdi),%rax
  41969f:	5d                   	pop    %rbp
  4196a0:	c3                   	retq   
--
  4196c4:	48 8b 75 f0          	mov    -0x10(%rbp),%rsi
  4196c8:	48 89 32             	mov    %rsi,(%rdx)
  4196cb:	48 8b 75 e8          	mov    -0x18(%rbp),%rsi
  4196cf:	48 89 72 08          	mov    %rsi,0x8(%rdx)
  4196d3:	5d                   	pop    %rbp
  4196d4:	c3                   	retq   
--
  4196e8:	48 8b 7d f8          	mov    -0x8(%rbp),%rdi
  4196ec:	48 8b 3f             	mov    (%rdi),%rdi
  4196ef:	48 81 e7 fe ff ff ff 	and    $0xfffffffffffffffe,%rdi
  4196f6:	48 89 f8             	mov    %rdi,%rax
  4196f9:	5d                   	pop    %rbp
  4196fa:	c3                   	retq   
--
  419736:	48 8b 7d e0          	mov    -0x20(%rbp),%rdi
  41973a:	48 89 c6             	mov    %rax,%rsi
  41973d:	e8 4e e0 fe ff       	callq  407790 <_ZNSsC1ERKSs@plt>
  419742:	48 83 c4 20          	add    $0x20,%rsp
  419746:	5d                   	pop    %rbp
  419747:	c3                   	retq   
--
  41977f:	48 8b 00             	mov    (%rax),%rax
  419782:	48 8b 55 e0          	mov    -0x20(%rbp),%rdx
  419786:	48 89 42 08          	mov    %rax,0x8(%rdx)
  41978a:	48 83 c4 20          	add    $0x20,%rsp
  41978e:	5d                   	pop    %rbp
  41978f:	c3                   	retq   
--
  4197c2:	e8 39 40 00 00       	callq  41d800 <_ZNSt6vectorISsSaISsEED2Ev244>
  4197c7:	48 8b 7d f0          	mov    -0x10(%rbp),%rdi
  4197cb:	e8 30 e0 fe ff       	callq  407800 <_ZNSsD1Ev@plt>
  4197d0:	48 83 c4 10          	add    $0x10,%rsp
  4197d4:	5d                   	pop    %rbp
  4197d5:	c3                   	retq   
--
  419800:	e8 2b 68 00 00       	callq  420030 <_ZN5boost10shared_ptrIKNS_15program_options14value_semanticEED2Ev370>
  419805:	48 8b 7d f0          	mov    -0x10(%rbp),%rdi
  419809:	e8 f2 8b 00 00       	callq  422400 <_ZN5boost3anyD2Ev465>
  41980e:	48 83 c4 10          	add    $0x10,%rsp
  419812:	5d                   	pop    %rbp
  419813:	c3                   	retq   
--
  41982b:	48 05 10 00 00 00    	add    $0x10,%rax
  419831:	48 89 7d f8          	mov    %rdi,-0x8(%rbp)
  419835:	48 8b 7d f8          	mov    -0x8(%rbp),%rdi
  419839:	48 89 07             	mov    %rax,(%rdi)
  41983c:	5d                   	pop    %rbp
  41983d:	c3                   	retq   
--
  41987b:	48 89 77 18          	mov    %rsi,0x18(%rdi)
  41987f:	8b 48 20             	mov    0x20(%rax),%ecx
  419882:	89 4f 20             	mov    %ecx,0x20(%rdi)
  419885:	48 83 c4 20          	add    $0x20,%rsp
  419889:	5d                   	pop    %rbp
  41988a:	c3                   	retq   
--
  419891:	48 89 e5             	mov    %rsp,%rbp
  419894:	48 89 7d f8          	mov    %rdi,-0x8(%rbp)
  419898:	48 8b 7d f8          	mov    -0x8(%rbp),%rdi
  41989c:	48 c7 07 00 00 00 00 	movq   $0x0,(%rdi)
  4198a3:	5d                   	pop    %rbp
  4198a4:	c3                   	retq   
--
  4198e7:	48 8b 45 d0          	mov    -0x30(%rbp),%rax
  4198eb:	48 89 45 f0          	mov    %rax,-0x10(%rbp)
  4198ef:	48 8b 45 f0          	mov    -0x10(%rbp),%rax
  4198f3:	48 83 c4 30          	add    $0x30,%rsp
  4198f7:	5d                   	pop    %rbp
  4198f8:	c3                   	retq   
--
  419921:	48 89 e5             	mov    %rsp,%rbp
  419924:	48 89 7d f8          	mov    %rdi,-0x8(%rbp)
  419928:	48 8b 7d f8          	mov    -0x8(%rbp),%rdi
  41992c:	48 8b 07             	mov    (%rdi),%rax
  41992f:	5d                   	pop    %rbp
  419930:	c3                   	retq   
--
  419948:	48 89 7d f8          	mov    %rdi,-0x8(%rbp)
  41994c:	48 8b 7d f8          	mov    -0x8(%rbp),%rdi
  419950:	e8 4b 8e 00 00       	callq  4227a0 <_ZNSt8_Rb_treeISsSsSt9_IdentityISsESt4lessISsESaISsEED2Ev479>
  419955:	48 83 c4 10          	add    $0x10,%rsp
  419959:	5d                   	pop    %rbp
  41995a:	c3                   	retq   
--
  419968:	48 89 7d f8          	mov    %rdi,-0x8(%rbp)
  41996c:	48 8b 7d f8          	mov    -0x8(%rbp),%rdi
  419970:	e8 6b e2 fe ff       	callq  407be0 <_ZNSt11logic_errorD2Ev@plt>
  419975:	48 83 c4 10          	add    $0x10,%rsp
  419979:	5d                   	pop    %rbp
  41997a:	c3                   	retq   
--
  419996:	48 03 47 d8          	add    -0x28(%rdi),%rax
  41999a:	48 89 c7             	mov    %rax,%rdi
  41999d:	e8 ce 1a 00 00       	callq  41b470 <_ZN5boost16exception_detail10clone_implINS0_19error_info_injectorINS_12bad_any_castEEEED0Ev124>
  4199a2:	48 83 c4 10          	add    $0x10,%rsp
  4199a6:	5d                   	pop    %rbp
  4199a7:	c3                   	retq   
--
  4199b4:	48 89 7d f8          	mov    %rdi,-0x8(%rbp)
  4199b8:	48 8b 7d f8          	mov    -0x8(%rbp),%rdi
  4199bc:	48 8b 7f 10          	mov    0x10(%rdi),%rdi
  4199c0:	48 89 f8             	mov    %rdi,%rax
  4199c3:	5d                   	pop    %rbp
  4199c4:	c3                   	retq   
--
  4199e3:	48 89 45 f0          	mov    %rax,-0x10(%rbp)
  4199e7:	e8 44 c3 00 00       	callq  425d30 <_ZNSaIN5boost15program_options12basic_optionIcEEEC2ERKS3_668>
  4199ec:	48 8b 45 f0          	mov    -0x10(%rbp),%rax
  4199f0:	48 83 c4 10          	add    $0x10,%rsp
  4199f4:	5d                   	pop    %rbp
  4199f5:	c3                   	retq   
--
  419a13:	48 89 45 f0          	mov    %rax,-0x10(%rbp)
  419a17:	e8 94 a0 00 00       	callq  423ab0 <_ZNSt16allocator_traitsISaISsEE9_S_selectIKS0_EENSt9enable_ifIXntsr15__select_helperIT_EE5valueES5_E4typeERS5_545>
  419a1c:	48 8b 45 f0          	mov    -0x10(%rbp),%rax
  419a20:	48 83 c4 10          	add    $0x10,%rsp
  419a24:	5d                   	pop    %rbp
  419a25:	c3                   	retq   
--
  419a89:	48 8b 45 f0          	mov    -0x10(%rbp),%rax
  419a8d:	48 89 c7             	mov    %rax,%rdi
  419a90:	e8 fb 5f 00 00       	callq  41fa90 <_ZN5boost15program_options22abstract_variables_mapD2Ev356>
  419a95:	48 83 c4 10          	add    $0x10,%rsp
  419a99:	5d                   	pop    %rbp
  419a9a:	c3                   	retq   
--
  419abf:	e8 bc 4a 00 00       	callq  41e580 <_ZNSt17_Rb_tree_iteratorISt4pairIKSsSsEEC2EPSt13_Rb_tree_nodeIS2_E295>
  419ac4:	e9 00 00 00 00       	jmpq   419ac9 <_ZNSt8_Rb_treeISsSt4pairIKSsSsESt10_Select1stIS2_ESt4lessISsESaIS2_EE3endEv47+0x29>
  419ac9:	48 8b 45 f8          	mov    -0x8(%rbp),%rax
  419acd:	48 83 c4 20          	add    $0x20,%rsp
  419ad1:	5d                   	pop    %rbp
  419ad2:	c3                   	retq   
--
  419ae8:	48 89 7d f8          	mov    %rdi,-0x8(%rbp)
  419aec:	48 8b 7d f8          	mov    -0x8(%rbp),%rdi
  419af0:	e8 5b 5d 00 00       	callq  41f850 <_ZN5boost15program_options22error_with_option_nameD2Ev347>
  419af5:	48 83 c4 10          	add    $0x10,%rsp
  419af9:	5d                   	pop    %rbp
  419afa:	c3                   	retq   
--
  419b24:	48 81 c6 b8 00 00 00 	add    $0xb8,%rsi
  419b2b:	48 89 f7             	mov    %rsi,%rdi
  419b2e:	e8 fd 60 00 00       	callq  41fc30 <_ZN5boost16exception_detail10clone_baseD2Ev363>
  419b33:	48 83 c4 10          	add    $0x10,%rsp
  419b37:	5d                   	pop    %rbp
  419b38:	c3                   	retq   
--
0000000000419b40 <_ZN9__gnu_cxx13new_allocatorIN5boost15program_options12basic_optionIcEEED2Ev50>:
  419b40:	55                   	push   %rbp
  419b41:	48 89 e5             	mov    %rsp,%rbp
  419b44:	48 89 7d f8          	mov    %rdi,-0x8(%rbp)
  419b48:	5d                   	pop    %rbp
  419b49:	c3                   	retq   
--
0000000000419b50 <_ZN5boost15program_options16typed_value_baseD2Ev51>:
  419b50:	55                   	push   %rbp
  419b51:	48 89 e5             	mov    %rsp,%rbp
  419b54:	48 89 7d f8          	mov    %rdi,-0x8(%rbp)
  419b58:	5d                   	pop    %rbp
  419b59:	c3                   	retq   
--
  419b74:	e8 67 ff ff ff       	callq  419ae0 <_ZN5boost15program_options16validation_errorD2Ev48>
  419b79:	48 8b 7d f0          	mov    -0x10(%rbp),%rdi
  419b7d:	e8 ee da fe ff       	callq  407670 <_ZdlPv@plt>
  419b82:	48 83 c4 10          	add    $0x10,%rsp
  419b86:	5d                   	pop    %rbp
  419b87:	c3                   	retq   
--
  419bc4:	48 8b 75 d8          	mov    -0x28(%rbp),%rsi
  419bc8:	48 89 c2             	mov    %rax,%rdx
  419bcb:	e8 50 37 00 00       	callq  41d320 <_ZNSt16allocator_traitsISaISt13_Rb_tree_nodeISt4pairIKSsSsEEEE12_S_constructIS4_JRKS3_EEENSt9enable_ifIXsr18__construct_helperIT_DpT0_EE5valueEvE4typeERS5_PSB_DpOSC_230>
  419bd0:	48 83 c4 30          	add    $0x30,%rsp
  419bd4:	5d                   	pop    %rbp
  419bd5:	c3                   	retq   
--
  419be8:	48 8b 7d f8          	mov    -0x8(%rbp),%rdi
  419bec:	8a 47 40             	mov    0x40(%rdi),%al
  419bef:	24 01                	and    $0x1,%al
  419bf1:	0f b6 c0             	movzbl %al,%eax
  419bf4:	5d                   	pop    %rbp
  419bf5:	c3                   	retq   
--
  419c26:	48 05 10 00 00 00    	add    $0x10,%rax
  419c2c:	48 8b 7d f0          	mov    -0x10(%rbp),%rdi
  419c30:	48 89 07             	mov    %rax,(%rdi)
  419c33:	48 83 c4 10          	add    $0x10,%rsp
  419c37:	5d                   	pop    %rbp
  419c38:	c3                   	retq   
--
  419c6e:	e9 00 00 00 00       	jmpq   419c73 <_ZNSt8_Rb_treeISsSt4pairIKSsS0_ISsSsEESt10_Select1stIS3_ESt4lessISsESaIS3_EED2Ev56+0x33>
  419c73:	48 8b 7d e0          	mov    -0x20(%rbp),%rdi
  419c77:	e8 f4 f9 ff ff       	callq  419670 <_ZNSt8_Rb_treeISsSt4pairIKSsS0_ISsSsEESt10_Select1stIS3_ESt4lessISsESaIS3_EE13_Rb_tree_implIS7_Lb1EED2Ev26>
  419c7c:	48 83 c4 30          	add    $0x30,%rsp
  419c80:	5d                   	pop    %rbp
  419c81:	c3                   	retq   
--
  419ccc:	48 8b 75 f0          	mov    -0x10(%rbp),%rsi
  419cd0:	48 8b 7d e8          	mov    -0x18(%rbp),%rdi
  419cd4:	e8 87 7a 00 00       	callq  421760 <_ZNSt8_Rb_treeISsSsSt9_IdentityISsESt4lessISsESaISsEE11_M_put_nodeEPSt13_Rb_tree_nodeISsE430>
  419cd9:	48 83 c4 20          	add    $0x20,%rsp
  419cdd:	5d                   	pop    %rbp
  419cde:	c3                   	retq   
--
  419cec:	48 8b 7d f8          	mov    -0x8(%rbp),%rdi
  419cf0:	48 81 c7 f8 ff ff ff 	add    $0xfffffffffffffff8,%rdi
  419cf7:	e8 54 5c 00 00       	callq  41f950 <_ZN5boost16exception_detail10clone_implINS0_19error_info_injectorINS_12bad_any_castEEEED1Ev351>
  419cfc:	48 83 c4 10          	add    $0x10,%rsp
  419d00:	5d                   	pop    %rbp
  419d01:	c3                   	retq   
--
  419d41:	00 
  419d42:	48 c7 40 10 00 00 00 	movq   $0x0,0x10(%rax)
  419d49:	00 
  419d4a:	48 83 c4 10          	add    $0x10,%rsp
  419d4e:	5d                   	pop    %rbp
  419d4f:	c3                   	retq   
--
  419d5c:	48 8b 7d f8          	mov    -0x8(%rbp),%rdi
  419d60:	48 81 c7 20 00 00 00 	add    $0x20,%rdi
  419d67:	e8 54 8f 00 00       	callq  422cc0 <_ZNSt4pairIKSsS_ISsSsEED2Ev491>
  419d6c:	48 83 c4 10          	add    $0x10,%rsp
  419d70:	5d                   	pop    %rbp
  419d71:	c3                   	retq   
--
  419da3:	48 89 f7             	mov    %rsi,%rdi
  419da6:	48 8b 75 e8          	mov    -0x18(%rbp),%rsi
  419daa:	e8 51 95 00 00       	callq  423300 <_ZN9__gnu_cxx13new_allocatorISt13_Rb_tree_nodeISt4pairIKSsS2_ISsSsEEEE10deallocateEPS6_m521>
  419daf:	48 83 c4 20          	add    $0x20,%rsp
  419db3:	5d                   	pop    %rbp
  419db4:	c3                   	retq   
--
  419e9c:	48 89 c7             	mov    %rax,%rdi
  419e9f:	e8 2c 15 00 00       	callq  41b3d0 <_ZN5boost9function1IvRKSsEC2Ev121>
  419ea4:	e9 00 00 00 00       	jmpq   419ea9 <_ZN5boost15program_options11typed_valueISscEC2EPSs62+0xe9>
  419ea9:	48 83 c4 50          	add    $0x50,%rsp
  419ead:	5d                   	pop    %rbp
  419eae:	c3                   	retq   
--
  419f77:	48 89 c6             	mov    %rax,%rsi
  419f7a:	e8 91 dc fe ff       	callq  407c10 <_ZNSsC1EOSs@plt>
  419f7f:	48 8b 45 e0          	mov    -0x20(%rbp),%rax
  419f83:	48 83 c4 20          	add    $0x20,%rsp
  419f87:	5d                   	pop    %rbp
  419f88:	c3                   	retq   
--
  419f9c:	48 8b 7d f8          	mov    -0x8(%rbp),%rdi
  419fa0:	48 81 c7 70 ff ff ff 	add    $0xffffffffffffff70,%rdi
  419fa7:	e8 04 13 00 00       	callq  41b2b0 <_ZN5boost16exception_detail10clone_implINS0_19error_info_injectorINS_15program_options16validation_errorEEEED0Ev116>
  419fac:	48 83 c4 10          	add    $0x10,%rsp
  419fb0:	5d                   	pop    %rbp
  419fb1:	c3                   	retq   
--
  419fd4:	e8 17 68 00 00       	callq  4207f0 <_ZN5boost15program_options11typed_valueItcED2Ev401>
  419fd9:	48 8b 7d f0          	mov    -0x10(%rbp),%rdi
  419fdd:	e8 8e d6 fe ff       	callq  407670 <_ZdlPv@plt>
  419fe2:	48 83 c4 10          	add    $0x10,%rsp
  419fe6:	5d                   	pop    %rbp
  419fe7:	c3                   	retq   
--
  419ff0:	55                   	push   %rbp
  419ff1:	48 89 e5             	mov    %rsp,%rbp
  419ff4:	48 89 7d f8          	mov    %rdi,-0x8(%rbp)
  419ff8:	48 8b 45 f8          	mov    -0x8(%rbp),%rax
  419ffc:	5d                   	pop    %rbp
  419ffd:	c3                   	retq   
--
  41a001:	48 89 e5             	mov    %rsp,%rbp
  41a004:	48 89 7d f8          	mov    %rdi,-0x8(%rbp)
  41a008:	48 8b 7d f8          	mov    -0x8(%rbp),%rdi
  41a00c:	48 89 f8             	mov    %rdi,%rax
  41a00f:	5d                   	pop    %rbp
  41a010:	c3                   	retq   
--
  41a030:	48 8b 75 f8          	mov    -0x8(%rbp),%rsi
  41a034:	48 89 f7             	mov    %rsi,%rdi
  41a037:	e8 54 1d 00 00       	callq  41bd90 <_ZN5boost16exception_detail19error_info_injectorINS_15program_options16validation_errorEED2Ev163>
  41a03c:	48 83 c4 10          	add    $0x10,%rsp
  41a040:	5d                   	pop    %rbp
  41a041:	c3                   	retq   
--
  41a0b8:	48 89 06             	mov    %rax,(%rsi)
  41a0bb:	48 89 56 08          	mov    %rdx,0x8(%rsi)
  41a0bf:	48 89 4e 30          	mov    %rcx,0x30(%rsi)
  41a0c3:	48 83 c4 30          	add    $0x30,%rsp
  41a0c7:	5d                   	pop    %rbp
  41a0c8:	c3                   	retq   
--
  41a0f0:	55                   	push   %rbp
  41a0f1:	48 89 e5             	mov    %rsp,%rbp
  41a0f4:	48 8d 05 9d f1 21 00 	lea    0x21f19d(%rip),%rax        # 639298 <_ZTISs>
  41a0fb:	48 89 7d f8          	mov    %rdi,-0x8(%rbp)
  41a0ff:	5d                   	pop    %rbp
  41a100:	c3                   	retq   
--
  41a141:	00 
  41a142:	48 c7 40 10 00 00 00 	movq   $0x0,0x10(%rax)
  41a149:	00 
  41a14a:	48 83 c4 10          	add    $0x10,%rsp
  41a14e:	5d                   	pop    %rbp
  41a14f:	c3                   	retq   
--
  41a174:	48 8b 75 f8          	mov    -0x8(%rbp),%rsi
  41a178:	48 8d 4d b8          	lea    -0x48(%rbp),%rcx
  41a17c:	48 89 7d a0          	mov    %rdi,-0x60(%rbp)
  41a180:	48 89 cf             	mov    %rcx,%rdi
  41a183:	48 89 45 98          	mov    %rax,-0x68(%rbp)
  41a187:	e8 04 2d 00 00       	callq  41ce90 <_ZN5boost17enable_error_infoINS_16bad_lexical_castEEENS_16exception_detail29enable_error_info_return_typeIT_E4typeERKS4_212>
--
  41a1fb:	e9 00 00 00 00       	jmpq   41a200 <_ZN5boost15throw_exceptionINS_16bad_lexical_castEEEvRKT_72+0xb0>
  41a200:	48 8b 7d b0          	mov    -0x50(%rbp),%rdi
  41a204:	e8 57 da fe ff       	callq  407c60 <_Unwind_Resume@plt>
  41a209:	0f 1f 80 00 00 00 00 	nopl   0x0(%rax)

000000000041a210 <_ZNK5boost16exception_detail10clone_implINS0_19error_info_injectorINS_15program_options20invalid_option_valueEEEE7rethrowEv73>:
--
  41a22f:	48 89 c1             	mov    %rax,%rcx
  41a232:	48 89 c7             	mov    %rax,%rdi
  41a235:	48 8b 75 e0          	mov    -0x20(%rbp),%rsi
  41a239:	48 89 4d d8          	mov    %rcx,-0x28(%rbp)
  41a23d:	e8 fe 16 00 00       	callq  41b940 <_ZN5boost16exception_detail10clone_implINS0_19error_info_injectorINS_15program_options20invalid_option_valueEEEEC1ERKS6_142>
  41a242:	e9 00 00 00 00       	jmpq   41a247 <_ZNK5boost16exception_detail10clone_implINS0_19error_info_injectorINS_15program_options20invalid_option_valueEEEE7rethrowEv73+0x37>
--
  41a293:	48 89 45 f0          	mov    %rax,-0x10(%rbp)
  41a297:	e8 74 79 00 00       	callq  421c10 <_ZN5boost16exception_detail10clone_implINS0_19error_info_injectorINS_15program_options16validation_errorEEEEC1ERKS5_443>
  41a29c:	48 8b 45 f0          	mov    -0x10(%rbp),%rax
  41a2a0:	48 83 c4 10          	add    $0x10,%rsp
  41a2a4:	5d                   	pop    %rbp
  41a2a5:	c3                   	retq   
--
  41a2b4:	48 89 7d f8          	mov    %rdi,-0x8(%rbp)
  41a2b8:	48 8b 7d f8          	mov    -0x8(%rbp),%rdi
  41a2bc:	48 81 c7 20 00 00 00 	add    $0x20,%rdi
  41a2c3:	48 89 f8             	mov    %rdi,%rax
  41a2c6:	5d                   	pop    %rbp
  41a2c7:	c3                   	retq   
--
  41a32b:	48 8b 45 e8          	mov    -0x18(%rbp),%rax
  41a32f:	48 89 45 f0          	mov    %rax,-0x10(%rbp)
  41a333:	e9 b0 ff ff ff       	jmpq   41a2e8 <_ZNSt8_Rb_treeISsSt4pairIKSsN5boost15program_options14variable_valueEESt10_Select1stIS5_ESt4lessISsESaIS5_EE8_M_eraseEPSt13_Rb_tree_nodeIS5_E76+0x18>
  41a338:	48 83 c4 20          	add    $0x20,%rsp
  41a33c:	5d                   	pop    %rbp
  41a33d:	c3                   	retq   
--
  41a3a2:	48 01 c8             	add    %rcx,%rax
  41a3a5:	48 89 45 c0          	mov    %rax,-0x40(%rbp)
  41a3a9:	48 8b 45 c0          	mov    -0x40(%rbp),%rax
  41a3ad:	48 83 c4 40          	add    $0x40,%rsp
  41a3b1:	5d                   	pop    %rbp
  41a3b2:	c3                   	retq   
--
  41a404:	48 8b 75 d0          	mov    -0x30(%rbp),%rsi
  41a408:	e8 83 d3 fe ff       	callq  407790 <_ZNSsC1ERKSs@plt>
  41a40d:	e9 00 00 00 00       	jmpq   41a412 <_ZNSt4pairISsSsEC2ERKS0_78+0x42>
  41a412:	48 83 c4 30          	add    $0x30,%rsp
  41a416:	5d                   	pop    %rbp
  41a417:	c3                   	retq   
--

000000000041a440 <_ZN5boost6detail16lcast_src_lengthISsE14check_coverageEv79>:
  41a440:	55                   	push   %rbp
  41a441:	48 89 e5             	mov    %rsp,%rbp
  41a444:	5d                   	pop    %rbp
  41a445:	c3                   	retq   
--
  41a458:	48 8b 7d f8          	mov    -0x8(%rbp),%rdi
  41a45c:	48 8b 3f             	mov    (%rdi),%rdi
  41a45f:	48 81 e7 fe ff ff ff 	and    $0xfffffffffffffffe,%rdi
  41a466:	48 89 f8             	mov    %rdi,%rax
  41a469:	5d                   	pop    %rbp
  41a46a:	c3                   	retq   
--
  41a4a7:	48 83 c6 08          	add    $0x8,%rsi
  41a4ab:	e8 e0 d2 fe ff       	callq  407790 <_ZNSsC1ERKSs@plt>
  41a4b0:	e9 00 00 00 00       	jmpq   41a4b5 <_ZNSt13runtime_errorC2ERKS_81+0x45>
  41a4b5:	48 83 c4 30          	add    $0x30,%rsp
  41a4b9:	5d                   	pop    %rbp
  41a4ba:	c3                   	retq   
--
  41a57c:	48 8b 75 e0          	mov    -0x20(%rbp),%rsi
  41a580:	48 8b 7d c0          	mov    -0x40(%rbp),%rdi
  41a584:	48 89 45 a8          	mov    %rax,-0x58(%rbp)
  41a588:	e8 33 29 00 00       	callq  41cec0 <_ZNSt8_Rb_treeISsSt4pairIKSsS0_ISsSsEESt10_Select1stIS3_ESt4lessISsESaIS3_EE8_M_eraseEPSt13_Rb_tree_nodeIS3_E213>
  41a58d:	e9 00 00 00 00       	jmpq   41a592 <_ZNSt8_Rb_treeISsSt4pairIKSsS0_ISsSsEESt10_Select1stIS3_ESt4lessISsESaIS3_EE7_M_copyEPKSt13_Rb_tree_nodeIS3_EPSB_82+0xb2>
  41a592:	e8 39 d1 fe ff       	callq  4076d0 <__cxa_rethrow@plt>
--
  41a686:	e9 00 00 00 00       	jmpq   41a68b <_ZNSt8_Rb_treeISsSt4pairIKSsS0_ISsSsEESt10_Select1stIS3_ESt4lessISsESaIS3_EE7_M_copyEPKSt13_Rb_tree_nodeIS3_EPSB_82+0x1ab>
  41a68b:	e9 0d 00 00 00       	jmpq   41a69d <_ZNSt8_Rb_treeISsSt4pairIKSsS0_ISsSsEESt10_Select1stIS3_ESt4lessISsESaIS3_EE7_M_copyEPKSt13_Rb_tree_nodeIS3_EPSB_82+0x1bd>
  41a690:	48 8b 45 e0          	mov    -0x20(%rbp),%rax
  41a694:	48 81 c4 90 00 00 00 	add    $0x90,%rsp
  41a69b:	5d                   	pop    %rbp
  41a69c:	c3                   	retq   
--
  41a75c:	48 8b 75 e0          	mov    -0x20(%rbp),%rsi
  41a760:	48 8b 7d c0          	mov    -0x40(%rbp),%rdi
  41a764:	48 89 45 a8          	mov    %rax,-0x58(%rbp)
  41a768:	e8 23 8b 00 00       	callq  423290 <_ZNSt8_Rb_treeISsSt4pairIKSsSsESt10_Select1stIS2_ESt4lessISsESaIS2_EE8_M_eraseEPSt13_Rb_tree_nodeIS2_E519>
  41a76d:	e9 00 00 00 00       	jmpq   41a772 <_ZNSt8_Rb_treeISsSt4pairIKSsSsESt10_Select1stIS2_ESt4lessISsESaIS2_EE7_M_copyEPKSt13_Rb_tree_nodeIS2_EPSA_83+0xb2>
  41a772:	e8 59 cf fe ff       	callq  4076d0 <__cxa_rethrow@plt>
--
  41a866:	e9 00 00 00 00       	jmpq   41a86b <_ZNSt8_Rb_treeISsSt4pairIKSsSsESt10_Select1stIS2_ESt4lessISsESaIS2_EE7_M_copyEPKSt13_Rb_tree_nodeIS2_EPSA_83+0x1ab>
  41a86b:	e9 0d 00 00 00       	jmpq   41a87d <_ZNSt8_Rb_treeISsSt4pairIKSsSsESt10_Select1stIS2_ESt4lessISsESaIS2_EE7_M_copyEPKSt13_Rb_tree_nodeIS2_EPSA_83+0x1bd>
  41a870:	48 8b 45 e0          	mov    -0x20(%rbp),%rax
  41a874:	48 81 c4 90 00 00 00 	add    $0x90,%rsp
  41a87b:	5d                   	pop    %rbp
  41a87c:	c3                   	retq   
--
  41a94e:	48 8b 7d e8          	mov    -0x18(%rbp),%rdi
  41a952:	48 8b 75 e0          	mov    -0x20(%rbp),%rsi
  41a956:	48 89 45 b0          	mov    %rax,-0x50(%rbp)
  41a95a:	e8 61 ac 00 00       	callq  4255c0 <_ZSt8_DestroyIPN5boost15program_options12basic_optionIcEEEvT_S5_643>
  41a95f:	e9 00 00 00 00       	jmpq   41a964 <_ZNSt20__uninitialized_copyILb0EE13__uninit_copyIN9__gnu_cxx17__normal_iteratorIPKN5boost15program_options12basic_optionIcEESt6vectorIS7_SaIS7_EEEEPS7_EET0_T_SG_SF_84+0xc4>
  41a964:	e8 67 cd fe ff       	callq  4076d0 <__cxa_rethrow@plt>
  41a969:	e9 38 00 00 00       	jmpq   41a9a6 <_ZNSt20__uninitialized_copyILb0EE13__uninit_copyIN9__gnu_cxx17__normal_iteratorIPKN5boost15program_options12basic_optionIcEESt6vectorIS7_SaIS7_EEEEPS7_EET0_T_SG_SF_84+0x106>
  41a96e:	48 8b 45 e0          	mov    -0x20(%rbp),%rax
  41a972:	48 83 c4 60          	add    $0x60,%rsp
  41a976:	5d                   	pop    %rbp
  41a977:	c3                   	retq   
--
  41a9d4:	48 8b 75 f8          	mov    -0x8(%rbp),%rsi
  41a9d8:	48 8d 4d c0          	lea    -0x40(%rbp),%rcx
  41a9dc:	48 89 7d a8          	mov    %rdi,-0x58(%rbp)
  41a9e0:	48 89 cf             	mov    %rcx,%rdi
  41a9e3:	48 89 45 a0          	mov    %rax,-0x60(%rbp)
  41a9e7:	e8 94 90 00 00       	callq  423a80 <_ZN5boost17enable_error_infoINS_17bad_function_callEEENS_16exception_detail29enable_error_info_return_typeIT_E4typeERKS4_544>
--
  41aa74:	48 89 7d f8          	mov    %rdi,-0x8(%rbp)
  41aa78:	48 8b 7d f8          	mov    -0x8(%rbp),%rdi
  41aa7c:	48 81 c7 20 00 00 00 	add    $0x20,%rdi
  41aa83:	48 89 f8             	mov    %rdi,%rax
  41aa86:	5d                   	pop    %rbp
  41aa87:	c3                   	retq   
--
  41ab2d:	e8 be 82 00 00       	callq  422df0 <_ZN5boost16bad_lexical_castD2Ev497>
  41ab32:	e9 0a 00 00 00       	jmpq   41ab41 <_ZN5boost6detail20lexical_cast_do_castItSsE17lexical_cast_implERKSs87+0xb1>
  41ab37:	0f b7 45 f6          	movzwl -0xa(%rbp),%eax
  41ab3b:	48 83 c4 60          	add    $0x60,%rsp
  41ab3f:	5d                   	pop    %rbp
  41ab40:	c3                   	retq   
  41ab41:	48 8b 7d b8          	mov    -0x48(%rbp),%rdi
  41ab45:	e8 16 d1 fe ff       	callq  407c60 <_Unwind_Resume@plt>
  41ab4a:	66 0f 1f 44 00 00    	nopw   0x0(%rax,%rax,1)

000000000041ab50 <_ZNK5boost16exception_detail10clone_implINS0_19error_info_injectorINS_17bad_function_callEEEE7rethrowEv88>:
--
  41ab6f:	48 89 c1             	mov    %rax,%rcx
  41ab72:	48 89 c7             	mov    %rax,%rdi
  41ab75:	48 8b 75 e0          	mov    -0x20(%rbp),%rsi
  41ab79:	48 89 4d d8          	mov    %rcx,-0x28(%rbp)
  41ab7d:	e8 3e 75 00 00       	callq  4220c0 <_ZN5boost16exception_detail10clone_implINS0_19error_info_injectorINS_17bad_function_callEEEEC1ERKS5_457>
  41ab82:	e9 00 00 00 00       	jmpq   41ab87 <_ZNK5boost16exception_detail10clone_implINS0_19error_info_injectorINS_17bad_function_callEEEE7rethrowEv88+0x37>
--
  41abe8:	48 8b 7d e0          	mov    -0x20(%rbp),%rdi
  41abec:	48 8b 75 d8          	mov    -0x28(%rbp),%rsi
  41abf0:	e8 ab fc ff ff       	callq  41a8a0 <_ZNSt20__uninitialized_copyILb0EE13__uninit_copyIN9__gnu_cxx17__normal_iteratorIPKN5boost15program_options12basic_optionIcEESt6vectorIS7_SaIS7_EEEEPS7_EET0_T_SG_SF_84>
  41abf5:	48 83 c4 30          	add    $0x30,%rsp
  41abf9:	5d                   	pop    %rbp
  41abfa:	c3                   	retq   
--
  41ac54:	e8 87 02 00 00       	callq  41aee0 <_ZNK5boost6detail8function13basic_vtable1IvRKSsE5clearERNS1_15function_bufferE102>
  41ac59:	48 8b 45 f0          	mov    -0x10(%rbp),%rax
  41ac5d:	48 c7 00 00 00 00 00 	movq   $0x0,(%rax)
  41ac64:	48 83 c4 20          	add    $0x20,%rsp
  41ac68:	5d                   	pop    %rbp
  41ac69:	c3                   	retq   
--
  41ac84:	48 8b 7d f8          	mov    -0x8(%rbp),%rdi
  41ac88:	48 8b 75 f0          	mov    -0x10(%rbp),%rsi
  41ac8c:	e8 6f 1d 00 00       	callq  41ca00 <_ZSt8_DestroyIPN5boost10shared_ptrINS0_15program_options19options_descriptionEEEEvT_S6_202>
  41ac91:	48 83 c4 20          	add    $0x20,%rsp
  41ac95:	5d                   	pop    %rbp
  41ac96:	c3                   	retq   
  41ac97:	66 0f 1f 84 00 00 00 	nopw   0x0(%rax,%rax,1)
  41ac9e:	00 00 

000000000041aca0 <_ZNK5boost16exception_detail10clone_implINS0_19error_info_injectorINS_12bad_any_castEEEE7rethrowEv92>:
--
  41acbf:	48 89 c1             	mov    %rax,%rcx
  41acc2:	48 89 c7             	mov    %rax,%rdi
  41acc5:	48 8b 75 e0          	mov    -0x20(%rbp),%rsi
  41acc9:	48 89 4d d8          	mov    %rcx,-0x28(%rbp)
  41accd:	e8 7e f3 ff ff       	callq  41a050 <_ZN5boost16exception_detail10clone_implINS0_19error_info_injectorINS_12bad_any_castEEEEC1ERKS5_69>
  41acd2:	e9 00 00 00 00       	jmpq   41acd7 <_ZNK5boost16exception_detail10clone_implINS0_19error_info_injectorINS_12bad_any_castEEEE7rethrowEv92+0x37>
--
  41ad30:	e8 cb ca fe ff       	callq  407800 <_ZNSsD1Ev@plt>
  41ad35:	48 8b 7d f0          	mov    -0x10(%rbp),%rdi
  41ad39:	e8 c2 ca fe ff       	callq  407800 <_ZNSsD1Ev@plt>
  41ad3e:	48 83 c4 10          	add    $0x10,%rsp
  41ad42:	5d                   	pop    %rbp
  41ad43:	c3                   	retq   
--
  41ad5c:	48 89 75 f0          	mov    %rsi,-0x10(%rbp)
  41ad60:	48 8b 7d f0          	mov    -0x10(%rbp),%rdi
  41ad64:	e8 27 00 00 00       	callq  41ad90 <_ZNSt13_Rb_tree_nodeISt4pairIKSsN5boost15program_options14variable_valueEEED2Ev96>
  41ad69:	48 83 c4 10          	add    $0x10,%rsp
  41ad6d:	5d                   	pop    %rbp
  41ad6e:	c3                   	retq   
--
  41ad71:	48 89 e5             	mov    %rsp,%rbp
  41ad74:	48 89 7d f8          	mov    %rdi,-0x8(%rbp)
  41ad78:	48 8b 7d f8          	mov    -0x8(%rbp),%rdi
  41ad7c:	48 89 f8             	mov    %rdi,%rax
  41ad7f:	5d                   	pop    %rbp
  41ad80:	c3                   	retq   
--
  41ad9c:	48 8b 7d f8          	mov    -0x8(%rbp),%rdi
  41ada0:	48 81 c7 20 00 00 00 	add    $0x20,%rdi
  41ada7:	e8 24 0d 00 00       	callq  41bad0 <_ZNSt4pairIKSsN5boost15program_options14variable_valueEED2Ev149>
  41adac:	48 83 c4 10          	add    $0x10,%rsp
  41adb0:	5d                   	pop    %rbp
  41adb1:	c3                   	retq   
--
  41adf7:	48 69 7d f0 48 00 00 	imul   $0x48,-0x10(%rbp),%rdi
  41adfe:	00 
  41adff:	e8 3c ce fe ff       	callq  407c40 <_Znwm@plt>
  41ae04:	48 83 c4 20          	add    $0x20,%rsp
  41ae08:	5d                   	pop    %rbp
  41ae09:	c3                   	retq   
--
  41ae11:	48 89 e5             	mov    %rsp,%rbp
  41ae14:	31 c0                	xor    %eax,%eax
  41ae16:	89 c7                	mov    %eax,%edi
  41ae18:	e8 93 ea ff ff       	callq  4198b0 <_ZN5boost15program_options5valueItEEPNS0_11typed_valueIT_cEEPS3_38>
  41ae1d:	5d                   	pop    %rbp
  41ae1e:	c3                   	retq   
--
  41ae30:	48 8b 75 f8          	mov    -0x8(%rbp),%rsi
  41ae34:	48 89 f7             	mov    %rsi,%rdi
  41ae37:	e8 f4 8c 00 00       	callq  423b30 <_ZN5boost16exception_detail19error_info_injectorINS_17bad_function_callEED2Ev548>
  41ae3c:	48 83 c4 10          	add    $0x10,%rsp
  41ae40:	5d                   	pop    %rbp
  41ae41:	c3                   	retq   
--
  41ae8b:	48 8b 45 f0          	mov    -0x10(%rbp),%rax
  41ae8f:	8b 88 88 00 00 00    	mov    0x88(%rax),%ecx
  41ae95:	89 8e 88 00 00 00    	mov    %ecx,0x88(%rsi)
  41ae9b:	48 83 c4 20          	add    $0x20,%rsp
  41ae9f:	5d                   	pop    %rbp
  41aea0:	c3                   	retq   
--
  41aec4:	48 8b 55 f0          	mov    -0x10(%rbp),%rdx
  41aec8:	48 89 d7             	mov    %rdx,%rdi
  41aecb:	e8 a0 c7 fe ff       	callq  407670 <_ZdlPv@plt>
  41aed0:	48 83 c4 20          	add    $0x20,%rsp
  41aed4:	5d                   	pop    %rbp
  41aed5:	c3                   	retq   
--
  41af11:	48 8b 7d f0          	mov    -0x10(%rbp),%rdi
  41af15:	48 8b 75 f0          	mov    -0x10(%rbp),%rsi
  41af19:	ff d1                	callq  *%rcx
  41af1b:	48 83 c4 20          	add    $0x20,%rsp
  41af1f:	5d                   	pop    %rbp
  41af20:	c3                   	retq   
--
  41af3c:	48 8b 7d f8          	mov    -0x8(%rbp),%rdi
  41af40:	48 81 c7 e8 ff ff ff 	add    $0xffffffffffffffe8,%rdi
  41af47:	e8 e4 00 00 00       	callq  41b030 <_ZN5boost16exception_detail10clone_implINS0_19error_info_injectorINS_16bad_lexical_castEEEED1Ev107>
  41af4c:	48 83 c4 10          	add    $0x10,%rsp
  41af50:	5d                   	pop    %rbp
  41af51:	c3                   	retq   
--
  41af78:	e9 00 00 00 00       	jmpq   41af7d <_ZNSt13_Bvector_baseISaIbEED2Ev104+0x1d>
  41af7d:	48 8b 7d e0          	mov    -0x20(%rbp),%rdi
  41af81:	e8 9a 82 00 00       	callq  423220 <_ZNSt13_Bvector_baseISaIbEE13_Bvector_implD2Ev516>
  41af86:	48 83 c4 20          	add    $0x20,%rsp
  41af8a:	5d                   	pop    %rbp
  41af8b:	c3                   	retq   
--
  41afc4:	48 8b 7d f8          	mov    -0x8(%rbp),%rdi
  41afc8:	48 8b 75 f0          	mov    -0x10(%rbp),%rsi
  41afcc:	e8 4f 3c 00 00       	callq  41ec20 <_ZSt8_DestroyIPN5boost10shared_ptrINS0_15program_options18option_descriptionEEEEvT_S6_316>
  41afd1:	48 83 c4 20          	add    $0x20,%rsp
  41afd5:	5d                   	pop    %rbp
  41afd6:	c3                   	retq   
--
  41b01b:	48 c1 e0 03          	shl    $0x3,%rax
  41b01f:	48 89 c7             	mov    %rax,%rdi
  41b022:	e8 19 cc fe ff       	callq  407c40 <_Znwm@plt>
  41b027:	48 83 c4 20          	add    $0x20,%rsp
  41b02b:	5d                   	pop    %rbp
  41b02c:	c3                   	retq   
--
  41b054:	48 81 c6 40 00 00 00 	add    $0x40,%rsi
  41b05b:	48 89 f7             	mov    %rsi,%rdi
  41b05e:	e8 cd 4b 00 00       	callq  41fc30 <_ZN5boost16exception_detail10clone_baseD2Ev363>
  41b063:	48 83 c4 10          	add    $0x10,%rsp
  41b067:	5d                   	pop    %rbp
  41b068:	c3                   	retq   
--
  41b094:	48 81 c6 38 00 00 00 	add    $0x38,%rsi
  41b09b:	48 89 f7             	mov    %rsi,%rdi
  41b09e:	e8 8d 4b 00 00       	callq  41fc30 <_ZN5boost16exception_detail10clone_baseD2Ev363>
  41b0a3:	48 83 c4 10          	add    $0x10,%rsp
  41b0a7:	5d                   	pop    %rbp
  41b0a8:	c3                   	retq   
--
  41b0b8:	48 89 7d f8          	mov    %rdi,-0x8(%rbp)
  41b0bc:	48 8b 7d f8          	mov    -0x8(%rbp),%rdi
  41b0c0:	e8 4b 5e 00 00       	callq  420f10 <_ZN5boost3any11placeholderD2Ev410>
  41b0c5:	48 83 c4 10          	add    $0x10,%rsp
  41b0c9:	5d                   	pop    %rbp
  41b0ca:	c3                   	retq   
--
  41b0e0:	48 8b 7d f8          	mov    -0x8(%rbp),%rdi
  41b0e4:	48 8b 75 f0          	mov    -0x10(%rbp),%rsi
  41b0e8:	e8 13 92 00 00       	callq  424300 <_ZNSt12_Destroy_auxILb0EE9__destroyIPSsEEvT_S3_578>
  41b0ed:	48 83 c4 10          	add    $0x10,%rsp
  41b0f1:	5d                   	pop    %rbp
  41b0f2:	c3                   	retq   
--
  41b108:	48 89 7d f8          	mov    %rdi,-0x8(%rbp)
  41b10c:	48 8b 7d f8          	mov    -0x8(%rbp),%rdi
  41b110:	e8 2b 01 00 00       	callq  41b240 <_ZNSt6vectorIN5boost15program_options12basic_optionIcEESaIS3_EED2Ev115>
  41b115:	48 83 c4 10          	add    $0x10,%rsp
  41b119:	5d                   	pop    %rbp
  41b11a:	c3                   	retq   
--
  41b14c:	48 8b 7d d8          	mov    -0x28(%rbp),%rdi
  41b150:	48 8b 75 d0          	mov    -0x30(%rbp),%rsi
  41b154:	e8 57 e1 ff ff       	callq  4192b0 <_ZSt18uninitialized_copyIN9__gnu_cxx17__normal_iteratorIPKSsSt6vectorISsSaISsEEEEPSsET0_T_SA_S9_12>
  41b159:	48 83 c4 30          	add    $0x30,%rsp
  41b15d:	5d                   	pop    %rbp
  41b15e:	c3                   	retq   
--
  41b17c:	48 89 f7             	mov    %rsi,%rdi
  41b17f:	48 8b 75 e8          	mov    -0x18(%rbp),%rsi
  41b183:	e8 78 15 00 00       	callq  41c700 <_ZNSt10_Head_baseILm0ERKSsLb0EEC2ES1_189>
  41b188:	48 83 c4 20          	add    $0x20,%rsp
  41b18c:	5d                   	pop    %rbp
  41b18d:	c3                   	retq   
--
  41b1eb:	e8 10 c6 fe ff       	callq  407800 <_ZNSsD1Ev@plt>
  41b1f0:	48 8d 7d e0          	lea    -0x20(%rbp),%rdi
  41b1f4:	e8 97 c8 fe ff       	callq  407a90 <_ZNSaIcED1Ev@plt>
  41b1f9:	48 83 c4 40          	add    $0x40,%rsp
  41b1fd:	5d                   	pop    %rbp
  41b1fe:	c3                   	retq   
--
  41b27c:	48 8b 45 d8          	mov    -0x28(%rbp),%rax
  41b280:	48 89 c7             	mov    %rax,%rdi
  41b283:	e8 38 b5 00 00       	callq  4267c0 <_ZNSt12_Vector_baseIN5boost15program_options12basic_optionIcEESaIS3_EED2Ev686>
  41b288:	48 83 c4 30          	add    $0x30,%rsp
  41b28c:	5d                   	pop    %rbp
  41b28d:	c3                   	retq   
--
  41b2c4:	e8 37 e8 ff ff       	callq  419b00 <_ZN5boost16exception_detail10clone_implINS0_19error_info_injectorINS_15program_options16validation_errorEEEED1Ev49>
  41b2c9:	48 8b 7d f0          	mov    -0x10(%rbp),%rdi
  41b2cd:	e8 9e c3 fe ff       	callq  407670 <_ZdlPv@plt>
  41b2d2:	48 83 c4 10          	add    $0x10,%rsp
  41b2d6:	5d                   	pop    %rbp
  41b2d7:	c3                   	retq   
--
  41b2f1:	48 89 7d f8          	mov    %rdi,-0x8(%rbp)
  41b2f5:	48 89 75 f0          	mov    %rsi,-0x10(%rbp)
  41b2f9:	48 8b 75 f8          	mov    -0x8(%rbp),%rsi
  41b2fd:	48 89 06             	mov    %rax,(%rsi)
  41b300:	5d                   	pop    %rbp
  41b301:	c3                   	retq   
--
  41b31c:	48 8b 7d f8          	mov    -0x8(%rbp),%rdi
  41b320:	48 81 c7 f8 ff ff ff 	add    $0xfffffffffffffff8,%rdi
  41b327:	e8 44 01 00 00       	callq  41b470 <_ZN5boost16exception_detail10clone_implINS0_19error_info_injectorINS_12bad_any_castEEEED0Ev124>
  41b32c:	48 83 c4 10          	add    $0x10,%rsp
  41b330:	5d                   	pop    %rbp
  41b331:	c3                   	retq   
--
  41b350:	48 8b 75 f8          	mov    -0x8(%rbp),%rsi
  41b354:	48 89 f7             	mov    %rsi,%rdi
  41b357:	e8 44 9b 00 00       	callq  424ea0 <_ZN5boost16exception_detail19error_info_injectorINS_16bad_lexical_castEED2Ev615>
  41b35c:	48 83 c4 10          	add    $0x10,%rsp
  41b360:	5d                   	pop    %rbp
  41b361:	c3                   	retq   
--
  41b39b:	48 8b 7d d0          	mov    -0x30(%rbp),%rdi
  41b39f:	e8 fc 9b 00 00       	callq  424fa0 <_ZNSt12_Vector_baseIN5boost15program_options12basic_optionIcEESaIS3_EE17_M_create_storageEm619>
  41b3a4:	e9 00 00 00 00       	jmpq   41b3a9 <_ZNSt12_Vector_baseIN5boost15program_options12basic_optionIcEESaIS3_EEC2EmRKS4_120+0x39>
  41b3a9:	48 83 c4 30          	add    $0x30,%rsp
  41b3ad:	5d                   	pop    %rbp
  41b3ae:	c3                   	retq   
--
  41b3d8:	48 89 7d f8          	mov    %rdi,-0x8(%rbp)
  41b3dc:	48 8b 7d f8          	mov    -0x8(%rbp),%rdi
  41b3e0:	e8 ab e4 ff ff       	callq  419890 <_ZN5boost13function_baseC2Ev37>
  41b3e5:	48 83 c4 10          	add    $0x10,%rsp
  41b3e9:	5d                   	pop    %rbp
  41b3ea:	c3                   	retq   
--
  41b427:	48 69 7d f0 30 00 00 	imul   $0x30,-0x10(%rbp),%rdi
  41b42e:	00 
  41b42f:	e8 0c c8 fe ff       	callq  407c40 <_Znwm@plt>
  41b434:	48 83 c4 20          	add    $0x20,%rsp
  41b438:	5d                   	pop    %rbp
  41b439:	c3                   	retq   
--
  41b44c:	48 8b 7d f8          	mov    -0x8(%rbp),%rdi
  41b450:	48 81 c7 f8 ff ff ff 	add    $0xfffffffffffffff8,%rdi
  41b457:	e8 94 1d 00 00       	callq  41d1f0 <_ZNK5boost15program_options11typed_valueItcE10value_typeEv227>
  41b45c:	48 83 c4 10          	add    $0x10,%rsp
  41b460:	5d                   	pop    %rbp
  41b461:	c3                   	retq   
--
  41b484:	e8 c7 44 00 00       	callq  41f950 <_ZN5boost16exception_detail10clone_implINS0_19error_info_injectorINS_12bad_any_castEEEED1Ev351>
  41b489:	48 8b 7d f0          	mov    -0x10(%rbp),%rdi
  41b48d:	e8 de c1 fe ff       	callq  407670 <_ZdlPv@plt>
  41b492:	48 83 c4 10          	add    $0x10,%rsp
  41b496:	5d                   	pop    %rbp
  41b497:	c3                   	retq   
--
  41b4d1:	48 8b 75 d8          	mov    -0x28(%rbp),%rsi
  41b4d5:	48 89 c2             	mov    %rax,%rdx
  41b4d8:	e8 03 4b 00 00       	callq  41ffe0 <_ZN9__gnu_cxx13new_allocatorISt13_Rb_tree_nodeISt4pairIKSsS2_ISsSsEEEE9constructIS6_JRKS5_EEEvPT_DpOT0_369>
  41b4dd:	48 83 c4 30          	add    $0x30,%rsp
  41b4e1:	5d                   	pop    %rbp
  41b4e2:	c3                   	retq   
--
000000000041b4f0 <_ZN9__gnu_cxx13new_allocatorIN5boost10shared_ptrINS1_15program_options19options_descriptionEEEED2Ev126>:
  41b4f0:	55                   	push   %rbp
  41b4f1:	48 89 e5             	mov    %rsp,%rbp
  41b4f4:	48 89 7d f8          	mov    %rdi,-0x8(%rbp)
  41b4f8:	5d                   	pop    %rbp
  41b4f9:	c3                   	retq   
--
  41b534:	48 8b 55 f0          	mov    -0x10(%rbp),%rdx
  41b538:	48 89 d7             	mov    %rdx,%rdi
  41b53b:	e8 30 c1 fe ff       	callq  407670 <_ZdlPv@plt>
  41b540:	48 83 c4 20          	add    $0x20,%rsp
  41b544:	5d                   	pop    %rbp
  41b545:	c3                   	retq   
--
  41b56a:	48 29 fa             	sub    %rdi,%rdx
  41b56d:	48 89 d0             	mov    %rdx,%rax
  41b570:	48 99                	cqto   
  41b572:	48 f7 f9             	idiv   %rcx
  41b575:	5d                   	pop    %rbp
  41b576:	c3                   	retq   
--
  41b587:	89 75 f8             	mov    %esi,-0x8(%rbp)
  41b58a:	8b 75 fc             	mov    -0x4(%rbp),%esi
  41b58d:	0b 75 f8             	or     -0x8(%rbp),%esi
  41b590:	89 f0                	mov    %esi,%eax
  41b592:	5d                   	pop    %rbp
  41b593:	c3                   	retq   
--
  41b5ac:	48 89 75 f0          	mov    %rsi,-0x10(%rbp)
  41b5b0:	48 8b 7d f0          	mov    -0x10(%rbp),%rdi
  41b5b4:	e8 27 dc ff ff       	callq  4191e0 <_ZNSt13_Rb_tree_nodeISt4pairIKSsSsEED2Ev6>
  41b5b9:	48 83 c4 10          	add    $0x10,%rsp
  41b5bd:	5d                   	pop    %rbp
  41b5be:	c3                   	retq   
--
  41b61b:	8a 45 ff             	mov    -0x1(%rbp),%al
  41b61e:	24 01                	and    $0x1,%al
  41b620:	0f b6 c0             	movzbl %al,%eax
  41b623:	48 83 c4 30          	add    $0x30,%rsp
  41b627:	5d                   	pop    %rbp
  41b628:	c3                   	retq   
--
  41b662:	e8 b9 86 00 00       	callq  423d20 <_ZN5boost9function1ISt4pairISsSsERKSsED2Ev555>
  41b667:	48 8b 7d f0          	mov    -0x10(%rbp),%rdi
  41b66b:	e8 90 21 00 00       	callq  41d800 <_ZNSt6vectorISsSaISsEED2Ev244>
  41b670:	48 83 c4 10          	add    $0x10,%rsp
  41b674:	5d                   	pop    %rbp
  41b675:	c3                   	retq   
--
  41b6b1:	48 8b 7d f0          	mov    -0x10(%rbp),%rdi
  41b6b5:	48 8b 75 f0          	mov    -0x10(%rbp),%rsi
  41b6b9:	ff d1                	callq  *%rcx
  41b6bb:	48 83 c4 20          	add    $0x20,%rsp
  41b6bf:	5d                   	pop    %rbp
  41b6c0:	c3                   	retq   
  41b6c1:	66 2e 0f 1f 84 00 00 	nopw   %cs:0x0(%rax,%rax,1)
  41b6c8:	00 00 00 
  41b6cb:	0f 1f 44 00 00       	nopl   0x0(%rax,%rax,1)

000000000041b6d0 <_ZNK5boost16exception_detail10clone_implINS0_19error_info_injectorINS_15program_options16validation_errorEEEE7rethrowEv135>:
--
  41b6ef:	48 89 c1             	mov    %rax,%rcx
  41b6f2:	48 89 c7             	mov    %rax,%rdi
  41b6f5:	48 8b 75 e0          	mov    -0x20(%rbp),%rsi
  41b6f9:	48 89 4d d8          	mov    %rcx,-0x28(%rbp)
  41b6fd:	e8 1e 81 00 00       	callq  423820 <_ZN5boost16exception_detail10clone_implINS0_19error_info_injectorINS_15program_options16validation_errorEEEEC1ERKS6_539>
  41b702:	e9 00 00 00 00       	jmpq   41b707 <_ZNK5boost16exception_detail10clone_implINS0_19error_info_injectorINS_15program_options16validation_errorEEEE7rethrowEv135+0x37>
--
  41b740:	55                   	push   %rbp
  41b741:	48 89 e5             	mov    %rsp,%rbp
  41b744:	48 8d 05 7c b7 00 00 	lea    0xb77c(%rip),%rax        # 426ec7 <_IO_stdin_used+0x2c7>
  41b74b:	48 89 7d f8          	mov    %rdi,-0x8(%rbp)
  41b74f:	5d                   	pop    %rbp
  41b750:	c3                   	retq   
--
  41b768:	48 89 7d f8          	mov    %rdi,-0x8(%rbp)
  41b76c:	48 8b 7d f8          	mov    -0x8(%rbp),%rdi
  41b770:	e8 8b c0 fe ff       	callq  407800 <_ZNSsD1Ev@plt>
  41b775:	48 83 c4 10          	add    $0x10,%rsp
  41b779:	5d                   	pop    %rbp
  41b77a:	c3                   	retq   
--
  41b781:	48 89 e5             	mov    %rsp,%rbp
  41b784:	48 89 7d f8          	mov    %rdi,-0x8(%rbp)
  41b788:	48 8b 7d f8          	mov    -0x8(%rbp),%rdi
  41b78c:	48 89 f8             	mov    %rdi,%rax
  41b78f:	5d                   	pop    %rbp
  41b790:	c3                   	retq   
--
  41b7a1:	48 89 e5             	mov    %rsp,%rbp
  41b7a4:	48 89 7d f8          	mov    %rdi,-0x8(%rbp)
  41b7a8:	48 8b 7d f8          	mov    -0x8(%rbp),%rdi
  41b7ac:	48 89 f8             	mov    %rdi,%rax
  41b7af:	5d                   	pop    %rbp
  41b7b0:	c3                   	retq   
--
  41b86e:	48 8b 7d e8          	mov    -0x18(%rbp),%rdi
  41b872:	48 8b 75 e0          	mov    -0x20(%rbp),%rsi
  41b876:	48 89 45 b0          	mov    %rax,-0x50(%rbp)
  41b87a:	e8 51 f8 ff ff       	callq  41b0d0 <_ZSt8_DestroyIPSsEvT_S1_110>
  41b87f:	e9 00 00 00 00       	jmpq   41b884 <_ZNSt20__uninitialized_copyILb0EE13__uninit_copyIN9__gnu_cxx17__normal_iteratorIPKSsSt6vectorISsSaISsEEEEPSsEET0_T_SC_SB_140+0xc4>
  41b884:	e8 47 be fe ff       	callq  4076d0 <__cxa_rethrow@plt>
  41b889:	e9 38 00 00 00       	jmpq   41b8c6 <_ZNSt20__uninitialized_copyILb0EE13__uninit_copyIN9__gnu_cxx17__normal_iteratorIPKSsSt6vectorISsSaISsEEEEPSsEET0_T_SC_SB_140+0x106>
  41b88e:	48 8b 45 e0          	mov    -0x20(%rbp),%rax
  41b892:	48 83 c4 60          	add    $0x60,%rsp
  41b896:	5d                   	pop    %rbp
  41b897:	c3                   	retq   
--
  41b904:	48 8b 75 d0          	mov    -0x30(%rbp),%rsi
  41b908:	e8 83 be fe ff       	callq  407790 <_ZNSsC1ERKSs@plt>
  41b90d:	e9 00 00 00 00       	jmpq   41b912 <_ZNSt4pairIKSsSsEC2ERKS1_141+0x42>
  41b912:	48 83 c4 30          	add    $0x30,%rsp
  41b916:	5d                   	pop    %rbp
  41b917:	c3                   	retq   
--
  41b9aa:	48 89 06             	mov    %rax,(%rsi)
  41b9ad:	48 89 96 90 00 00 00 	mov    %rdx,0x90(%rsi)
  41b9b4:	48 89 8e b8 00 00 00 	mov    %rcx,0xb8(%rsi)
  41b9bb:	48 83 c4 30          	add    $0x30,%rsp
  41b9bf:	5d                   	pop    %rbp
  41b9c0:	c3                   	retq   
--
  41b9f0:	55                   	push   %rbp
  41b9f1:	48 89 e5             	mov    %rsp,%rbp
  41b9f4:	48 89 7d f8          	mov    %rdi,-0x8(%rbp)
  41b9f8:	48 8b 45 f8          	mov    -0x8(%rbp),%rax
  41b9fc:	5d                   	pop    %rbp
  41b9fd:	c3                   	retq   
--
  41ba0c:	48 8b 7d f8          	mov    -0x8(%rbp),%rdi
  41ba10:	48 81 c7 70 ff ff ff 	add    $0xffffffffffffff70,%rdi
  41ba17:	e8 e4 2e 00 00       	callq  41e900 <_ZN5boost16exception_detail10clone_implINS0_19error_info_injectorINS_15program_options20invalid_option_valueEEEED1Ev306>
  41ba1c:	48 83 c4 10          	add    $0x10,%rsp
  41ba20:	5d                   	pop    %rbp
  41ba21:	c3                   	retq   
--
  41ba34:	48 89 7d f8          	mov    %rdi,-0x8(%rbp)
  41ba38:	48 8b 7d f8          	mov    -0x8(%rbp),%rdi
  41ba3c:	48 81 c7 20 00 00 00 	add    $0x20,%rdi
  41ba43:	48 89 f8             	mov    %rdi,%rax
  41ba46:	5d                   	pop    %rbp
  41ba47:	c3                   	retq   
--
  41ba80:	0f 95 c1             	setne  %cl
  41ba83:	80 e1 01             	and    $0x1,%cl
  41ba86:	0f b6 c1             	movzbl %cl,%eax
  41ba89:	48 83 c4 20          	add    $0x20,%rsp
  41ba8d:	5d                   	pop    %rbp
  41ba8e:	c3                   	retq   
--
  41ba94:	48 89 7d f8          	mov    %rdi,-0x8(%rbp)
  41ba98:	48 8b 7d f8          	mov    -0x8(%rbp),%rdi
  41ba9c:	48 81 c7 20 00 00 00 	add    $0x20,%rdi
  41baa3:	48 89 f8             	mov    %rdi,%rax
  41baa6:	5d                   	pop    %rbp
  41baa7:	c3                   	retq   
--
  41bab4:	48 89 7d f8          	mov    %rdi,-0x8(%rbp)
  41bab8:	48 8b 7d f8          	mov    -0x8(%rbp),%rdi
  41babc:	48 8b 7f 10          	mov    0x10(%rdi),%rdi
  41bac0:	48 89 f8             	mov    %rdi,%rax
  41bac3:	5d                   	pop    %rbp
  41bac4:	c3                   	retq   
--
  41baf0:	e8 eb dc ff ff       	callq  4197e0 <_ZN5boost15program_options14variable_valueD2Ev34>
  41baf5:	48 8b 7d f0          	mov    -0x10(%rbp),%rdi
  41baf9:	e8 02 bd fe ff       	callq  407800 <_ZNSsD1Ev@plt>
  41bafe:	48 83 c4 10          	add    $0x10,%rsp
  41bb02:	5d                   	pop    %rbp
  41bb03:	c3                   	retq   
--
  41bb4f:	e9 07 00 00 00       	jmpq   41bb5b <_ZNK5boost15program_options11typed_valueItcE10min_tokensEv150+0x4b>
  41bb54:	c7 45 fc 01 00 00 00 	movl   $0x1,-0x4(%rbp)
  41bb5b:	8b 45 fc             	mov    -0x4(%rbp),%eax
  41bb5e:	48 83 c4 20          	add    $0x20,%rsp
  41bb62:	5d                   	pop    %rbp
  41bb63:	c3                   	retq   
--
  41bb84:	e8 e7 f4 ff ff       	callq  41b070 <_ZN5boost16exception_detail10clone_implINS0_19error_info_injectorINS_17bad_function_callEEEED1Ev108>
  41bb89:	48 8b 7d f0          	mov    -0x10(%rbp),%rdi
  41bb8d:	e8 de ba fe ff       	callq  407670 <_ZdlPv@plt>
  41bb92:	48 83 c4 10          	add    $0x10,%rsp
  41bb96:	5d                   	pop    %rbp
  41bb97:	c3                   	retq   
--
  41bba8:	48 89 7d f8          	mov    %rdi,-0x8(%rbp)
  41bbac:	48 8b 7d f8          	mov    -0x8(%rbp),%rdi
  41bbb0:	e8 fb 77 00 00       	callq  4233b0 <_ZN9__gnu_cxx13new_allocatorISsEC2Ev526>
  41bbb5:	48 83 c4 10          	add    $0x10,%rsp
  41bbb9:	5d                   	pop    %rbp
  41bbba:	c3                   	retq   
--
  41bbe8:	e8 f3 92 00 00       	callq  424ee0 <_ZN5boost6detail15sp_counted_base7releaseEv616>
  41bbed:	e9 00 00 00 00       	jmpq   41bbf2 <_ZN5boost6detail12shared_countD2Ev153+0x32>
  41bbf2:	e9 00 00 00 00       	jmpq   41bbf7 <_ZN5boost6detail12shared_countD2Ev153+0x37>
  41bbf7:	48 83 c4 20          	add    $0x20,%rsp
  41bbfb:	5d                   	pop    %rbp
  41bbfc:	c3                   	retq   
--
  41bc11:	48 89 e5             	mov    %rsp,%rbp
  41bc14:	48 b8 ff ff ff ff ff 	movabs $0x1fffffffffffffff,%rax
  41bc1b:	ff ff 1f 
  41bc1e:	48 89 7d f8          	mov    %rdi,-0x8(%rbp)
  41bc22:	5d                   	pop    %rbp
  41bc23:	c3                   	retq   
--
  41bc44:	48 8b 55 f0          	mov    -0x10(%rbp),%rdx
  41bc48:	48 89 d7             	mov    %rdx,%rdi
  41bc4b:	e8 20 ba fe ff       	callq  407670 <_ZdlPv@plt>
  41bc50:	48 83 c4 20          	add    $0x20,%rsp
  41bc54:	5d                   	pop    %rbp
  41bc55:	c3                   	retq   
--
  41bc68:	48 89 7d f8          	mov    %rdi,-0x8(%rbp)
  41bc6c:	48 8b 7d f8          	mov    -0x8(%rbp),%rdi
  41bc70:	e8 6b d8 ff ff       	callq  4194e0 <_ZNSt18_Rb_tree_node_base10_S_maximumEPS_18>
  41bc75:	48 83 c4 10          	add    $0x10,%rsp
  41bc79:	5d                   	pop    %rbp
  41bc7a:	c3                   	retq   
--
  41bc8c:	48 8b 7d f8          	mov    -0x8(%rbp),%rdi
  41bc90:	48 81 c7 e8 ff ff ff 	add    $0xffffffffffffffe8,%rdi
  41bc97:	e8 34 3c 00 00       	callq  41f8d0 <_ZN5boost16exception_detail19error_info_injectorINS_16bad_lexical_castEED0Ev348>
  41bc9c:	48 83 c4 10          	add    $0x10,%rsp
  41bca0:	5d                   	pop    %rbp
  41bca1:	c3                   	retq   
--
  41bccc:	48 89 f7             	mov    %rsi,%rdi
  41bccf:	48 8b 75 e8          	mov    -0x18(%rbp),%rsi
  41bcd3:	e8 d8 63 00 00       	callq  4220b0 <_ZN9__gnu_cxx13new_allocatorISsEC2ERKS1_456>
  41bcd8:	48 83 c4 20          	add    $0x20,%rsp
  41bcdc:	5d                   	pop    %rbp
  41bcdd:	c3                   	retq   
--
  41bcec:	48 8b 7d f8          	mov    -0x8(%rbp),%rdi
  41bcf0:	48 81 c7 08 00 00 00 	add    $0x8,%rdi
  41bcf7:	e8 c4 fe ff ff       	callq  41bbc0 <_ZN5boost6detail12shared_countD2Ev153>
  41bcfc:	48 83 c4 10          	add    $0x10,%rsp
  41bd00:	5d                   	pop    %rbp
  41bd01:	c3                   	retq   
--
  41bd18:	48 89 7d f8          	mov    %rdi,-0x8(%rbp)
  41bd1c:	48 8b 7d f8          	mov    -0x8(%rbp),%rdi
  41bd20:	e8 6b da ff ff       	callq  419790 <_ZN5boost15program_options12basic_optionIcED2Ev32>
  41bd25:	48 83 c4 10          	add    $0x10,%rsp
  41bd29:	5d                   	pop    %rbp
  41bd2a:	c3                   	retq   
--
  41bd5f:	48 89 c7             	mov    %rax,%rdi
  41bd62:	e8 29 bf fe ff       	callq  407c90 <_ZNSsaSERKSs@plt>
  41bd67:	48 89 45 e0          	mov    %rax,-0x20(%rbp)
  41bd6b:	48 83 c4 20          	add    $0x20,%rsp
  41bd6f:	5d                   	pop    %rbp
  41bd70:	c3                   	retq   
--
000000000041bd80 <_ZN9__gnu_cxx13new_allocatorImED2Ev162>:
  41bd80:	55                   	push   %rbp
  41bd81:	48 89 e5             	mov    %rsp,%rbp
  41bd84:	48 89 7d f8          	mov    %rdi,-0x8(%rbp)
  41bd88:	5d                   	pop    %rbp
  41bd89:	c3                   	retq   
--
  41bdb5:	48 8b 45 f0          	mov    -0x10(%rbp),%rax
  41bdb9:	48 89 c7             	mov    %rax,%rdi
  41bdbc:	e8 1f dd ff ff       	callq  419ae0 <_ZN5boost15program_options16validation_errorD2Ev48>
  41bdc1:	48 83 c4 10          	add    $0x10,%rsp
  41bdc5:	5d                   	pop    %rbp
  41bdc6:	c3                   	retq   
--
  41bde6:	48 03 47 e8          	add    -0x18(%rdi),%rax
  41bdea:	48 89 c7             	mov    %rax,%rdi
  41bded:	e8 ae 3d 00 00       	callq  41fba0 <_ZNK5boost16exception_detail10clone_implINS0_19error_info_injectorINS_12bad_any_castEEEE5cloneEv362>
  41bdf2:	48 83 c4 10          	add    $0x10,%rsp
  41bdf6:	5d                   	pop    %rbp
  41bdf7:	c3                   	retq   
--
  41be76:	48 89 4d e0          	mov    %rcx,-0x20(%rbp)
  41be7a:	e9 00 00 00 00       	jmpq   41be7f <_ZN5boost8any_castItEEPT_PNS_3anyE165+0x7f>
  41be7f:	48 8b 45 e0          	mov    -0x20(%rbp),%rax
  41be83:	48 83 c4 30          	add    $0x30,%rsp
  41be87:	5d                   	pop    %rbp
  41be88:	c3                   	retq   
--
  41beb3:	0f 95 c0             	setne  %al
  41beb6:	34 01                	xor    $0x1,%al
  41beb8:	24 01                	and    $0x1,%al
  41beba:	0f b6 c0             	movzbl %al,%eax
  41bebd:	5d                   	pop    %rbp
  41bebe:	c3                   	retq   
--
  41bf07:	48 89 4d e0          	mov    %rcx,-0x20(%rbp)
  41bf0b:	e9 00 00 00 00       	jmpq   41bf10 <_ZNSt12_Vector_baseISsSaISsEE11_M_allocateEm168+0x50>
  41bf10:	48 8b 45 e0          	mov    -0x20(%rbp),%rax
  41bf14:	48 83 c4 20          	add    $0x20,%rsp
  41bf18:	5d                   	pop    %rbp
  41bf19:	c3                   	retq   
--
  41bf4c:	48 8b 75 f0          	mov    -0x10(%rbp),%rsi
  41bf50:	48 8b 7d e8          	mov    -0x18(%rbp),%rdi
  41bf54:	e8 27 de ff ff       	callq  419d80 <_ZNSt8_Rb_treeISsSt4pairIKSsS0_ISsSsEESt10_Select1stIS3_ESt4lessISsESaIS3_EE11_M_put_nodeEPSt13_Rb_tree_nodeIS3_E61>
  41bf59:	48 83 c4 20          	add    $0x20,%rsp
  41bf5d:	5d                   	pop    %rbp
  41bf5e:	c3                   	retq   
--
  41c0c3:	e8 98 3a 00 00       	callq  41fb60 <_ZNSt4pairIPSt18_Rb_tree_node_baseS1_EC2IRS1_vEEOT_RKS1_361>
  41c0c8:	48 8b 45 f0          	mov    -0x10(%rbp),%rax
  41c0cc:	48 8b 55 f8          	mov    -0x8(%rbp),%rdx
  41c0d0:	48 83 c4 70          	add    $0x70,%rsp
  41c0d4:	5d                   	pop    %rbp
  41c0d5:	c3                   	retq   
--
  41c0e0:	55                   	push   %rbp
  41c0e1:	48 89 e5             	mov    %rsp,%rbp
  41c0e4:	48 89 7d f8          	mov    %rdi,-0x8(%rbp)
  41c0e8:	48 89 75 f0          	mov    %rsi,-0x10(%rbp)
  41c0ec:	5d                   	pop    %rbp
  41c0ed:	c3                   	retq   
--
  41c186:	c7 45 a8 01 00 00 00 	movl   $0x1,-0x58(%rbp)
  41c18d:	e8 6e ef ff ff       	callq  41b100 <_ZN5boost15program_options20basic_parsed_optionsIcED2Ev111>
  41c192:	48 8b 45 98          	mov    -0x68(%rbp),%rax
  41c196:	48 81 c4 90 00 00 00 	add    $0x90,%rsp
  41c19d:	5d                   	pop    %rbp
  41c19e:	c3                   	retq   
--
  41c1c8:	48 89 7d f8          	mov    %rdi,-0x8(%rbp)
  41c1cc:	48 8b 7d f8          	mov    -0x8(%rbp),%rdi
  41c1d0:	e8 bb 6e 00 00       	callq  423090 <_ZNSaISt13_Rb_tree_nodeISsEED2Ev509>
  41c1d5:	48 83 c4 10          	add    $0x10,%rsp
  41c1d9:	5d                   	pop    %rbp
  41c1da:	c3                   	retq   
--
  41c21c:	e8 af 68 00 00       	callq  422ad0 <_ZNSt8_Rb_treeISsSt4pairIKSsSsESt10_Select1stIS2_ESt4lessISsESaIS2_EE14_M_lower_boundEPSt13_Rb_tree_nodeIS2_ESB_RS1_486>
  41c221:	48 89 45 f8          	mov    %rax,-0x8(%rbp)
  41c225:	48 8b 45 f8          	mov    -0x8(%rbp),%rax
  41c229:	48 83 c4 30          	add    $0x30,%rsp
  41c22d:	5d                   	pop    %rbp
  41c22e:	c3                   	retq   
--
  41c23c:	48 8b 7d f8          	mov    -0x8(%rbp),%rdi
  41c240:	48 81 c7 70 ff ff ff 	add    $0xffffffffffffff70,%rdi
  41c247:	e8 c4 2f 00 00       	callq  41f210 <_ZN5boost16exception_detail19error_info_injectorINS_15program_options20invalid_option_valueEED2Ev329>
  41c24c:	48 83 c4 10          	add    $0x10,%rsp
  41c250:	5d                   	pop    %rbp
  41c251:	c3                   	retq   
--
  41c275:	48 8d 7d f0          	lea    -0x10(%rbp),%rdi
  41c279:	48 89 45 f0          	mov    %rax,-0x10(%rbp)
  41c27d:	e8 1e 45 00 00       	callq  4207a0 <_ZNK9__gnu_cxx17__normal_iteratorIPKSsSt6vectorISsSaISsEEEdeEv399>
  41c282:	48 83 c4 10          	add    $0x10,%rsp
  41c286:	5d                   	pop    %rbp
  41c287:	c3                   	retq   
--
  41c298:	48 89 7d f8          	mov    %rdi,-0x8(%rbp)
  41c29c:	48 8b 7d f8          	mov    -0x8(%rbp),%rdi
  41c2a0:	e8 3b 28 00 00       	callq  41eae0 <_ZN5boost8any_castIRKSsEET_RKNS_3anyE314>
  41c2a5:	48 83 c4 10          	add    $0x10,%rsp
  41c2a9:	5d                   	pop    %rbp
  41c2aa:	c3                   	retq   
--
  41c2d8:	48 8b 11             	mov    (%rcx),%rdx
  41c2db:	48 89 cf             	mov    %rcx,%rdi
  41c2de:	ff 52 18             	callq  *0x18(%rdx)
  41c2e1:	48 83 c4 10          	add    $0x10,%rsp
  41c2e5:	5d                   	pop    %rbp
  41c2e6:	c3                   	retq   
--
  41c30d:	34 01                	xor    $0x1,%al
  41c30f:	24 01                	and    $0x1,%al
  41c311:	0f b6 c0             	movzbl %al,%eax
  41c314:	48 83 c4 10          	add    $0x10,%rsp
  41c318:	5d                   	pop    %rbp
  41c319:	c3                   	retq   
--
  41c328:	48 89 7d f8          	mov    %rdi,-0x8(%rbp)
  41c32c:	48 8b 7d f8          	mov    -0x8(%rbp),%rdi
  41c330:	e8 0b d8 ff ff       	callq  419b40 <_ZN9__gnu_cxx13new_allocatorIN5boost15program_options12basic_optionIcEEED2Ev50>
  41c335:	48 83 c4 10          	add    $0x10,%rsp
  41c339:	5d                   	pop    %rbp
  41c33a:	c3                   	retq   
--
  41c344:	48 89 7d f8          	mov    %rdi,-0x8(%rbp)
  41c348:	48 8b 7d f8          	mov    -0x8(%rbp),%rdi
  41c34c:	48 8b 7f 10          	mov    0x10(%rdi),%rdi
  41c350:	48 89 f8             	mov    %rdi,%rax
  41c353:	5d                   	pop    %rbp
  41c354:	c3                   	retq   
--
  41c40f:	48 8b 45 f0          	mov    -0x10(%rbp),%rax
  41c413:	48 89 c7             	mov    %rax,%rdi
  41c416:	e8 95 7a 00 00       	callq  423eb0 <_ZN5boost15program_options29value_semantic_codecvt_helperIcED2Ev562>
  41c41b:	48 83 c4 10          	add    $0x10,%rsp
  41c41f:	5d                   	pop    %rbp
  41c420:	c3                   	retq   
--
  41c4b6:	e9 00 00 00 00       	jmpq   41c4bb <_ZNSt6vectorIN5boost15program_options12basic_optionIcEESaIS3_EE14_M_move_assignEOS5_St17integral_constantIbLb1EE183+0x8b>
  41c4bb:	48 8d 7d d0          	lea    -0x30(%rbp),%rdi
  41c4bf:	e8 7c ed ff ff       	callq  41b240 <_ZNSt6vectorIN5boost15program_options12basic_optionIcEESaIS3_EED2Ev115>
  41c4c4:	48 83 c4 60          	add    $0x60,%rsp
  41c4c8:	5d                   	pop    %rbp
  41c4c9:	c3                   	retq   
--
  41c5ae:	48 89 c6             	mov    %rax,%rsi
  41c5b1:	e8 4a 25 00 00       	callq  41eb00 <_ZN5boost16exception_detail20copy_boost_exceptionEPNS_9exceptionEPKS1_315>
  41c5b6:	e9 00 00 00 00       	jmpq   41c5bb <_ZN5boost16exception_detail10clone_implINS0_19error_info_injectorINS_15program_options20invalid_option_valueEEEEC1ERKS5_184+0xbb>
  41c5bb:	48 83 c4 40          	add    $0x40,%rsp
  41c5bf:	5d                   	pop    %rbp
  41c5c0:	c3                   	retq   
--
  41c613:	48 89 45 f0          	mov    %rax,-0x10(%rbp)
  41c617:	e8 e4 fe ff ff       	callq  41c500 <_ZN5boost16exception_detail10clone_implINS0_19error_info_injectorINS_15program_options20invalid_option_valueEEEEC1ERKS5_184>
  41c61c:	48 8b 45 f0          	mov    -0x10(%rbp),%rax
  41c620:	48 83 c4 10          	add    $0x10,%rsp
  41c624:	5d                   	pop    %rbp
  41c625:	c3                   	retq   
--
  41c63c:	48 8b 7d f8          	mov    -0x8(%rbp),%rdi
  41c640:	48 81 c7 e8 ff ff ff 	add    $0xffffffffffffffe8,%rdi
  41c647:	e8 f4 7a 00 00       	callq  424140 <_ZN5boost16exception_detail10clone_implINS0_19error_info_injectorINS_16bad_lexical_castEEEED0Ev567>
  41c64c:	48 83 c4 10          	add    $0x10,%rsp
  41c650:	5d                   	pop    %rbp
  41c651:	c3                   	retq   
--
  41c660:	55                   	push   %rbp
  41c661:	48 89 e5             	mov    %rsp,%rbp
  41c664:	48 89 7d f8          	mov    %rdi,-0x8(%rbp)
  41c668:	48 8b 45 f8          	mov    -0x8(%rbp),%rax
  41c66c:	5d                   	pop    %rbp
  41c66d:	c3                   	retq   
--
  41c6e3:	48 81 c7 08 00 00 00 	add    $0x8,%rdi
  41c6ea:	48 8b 75 f0          	mov    -0x10(%rbp),%rsi
  41c6ee:	ff d0                	callq  *%rax
  41c6f0:	48 83 c4 40          	add    $0x40,%rsp
  41c6f4:	5d                   	pop    %rbp
  41c6f5:	c3                   	retq   
--
  41c708:	48 89 75 f0          	mov    %rsi,-0x10(%rbp)
  41c70c:	48 8b 75 f8          	mov    -0x8(%rbp),%rsi
  41c710:	48 8b 7d f0          	mov    -0x10(%rbp),%rdi
  41c714:	48 89 3e             	mov    %rdi,(%rsi)
  41c717:	5d                   	pop    %rbp
  41c718:	c3                   	retq   
--
  41c765:	48 89 70 08          	mov    %rsi,0x8(%rax)
  41c769:	80 e1 01             	and    $0x1,%cl
  41c76c:	0f b6 c1             	movzbl %cl,%eax
  41c76f:	48 83 c4 20          	add    $0x20,%rsp
  41c773:	5d                   	pop    %rbp
  41c774:	c3                   	retq   
--
  41c788:	48 89 7d f8          	mov    %rdi,-0x8(%rbp)
  41c78c:	48 8b 7d f8          	mov    -0x8(%rbp),%rdi
  41c790:	e8 ab 85 00 00       	callq  424d40 <_ZNSt12_Vector_baseIN5boost15program_options12basic_optionIcEESaIS3_EEC2Ev605>
  41c795:	48 83 c4 10          	add    $0x10,%rsp
  41c799:	5d                   	pop    %rbp
  41c79a:	c3                   	retq   
--
  41c7a8:	48 89 7d f8          	mov    %rdi,-0x8(%rbp)
  41c7ac:	48 8b 7d f8          	mov    -0x8(%rbp),%rdi
  41c7b0:	e8 0b 1a 00 00       	callq  41e1c0 <_ZNSt12_Vector_baseISsSaISsEEC2Ev280>
  41c7b5:	48 83 c4 10          	add    $0x10,%rsp
  41c7b9:	5d                   	pop    %rbp
  41c7ba:	c3                   	retq   
--
  41c7c8:	48 8b 7d f8          	mov    -0x8(%rbp),%rdi
  41c7cc:	48 81 c7 08 00 00 00 	add    $0x8,%rdi
  41c7d3:	48 81 c7 18 00 00 00 	add    $0x18,%rdi
  41c7da:	48 89 f8             	mov    %rdi,%rax
  41c7dd:	5d                   	pop    %rbp
  41c7de:	c3                   	retq   
--
  41c885:	48 89 c6             	mov    %rax,%rsi
  41c888:	e8 73 22 00 00       	callq  41eb00 <_ZN5boost16exception_detail20copy_boost_exceptionEPNS_9exceptionEPKS1_315>
  41c88d:	e9 00 00 00 00       	jmpq   41c892 <_ZN5boost16exception_detail10clone_implINS0_19error_info_injectorINS_16bad_lexical_castEEEEC1ERKS5_NS5_9clone_tagE194+0xb2>
  41c892:	48 83 c4 50          	add    $0x50,%rsp
  41c896:	5d                   	pop    %rbp
  41c897:	c3                   	retq   
--
  41c8f3:	0f 95 c0             	setne  %al
  41c8f6:	34 01                	xor    $0x1,%al
  41c8f8:	24 01                	and    $0x1,%al
  41c8fa:	0f b6 c0             	movzbl %al,%eax
  41c8fd:	5d                   	pop    %rbp
  41c8fe:	c3                   	retq   
--
  41c92c:	48 8b 75 f0          	mov    -0x10(%rbp),%rsi
  41c930:	48 8b 7d e8          	mov    -0x18(%rbp),%rdi
  41c934:	e8 e7 4b 00 00       	callq  421520 <_ZNSt8_Rb_treeISsSt4pairIKSsN5boost15program_options14variable_valueEESt10_Select1stIS5_ESt4lessISsESaIS5_EE11_M_put_nodeEPSt13_Rb_tree_nodeIS5_E423>
  41c939:	48 83 c4 20          	add    $0x20,%rsp
  41c93d:	5d                   	pop    %rbp
  41c93e:	c3                   	retq   
--
  41c948:	48 89 7d f8          	mov    %rdi,-0x8(%rbp)
  41c94c:	48 8b 7d f8          	mov    -0x8(%rbp),%rdi
  41c950:	e8 4b ac fe ff       	callq  4075a0 <_ZNSt8bad_castD2Ev@plt>
  41c955:	48 83 c4 10          	add    $0x10,%rsp
  41c959:	5d                   	pop    %rbp
  41c95a:	c3                   	retq   
--
  41c986:	48 05 10 00 00 00    	add    $0x10,%rax
  41c98c:	48 8b 7d f0          	mov    -0x10(%rbp),%rdi
  41c990:	48 89 07             	mov    %rax,(%rdi)
  41c993:	48 83 c4 10          	add    $0x10,%rsp
  41c997:	5d                   	pop    %rbp
  41c998:	c3                   	retq   
--
  41c9a0:	55                   	push   %rbp
  41c9a1:	48 89 e5             	mov    %rsp,%rbp
  41c9a4:	48 89 7d f8          	mov    %rdi,-0x8(%rbp)
  41c9a8:	48 8b 45 f8          	mov    -0x8(%rbp),%rax
  41c9ac:	5d                   	pop    %rbp
  41c9ad:	c3                   	retq   
--
  41c9c6:	48 03 47 e8          	add    -0x18(%rdi),%rax
  41c9ca:	48 89 c7             	mov    %rax,%rdi
  41c9cd:	e8 6e d9 ff ff       	callq  41a340 <_ZNK5boost16exception_detail10clone_implINS0_19error_info_injectorINS_17bad_function_callEEEE5cloneEv77>
  41c9d2:	48 83 c4 10          	add    $0x10,%rsp
  41c9d6:	5d                   	pop    %rbp
  41c9d7:	c3                   	retq   
--
  41c9e8:	48 89 7d f8          	mov    %rdi,-0x8(%rbp)
  41c9ec:	48 8b 7d f8          	mov    -0x8(%rbp),%rdi
  41c9f0:	e8 3b ec ff ff       	callq  41b630 <_ZN5boost15program_options6detail7cmdlineD2Ev133>
  41c9f5:	48 83 c4 10          	add    $0x10,%rsp
  41c9f9:	5d                   	pop    %rbp
  41c9fa:	c3                   	retq   
--
  41ca10:	48 8b 7d f8          	mov    -0x8(%rbp),%rdi
  41ca14:	48 8b 75 f0          	mov    -0x10(%rbp),%rsi
  41ca18:	e8 a3 8c 00 00       	callq  4256c0 <_ZNSt12_Destroy_auxILb0EE9__destroyIPN5boost10shared_ptrINS2_15program_options19options_descriptionEEEEEvT_S8_650>
  41ca1d:	48 83 c4 10          	add    $0x10,%rsp
  41ca21:	5d                   	pop    %rbp
  41ca22:	c3                   	retq   
--
  41ca38:	48 89 7d f8          	mov    %rdi,-0x8(%rbp)
  41ca3c:	48 8b 7d f8          	mov    -0x8(%rbp),%rdi
  41ca40:	e8 7b 90 00 00       	callq  425ac0 <_ZN5boost8any_castIRKtEET_RNS_3anyE664>
  41ca45:	48 83 c4 10          	add    $0x10,%rsp
  41ca49:	5d                   	pop    %rbp
  41ca4a:	c3                   	retq   
--
  41ca58:	48 89 7d f8          	mov    %rdi,-0x8(%rbp)
  41ca5c:	48 8b 7d f8          	mov    -0x8(%rbp),%rdi
  41ca60:	e8 bb f8 ff ff       	callq  41c320 <_ZNSaIN5boost15program_options12basic_optionIcEEED2Ev180>
  41ca65:	48 83 c4 10          	add    $0x10,%rsp
  41ca69:	5d                   	pop    %rbp
  41ca6a:	c3                   	retq   
--
  41cd87:	48 8d 05 7a d6 21 00 	lea    0x21d67a(%rip),%rax        # 63a408 <_ZZN5boost15program_options10validators17get_single_stringIcEERKSbIT_St11char_traitsIS3_ESaIS3_EERKSt6vectorIS7_SaIS7_EEbE5empty>
  41cd8e:	48 89 45 f8          	mov    %rax,-0x8(%rbp)
  41cd92:	48 8b 45 f8          	mov    -0x8(%rbp),%rax
  41cd96:	48 81 c4 b0 01 00 00 	add    $0x1b0,%rsp
  41cd9d:	5d                   	pop    %rbp
  41cd9e:	c3                   	retq   
--
  41cdb0:	55                   	push   %rbp
  41cdb1:	48 89 e5             	mov    %rsp,%rbp
  41cdb4:	48 89 7d f8          	mov    %rdi,-0x8(%rbp)
  41cdb8:	48 8b 45 f8          	mov    -0x8(%rbp),%rax
  41cdbc:	5d                   	pop    %rbp
  41cdbd:	c3                   	retq   
--
  41cdc4:	48 89 7d f8          	mov    %rdi,-0x8(%rbp)
  41cdc8:	48 8b 7d f8          	mov    -0x8(%rbp),%rdi
  41cdcc:	48 81 c7 08 00 00 00 	add    $0x8,%rdi
  41cdd3:	48 89 f8             	mov    %rdi,%rax
  41cdd6:	5d                   	pop    %rbp
  41cdd7:	c3                   	retq   
--
  41cde1:	48 89 e5             	mov    %rsp,%rbp
  41cde4:	48 89 7d f8          	mov    %rdi,-0x8(%rbp)
  41cde8:	48 8b 7d f8          	mov    -0x8(%rbp),%rdi
  41cdec:	66 c7 07 e0 2e       	movw   $0x2ee0,(%rdi)
  41cdf1:	5d                   	pop    %rbp
  41cdf2:	c3                   	retq   
--
  41ce08:	48 89 7d f8          	mov    %rdi,-0x8(%rbp)
  41ce0c:	48 8b 7d f8          	mov    -0x8(%rbp),%rdi
  41ce10:	e8 9b 33 00 00       	callq  4201b0 <_ZNSaIN5boost10shared_ptrINS_15program_options19options_descriptionEEEED2Ev378>
  41ce15:	48 83 c4 10          	add    $0x10,%rsp
  41ce19:	5d                   	pop    %rbp
  41ce1a:	c3                   	retq   
--
  41ce5e:	8a 45 f7             	mov    -0x9(%rbp),%al
  41ce61:	24 01                	and    $0x1,%al
  41ce63:	0f b6 c0             	movzbl %al,%eax
  41ce66:	48 83 c4 10          	add    $0x10,%rsp
  41ce6a:	5d                   	pop    %rbp
  41ce6b:	c3                   	retq   
--
  41ce71:	48 89 e5             	mov    %rsp,%rbp
  41ce74:	48 89 7d f8          	mov    %rdi,-0x8(%rbp)
  41ce78:	48 8b 7d f8          	mov    -0x8(%rbp),%rdi
  41ce7c:	48 89 f8             	mov    %rdi,%rax
  41ce7f:	5d                   	pop    %rbp
  41ce80:	c3                   	retq   
  41ce81:	66 2e 0f 1f 84 00 00 	nopw   %cs:0x0(%rax,%rax,1)
  41ce88:	00 00 00 
  41ce8b:	0f 1f 44 00 00       	nopl   0x0(%rax,%rax,1)

000000000041ce90 <_ZN5boost17enable_error_infoINS_16bad_lexical_castEEENS_16exception_detail29enable_error_info_return_typeIT_E4typeERKS4_212>:
--
  41cea3:	48 89 45 f0          	mov    %rax,-0x10(%rbp)
  41cea7:	e8 84 3d 00 00       	callq  420c30 <_ZN5boost16exception_detail19error_info_injectorINS_16bad_lexical_castEEC2ERKS2_404>
  41ceac:	48 8b 45 f0          	mov    -0x10(%rbp),%rax
  41ceb0:	48 83 c4 10          	add    $0x10,%rsp
  41ceb4:	5d                   	pop    %rbp
  41ceb5:	c3                   	retq   
--
  41cf1b:	48 8b 45 e8          	mov    -0x18(%rbp),%rax
  41cf1f:	48 89 45 f0          	mov    %rax,-0x10(%rbp)
  41cf23:	e9 b0 ff ff ff       	jmpq   41ced8 <_ZNSt8_Rb_treeISsSt4pairIKSsS0_ISsSsEESt10_Select1stIS3_ESt4lessISsESaIS3_EE8_M_eraseEPSt13_Rb_tree_nodeIS3_E213+0x18>
  41cf28:	48 83 c4 20          	add    $0x20,%rsp
  41cf2c:	5d                   	pop    %rbp
  41cf2d:	c3                   	retq   
--
  41cf77:	48 89 4d e0          	mov    %rcx,-0x20(%rbp)
  41cf7b:	e9 00 00 00 00       	jmpq   41cf80 <_ZNSt12_Vector_baseIN5boost15program_options12basic_optionIcEESaIS3_EE11_M_allocateEm214+0x50>
  41cf80:	48 8b 45 e0          	mov    -0x20(%rbp),%rax
  41cf84:	48 83 c4 20          	add    $0x20,%rsp
  41cf88:	5d                   	pop    %rbp
  41cf89:	c3                   	retq   
--
  41d001:	48 8b 7d f0          	mov    -0x10(%rbp),%rdi
  41d005:	48 8b 75 e8          	mov    -0x18(%rbp),%rsi
  41d009:	e8 12 a9 fe ff       	callq  407920 <_ZN5boost15program_options8validateERNS_3anyERKSt6vectorISsSaISsEEPSsi@plt>
  41d00e:	48 83 c4 30          	add    $0x30,%rsp
  41d012:	5d                   	pop    %rbp
  41d013:	c3                   	retq   
--
  41d021:	48 89 e5             	mov    %rsp,%rbp
  41d024:	48 89 7d f8          	mov    %rdi,-0x8(%rbp)
  41d028:	48 89 75 f0          	mov    %rsi,-0x10(%rbp)
  41d02c:	48 8b 45 f0          	mov    -0x10(%rbp),%rax
  41d030:	5d                   	pop    %rbp
  41d031:	c3                   	retq   
--
  41d07a:	48 8b 7d d8          	mov    -0x28(%rbp),%rdi
  41d07e:	48 89 c6             	mov    %rax,%rsi
  41d081:	e8 8a ab fe ff       	callq  407c10 <_ZNSsC1EOSs@plt>
  41d086:	48 83 c4 30          	add    $0x30,%rsp
  41d08a:	5d                   	pop    %rbp
  41d08b:	c3                   	retq   
--
  41d0a4:	e8 77 5e 00 00       	callq  422f20 <_ZN5boost16exception_detail19error_info_injectorINS_12bad_any_castEED2Ev503>
  41d0a9:	48 8b 7d f0          	mov    -0x10(%rbp),%rdi
  41d0ad:	e8 be a5 fe ff       	callq  407670 <_ZdlPv@plt>
  41d0b2:	48 83 c4 10          	add    $0x10,%rsp
  41d0b6:	5d                   	pop    %rbp
  41d0b7:	c3                   	retq   
--
  41d0c8:	48 89 7d f0          	mov    %rdi,-0x10(%rbp)
  41d0cc:	48 8b 7d f0          	mov    -0x10(%rbp),%rdi
  41d0d0:	e8 4b 85 00 00       	callq  425620 <_ZNKSt8_Rb_treeISsSt4pairIKSsSsESt10_Select1stIS2_ESt4lessISsESaIS2_EE8key_compEv645>
  41d0d5:	48 83 c4 20          	add    $0x20,%rsp
  41d0d9:	5d                   	pop    %rbp
  41d0da:	c3                   	retq   
--
  41d0e0:	55                   	push   %rbp
  41d0e1:	48 89 e5             	mov    %rsp,%rbp
  41d0e4:	48 89 7d f8          	mov    %rdi,-0x8(%rbp)
  41d0e8:	48 8b 45 f8          	mov    -0x8(%rbp),%rax
  41d0ec:	5d                   	pop    %rbp
  41d0ed:	c3                   	retq   
--
  41d103:	48 8b 7d f0          	mov    -0x10(%rbp),%rdi
  41d107:	48 c1 e7 03          	shl    $0x3,%rdi
  41d10b:	48 01 fe             	add    %rdi,%rsi
  41d10e:	48 89 f0             	mov    %rsi,%rax
  41d111:	5d                   	pop    %rbp
  41d112:	c3                   	retq   
--
  41d128:	48 8b 7d f8          	mov    -0x8(%rbp),%rdi
  41d12c:	48 8b 3f             	mov    (%rdi),%rdi
  41d12f:	48 81 e7 fe ff ff ff 	and    $0xfffffffffffffffe,%rdi
  41d136:	48 89 f8             	mov    %rdi,%rax
  41d139:	5d                   	pop    %rbp
  41d13a:	c3                   	retq   
--
  41d15e:	48 8b 75 e8          	mov    -0x18(%rbp),%rsi
  41d162:	e8 19 14 00 00       	callq  41e580 <_ZNSt17_Rb_tree_iteratorISt4pairIKSsSsEEC2EPSt13_Rb_tree_nodeIS2_E295>
  41d167:	48 8b 45 f8          	mov    -0x8(%rbp),%rax
  41d16b:	48 83 c4 20          	add    $0x20,%rsp
  41d16f:	5d                   	pop    %rbp
  41d170:	c3                   	retq   
--
  41d1b1:	48 8b 7d f0          	mov    -0x10(%rbp),%rdi
  41d1b5:	48 8b 75 f0          	mov    -0x10(%rbp),%rsi
  41d1b9:	ff d1                	callq  *%rcx
  41d1bb:	48 83 c4 20          	add    $0x20,%rsp
  41d1bf:	5d                   	pop    %rbp
  41d1c0:	c3                   	retq   
--
  41d1d8:	48 89 7d f8          	mov    %rdi,-0x8(%rbp)
  41d1dc:	48 8b 7d f8          	mov    -0x8(%rbp),%rdi
  41d1e0:	e8 eb 41 00 00       	callq  4213d0 <_ZN9__gnu_cxx13new_allocatorIN5boost10shared_ptrINS1_15program_options18option_descriptionEEEED2Ev417>
  41d1e5:	48 83 c4 10          	add    $0x10,%rsp
  41d1e9:	5d                   	pop    %rbp
  41d1ea:	c3                   	retq   
--
  41d1f0:	55                   	push   %rbp
  41d1f1:	48 89 e5             	mov    %rsp,%rbp
  41d1f4:	48 8b 05 8d cd 21 00 	mov    0x21cd8d(%rip),%rax        # 639f88 <_DYNAMIC+0x250>
  41d1fb:	48 89 7d f8          	mov    %rdi,-0x8(%rbp)
  41d1ff:	5d                   	pop    %rbp
  41d200:	c3                   	retq   
--
  41d218:	48 89 7d f8          	mov    %rdi,-0x8(%rbp)
  41d21c:	48 8b 7d f8          	mov    -0x8(%rbp),%rdi
  41d220:	e8 4b 96 00 00       	callq  426870 <_ZNSt18_Rb_tree_node_base10_S_minimumEPS_689>
  41d225:	48 83 c4 10          	add    $0x10,%rsp
  41d229:	5d                   	pop    %rbp
  41d22a:	c3                   	retq   
--
  41d25a:	48 8b 75 f8          	mov    -0x8(%rbp),%rsi
  41d25e:	48 8d 8d 40 ff ff ff 	lea    -0xc0(%rbp),%rcx
  41d265:	48 89 bd 28 ff ff ff 	mov    %rdi,-0xd8(%rbp)
  41d26c:	48 89 cf             	mov    %rcx,%rdi
  41d26f:	48 89 85 20 ff ff ff 	mov    %rax,-0xe0(%rbp)
  41d276:	e8 35 87 00 00       	callq  4259b0 <_ZN5boost17enable_error_infoINS_15program_options16validation_errorEEENS_16exception_detail29enable_error_info_return_typeIT_E4typeERKS5_660>
--
  41d351:	48 8b 75 d8          	mov    -0x28(%rbp),%rsi
  41d355:	48 89 c2             	mov    %rax,%rdx
  41d358:	e8 c3 6e 00 00       	callq  424220 <_ZN9__gnu_cxx13new_allocatorISt13_Rb_tree_nodeISt4pairIKSsSsEEE9constructIS5_JRKS4_EEEvPT_DpOT0_573>
  41d35d:	48 83 c4 30          	add    $0x30,%rsp
  41d361:	5d                   	pop    %rbp
  41d362:	c3                   	retq   
--
  41d415:	48 89 c6             	mov    %rax,%rsi
  41d418:	e8 e3 16 00 00       	callq  41eb00 <_ZN5boost16exception_detail20copy_boost_exceptionEPNS_9exceptionEPKS1_315>
  41d41d:	e9 00 00 00 00       	jmpq   41d422 <_ZN5boost16exception_detail10clone_implINS0_19error_info_injectorINS_12bad_any_castEEEEC1ERKS5_NS5_9clone_tagE231+0xb2>
  41d422:	48 83 c4 50          	add    $0x50,%rsp
  41d426:	5d                   	pop    %rbp
  41d427:	c3                   	retq   
--
000000000041d470 <_ZN5boost9function1IvRKSsE5dummy7nonnullEv232>:
  41d470:	55                   	push   %rbp
  41d471:	48 89 e5             	mov    %rsp,%rbp
  41d474:	48 89 7d f8          	mov    %rdi,-0x8(%rbp)
  41d478:	5d                   	pop    %rbp
  41d479:	c3                   	retq   
--
  41d496:	48 03 47 d8          	add    -0x28(%rdi),%rax
  41d49a:	48 89 c7             	mov    %rax,%rdi
  41d49d:	e8 ce e6 ff ff       	callq  41bb70 <_ZN5boost16exception_detail10clone_implINS0_19error_info_injectorINS_17bad_function_callEEEED0Ev151>
  41d4a2:	48 83 c4 10          	add    $0x10,%rsp
  41d4a6:	5d                   	pop    %rbp
  41d4a7:	c3                   	retq   
--
  41d4bc:	48 8b 75 f8          	mov    -0x8(%rbp),%rsi
  41d4c0:	48 8b 7d f0          	mov    -0x10(%rbp),%rdi
  41d4c4:	48 8b 3f             	mov    (%rdi),%rdi
  41d4c7:	48 89 3e             	mov    %rdi,(%rsi)
  41d4ca:	5d                   	pop    %rbp
  41d4cb:	c3                   	retq   
--
  41d4ed:	48 89 07             	mov    %rax,(%rdi)
  41d4f0:	48 81 c7 08 00 00 00 	add    $0x8,%rdi
  41d4f7:	e8 c4 32 00 00       	callq  4207c0 <_ZN5boost16exception_detail12refcount_ptrINS0_20error_info_containerEED2Ev400>
  41d4fc:	48 83 c4 10          	add    $0x10,%rsp
  41d500:	5d                   	pop    %rbp
  41d501:	c3                   	retq   
--
  41d539:	e9 00 00 00 00       	jmpq   41d53e <_ZNSt12_Vector_baseIN5boost10shared_ptrINS0_15program_options18option_descriptionEEESaIS4_EED2Ev236+0x2e>
  41d53e:	48 8b 7d e0          	mov    -0x20(%rbp),%rdi
  41d542:	e8 e9 5d 00 00       	callq  423330 <_ZNSt12_Vector_baseIN5boost10shared_ptrINS0_15program_options18option_descriptionEEESaIS4_EE12_Vector_implD2Ev522>
  41d547:	48 83 c4 20          	add    $0x20,%rsp
  41d54b:	5d                   	pop    %rbp
  41d54c:	c3                   	retq   
--
  41d5e6:	48 89 4d e0          	mov    %rcx,-0x20(%rbp)
  41d5ea:	e9 00 00 00 00       	jmpq   41d5ef <_ZN5boost8any_castISsEEPT_PNS_3anyE237+0x7f>
  41d5ef:	48 8b 45 e0          	mov    -0x20(%rbp),%rax
  41d5f3:	48 83 c4 30          	add    $0x30,%rsp
  41d5f7:	5d                   	pop    %rbp
  41d5f8:	c3                   	retq   
--
  41d610:	55                   	push   %rbp
  41d611:	48 89 e5             	mov    %rsp,%rbp
  41d614:	48 89 7d f8          	mov    %rdi,-0x8(%rbp)
  41d618:	48 8b 45 f8          	mov    -0x8(%rbp),%rax
  41d61c:	5d                   	pop    %rbp
  41d61d:	c3                   	retq   
--
  41d647:	48 89 c6             	mov    %rax,%rsi
  41d64a:	e8 e1 86 00 00       	callq  425d30 <_ZNSaIN5boost15program_options12basic_optionIcEEEC2ERKS3_668>
  41d64f:	48 8b 45 e8          	mov    -0x18(%rbp),%rax
  41d653:	48 83 c4 20          	add    $0x20,%rsp
  41d657:	5d                   	pop    %rbp
  41d658:	c3                   	retq   
--
  41d6ff:	e9 00 00 00 00       	jmpq   41d704 <_ZN5boost6detail26lexical_stream_limited_srcIcSt11char_traitsIcELb0EE12shr_unsignedItEEbRT_240+0xa4>
  41d704:	48 8b 7d e8          	mov    -0x18(%rbp),%rdi
  41d708:	48 8b 45 d8          	mov    -0x28(%rbp),%rax
  41d70c:	48 8b 30             	mov    (%rax),%rsi
  41d70f:	48 8b 50 08          	mov    0x8(%rax),%rdx
  41d713:	e8 a8 89 00 00       	callq  4260c0 <_ZN5boost6detail18lcast_ret_unsignedISt11char_traitsIcEtcEEbRT0_PKT1_S8_681>
--
  41d744:	8a 45 ff             	mov    -0x1(%rbp),%al
  41d747:	24 01                	and    $0x1,%al
  41d749:	0f b6 c0             	movzbl %al,%eax
  41d74c:	48 83 c4 30          	add    $0x30,%rsp
  41d750:	5d                   	pop    %rbp
  41d751:	c3                   	retq   
--
  41d773:	48 89 45 f0          	mov    %rax,-0x10(%rbp)
  41d777:	e8 54 c2 ff ff       	callq  4199d0 <_ZNSt16allocator_traitsISaIN5boost15program_options12basic_optionIcEEEE9_S_selectIKS4_EENSt9enable_ifIXntsr15__select_helperIT_EE5valueES9_E4typeERS9_44>
  41d77c:	48 8b 45 f0          	mov    -0x10(%rbp),%rax
  41d780:	48 83 c4 10          	add    $0x10,%rsp
  41d784:	5d                   	pop    %rbp
  41d785:	c3                   	retq   
--
  41d7b3:	48 89 f7             	mov    %rsi,%rdi
  41d7b6:	48 8b 75 e8          	mov    -0x18(%rbp),%rsi
  41d7ba:	e8 d1 47 00 00       	callq  421f90 <_ZN9__gnu_cxx13new_allocatorISt13_Rb_tree_nodeISt4pairIKSsSsEEE10deallocateEPS5_m450>
  41d7bf:	48 83 c4 20          	add    $0x20,%rsp
  41d7c3:	5d                   	pop    %rbp
  41d7c4:	c3                   	retq   
--
  41d7e4:	e8 27 37 00 00       	callq  420f10 <_ZN5boost3any11placeholderD2Ev410>
  41d7e9:	48 8b 7d f0          	mov    -0x10(%rbp),%rdi
  41d7ed:	e8 7e 9e fe ff       	callq  407670 <_ZdlPv@plt>
  41d7f2:	48 83 c4 10          	add    $0x10,%rsp
  41d7f6:	5d                   	pop    %rbp
  41d7f7:	c3                   	retq   
--
  41d83c:	48 8b 45 d8          	mov    -0x28(%rbp),%rax
  41d840:	48 89 c7             	mov    %rax,%rdi
  41d843:	e8 c8 53 00 00       	callq  422c10 <_ZNSt12_Vector_baseISsSaISsEED2Ev488>
  41d848:	48 83 c4 30          	add    $0x30,%rsp
  41d84c:	5d                   	pop    %rbp
  41d84d:	c3                   	retq   
--
  41d8ab:	48 8b 45 f0          	mov    -0x10(%rbp),%rax
  41d8af:	48 8b 48 08          	mov    0x8(%rax),%rcx
  41d8b3:	48 89 4d e8          	mov    %rcx,-0x18(%rbp)
  41d8b7:	48 8b 45 e8          	mov    -0x18(%rbp),%rax
  41d8bb:	5d                   	pop    %rbp
  41d8bc:	c3                   	retq   
--
  41d8c4:	48 89 7d f8          	mov    %rdi,-0x8(%rbp)
  41d8c8:	48 8b 7d f8          	mov    -0x8(%rbp),%rdi
  41d8cc:	48 8b 7f 18          	mov    0x18(%rdi),%rdi
  41d8d0:	48 89 f8             	mov    %rdi,%rax
  41d8d3:	5d                   	pop    %rbp
  41d8d4:	c3                   	retq   
--
  41d8ec:	48 8b 7d f8          	mov    -0x8(%rbp),%rdi
  41d8f0:	48 81 c7 70 ff ff ff 	add    $0xffffffffffffff70,%rdi
  41d8f7:	e8 f4 6e 00 00       	callq  4247f0 <_ZN5boost16exception_detail19error_info_injectorINS_15program_options20invalid_option_valueEED0Ev592>
  41d8fc:	48 83 c4 10          	add    $0x10,%rsp
  41d900:	5d                   	pop    %rbp
  41d901:	c3                   	retq   
--
  41d918:	48 89 7d f8          	mov    %rdi,-0x8(%rbp)
  41d91c:	48 8b 7d f8          	mov    -0x8(%rbp),%rdi
  41d920:	e8 0b f1 ff ff       	callq  41ca30 <_ZN5boost8any_castIRKtEET_RKNS_3anyE203>
  41d925:	48 83 c4 10          	add    $0x10,%rsp
  41d929:	5d                   	pop    %rbp
  41d92a:	c3                   	retq   
--
  41d938:	48 89 7d f8          	mov    %rdi,-0x8(%rbp)
  41d93c:	48 8b 7d f8          	mov    -0x8(%rbp),%rdi
  41d940:	e8 fb c2 ff ff       	callq  419c40 <_ZNSt8_Rb_treeISsSt4pairIKSsS0_ISsSsEESt10_Select1stIS3_ESt4lessISsESaIS3_EED2Ev56>
  41d945:	48 83 c4 10          	add    $0x10,%rsp
  41d949:	5d                   	pop    %rbp
  41d94a:	c3                   	retq   
--
  41d97e:	48 05 10 00 00 00    	add    $0x10,%rax
  41d984:	48 8b 75 e8          	mov    -0x18(%rbp),%rsi
  41d988:	48 89 06             	mov    %rax,(%rsi)
  41d98b:	48 83 c4 20          	add    $0x20,%rsp
  41d98f:	5d                   	pop    %rbp
  41d990:	c3                   	retq   
--
  41da1d:	66 8b 48 40          	mov    0x40(%rax),%cx
  41da21:	48 8b 45 d0          	mov    -0x30(%rbp),%rax
  41da25:	66 89 48 40          	mov    %cx,0x40(%rax)
  41da29:	48 83 c4 40          	add    $0x40,%rsp
  41da2d:	5d                   	pop    %rbp
  41da2e:	c3                   	retq   
--
  41daa7:	48 8b 45 d0          	mov    -0x30(%rbp),%rax
  41daab:	48 89 45 f0          	mov    %rax,-0x10(%rbp)
  41daaf:	48 8b 45 f0          	mov    -0x10(%rbp),%rax
  41dab3:	48 83 c4 30          	add    $0x30,%rsp
  41dab7:	5d                   	pop    %rbp
  41dab8:	c3                   	retq   
--
  41db08:	48 8b 7d e0          	mov    -0x20(%rbp),%rdi
  41db0c:	48 8b 75 d8          	mov    -0x28(%rbp),%rsi
  41db10:	e8 7b 4d 00 00       	callq  422890 <_ZNSt20__uninitialized_copyILb0EE13__uninit_copyISt13move_iteratorIPSsES3_EET0_T_S6_S5_483>
  41db15:	48 83 c4 30          	add    $0x30,%rsp
  41db19:	5d                   	pop    %rbp
  41db1a:	c3                   	retq   
--
  41db28:	48 89 7d f8          	mov    %rdi,-0x8(%rbp)
  41db2c:	48 8b 7d f8          	mov    -0x8(%rbp),%rdi
  41db30:	e8 7b 04 00 00       	callq  41dfb0 <_ZNSaISsED2Ev271>
  41db35:	48 83 c4 10          	add    $0x10,%rsp
  41db39:	5d                   	pop    %rbp
  41db3a:	c3                   	retq   
--
  41db41:	48 89 e5             	mov    %rsp,%rbp
  41db44:	48 89 7d f8          	mov    %rdi,-0x8(%rbp)
  41db48:	48 8b 7d f8          	mov    -0x8(%rbp),%rdi
  41db4c:	48 89 f8             	mov    %rdi,%rax
  41db4f:	5d                   	pop    %rbp
  41db50:	c3                   	retq   
--
  41db61:	48 89 e5             	mov    %rsp,%rbp
  41db64:	48 89 7d f8          	mov    %rdi,-0x8(%rbp)
  41db68:	48 8b 7d f8          	mov    -0x8(%rbp),%rdi
  41db6c:	48 89 f8             	mov    %rdi,%rax
  41db6f:	5d                   	pop    %rbp
  41db70:	c3                   	retq   
--
  41dbaa:	48 8b 75 f8          	mov    -0x8(%rbp),%rsi
  41dbae:	48 8d 8d 40 ff ff ff 	lea    -0xc0(%rbp),%rcx
  41dbb5:	48 89 bd 28 ff ff ff 	mov    %rdi,-0xd8(%rbp)
  41dbbc:	48 89 cf             	mov    %rcx,%rdi
  41dbbf:	48 89 85 20 ff ff ff 	mov    %rax,-0xe0(%rbp)
  41dbc6:	e8 f5 7c 00 00       	callq  4258c0 <_ZN5boost17enable_error_infoINS_15program_options20invalid_option_valueEEENS_16exception_detail29enable_error_info_return_typeIT_E4typeERKS5_655>
--
  41dc5b:	e9 00 00 00 00       	jmpq   41dc60 <_ZN5boost15throw_exceptionINS_15program_options20invalid_option_valueEEEvRKT_257+0xe0>
  41dc60:	48 8b bd 38 ff ff ff 	mov    -0xc8(%rbp),%rdi
  41dc67:	e8 f4 9f fe ff       	callq  407c60 <_Unwind_Resume@plt>
  41dc6c:	0f 1f 40 00          	nopl   0x0(%rax)

000000000041dc70 <_ZTv0_n32_NK5boost16exception_detail10clone_implINS0_19error_info_injectorINS_15program_options16validation_errorEEEE7rethrowEv258>:
--
  41dc7c:	48 8b 7d f8          	mov    -0x8(%rbp),%rdi
  41dc80:	48 89 f8             	mov    %rdi,%rax
  41dc83:	48 8b 3f             	mov    (%rdi),%rdi
  41dc86:	48 03 47 e0          	add    -0x20(%rdi),%rax
  41dc8a:	48 89 c7             	mov    %rax,%rdi
  41dc8d:	e8 3e da ff ff       	callq  41b6d0 <_ZNK5boost16exception_detail10clone_implINS0_19error_info_injectorINS_15program_options16validation_errorEEEE7rethrowEv135>
  41dc92:	48 83 c4 10          	add    $0x10,%rsp
  41dc96:	5d                   	pop    %rbp
  41dc97:	c3                   	retq   
--
  41dca8:	48 89 7d f8          	mov    %rdi,-0x8(%rbp)
  41dcac:	e8 4f cf ff ff       	callq  41ac00 <_ZN5boost9function1IvRKSsE5clearEv90>
  41dcb1:	e9 00 00 00 00       	jmpq   41dcb6 <_ZN5boost9function1IvRKSsED2Ev259+0x16>
  41dcb6:	48 83 c4 10          	add    $0x10,%rsp
  41dcba:	5d                   	pop    %rbp
  41dcbb:	c3                   	retq   
--
  41dcdc:	48 8b 7d f8          	mov    -0x8(%rbp),%rdi
  41dce0:	e8 ab cd ff ff       	callq  41aa90 <_ZN5boost6detail20lexical_cast_do_castItSsE17lexical_cast_implERKSs87>
  41dce5:	0f b7 c0             	movzwl %ax,%eax
  41dce8:	48 83 c4 10          	add    $0x10,%rsp
  41dcec:	5d                   	pop    %rbp
  41dced:	c3                   	retq   
--
  41dd22:	48 8b 55 e8          	mov    -0x18(%rbp),%rdx
  41dd26:	48 89 c7             	mov    %rax,%rdi
  41dd29:	e8 b2 31 00 00       	callq  420ee0 <_ZN9__gnu_cxx13new_allocatorIN5boost15program_options12basic_optionIcEEE10deallocateEPS4_m409>
  41dd2e:	48 83 c4 20          	add    $0x20,%rsp
  41dd32:	5d                   	pop    %rbp
  41dd33:	c3                   	retq   
--
  41dd7a:	48 8b 7d d8          	mov    -0x28(%rbp),%rdi
  41dd7e:	48 8b 75 d0          	mov    -0x30(%rbp),%rsi
  41dd82:	e8 39 76 00 00       	callq  4253c0 <_ZSt22__uninitialized_copy_aISt13move_iteratorIPSsES1_SsET0_T_S4_S3_RSaIT1_E635>
  41dd87:	48 83 c4 30          	add    $0x30,%rsp
  41dd8b:	5d                   	pop    %rbp
  41dd8c:	c3                   	retq   
--
  41ddd9:	48 8b 55 d8          	mov    -0x28(%rbp),%rdx
  41dddd:	48 89 02             	mov    %rax,(%rdx)
  41dde0:	48 89 4a 10          	mov    %rcx,0x10(%rdx)
  41dde4:	48 83 c4 30          	add    $0x30,%rsp
  41dde8:	5d                   	pop    %rbp
  41dde9:	c3                   	retq   
--
  41de45:	48 8b 45 f0          	mov    -0x10(%rbp),%rax
  41de49:	48 89 c7             	mov    %rax,%rdi
  41de4c:	e8 6f 99 fe ff       	callq  4077c0 <_ZNSt13runtime_errorD2Ev@plt>
  41de51:	48 83 c4 10          	add    $0x10,%rsp
  41de55:	5d                   	pop    %rbp
  41de56:	c3                   	retq   
--
  41de64:	48 89 7d f8          	mov    %rdi,-0x8(%rbp)
  41de68:	48 8b 7d f8          	mov    -0x8(%rbp),%rdi
  41de6c:	48 8b 7f 18          	mov    0x18(%rdi),%rdi
  41de70:	48 89 f8             	mov    %rdi,%rax
  41de73:	5d                   	pop    %rbp
  41de74:	c3                   	retq   
--
  41de88:	48 89 7d f8          	mov    %rdi,-0x8(%rbp)
  41de8c:	48 8b 7d f8          	mov    -0x8(%rbp),%rdi
  41de90:	e8 db 47 00 00       	callq  422670 <_ZNSt8_Rb_treeISsSt4pairIKSsSsESt10_Select1stIS2_ESt4lessISsESaIS2_EED2Ev474>
  41de95:	48 83 c4 10          	add    $0x10,%rsp
  41de99:	5d                   	pop    %rbp
  41de9a:	c3                   	retq   
--
  41dea8:	48 89 7d f8          	mov    %rdi,-0x8(%rbp)
  41deac:	48 8b 7d f8          	mov    -0x8(%rbp),%rdi
  41deb0:	e8 6b 80 00 00       	callq  425f20 <_ZN9__gnu_cxx13new_allocatorISt13_Rb_tree_nodeISt4pairIKSsS2_ISsSsEEEED2Ev674>
  41deb5:	48 83 c4 10          	add    $0x10,%rsp
  41deb9:	5d                   	pop    %rbp
  41deba:	c3                   	retq   
--
  41def4:	c7 45 fc 00 00 00 00 	movl   $0x0,-0x4(%rbp)
  41defb:	e9 07 00 00 00       	jmpq   41df07 <_ZNK5boost15program_options11typed_valueItcE10max_tokensEv268+0x47>
  41df00:	c7 45 fc 01 00 00 00 	movl   $0x1,-0x4(%rbp)
  41df07:	8b 45 fc             	mov    -0x4(%rbp),%eax
  41df0a:	5d                   	pop    %rbp
  41df0b:	c3                   	retq   
--
  41df44:	48 8b 75 d0          	mov    -0x30(%rbp),%rsi
  41df48:	e8 83 c4 ff ff       	callq  41a3d0 <_ZNSt4pairISsSsEC2ERKS0_78>
  41df4d:	e9 00 00 00 00       	jmpq   41df52 <_ZNSt4pairIKSsS_ISsSsEEC2ERKS2_269+0x42>
  41df52:	48 83 c4 30          	add    $0x30,%rsp
  41df56:	5d                   	pop    %rbp
  41df57:	c3                   	retq   
--
  41df90:	48 8b 7d f8          	mov    -0x8(%rbp),%rdi
  41df94:	48 8b 75 f0          	mov    -0x10(%rbp),%rsi
  41df98:	e8 43 1a 00 00       	callq  41f9e0 <_ZNSt12_Vector_baseIN5boost15program_options12basic_optionIcEESaIS3_EE12_Vector_implC2ERKS4_353>
  41df9d:	48 83 c4 10          	add    $0x10,%rsp
  41dfa1:	5d                   	pop    %rbp
  41dfa2:	c3                   	retq   
--
  41dfb8:	48 89 7d f8          	mov    %rdi,-0x8(%rbp)
  41dfbc:	48 8b 7d f8          	mov    -0x8(%rbp),%rdi
  41dfc0:	e8 4b 75 00 00       	callq  425510 <_ZN9__gnu_cxx13new_allocatorISsED2Ev641>
  41dfc5:	48 83 c4 10          	add    $0x10,%rsp
  41dfc9:	5d                   	pop    %rbp
  41dfca:	c3                   	retq   
--
  41dfd1:	48 89 e5             	mov    %rsp,%rbp
  41dfd4:	48 89 7d f8          	mov    %rdi,-0x8(%rbp)
  41dfd8:	48 8b 7d f8          	mov    -0x8(%rbp),%rdi
  41dfdc:	48 89 f8             	mov    %rdi,%rax
  41dfdf:	5d                   	pop    %rbp
  41dfe0:	c3                   	retq   
--
  41dffc:	48 8b 7d f8          	mov    -0x8(%rbp),%rdi
  41e000:	48 81 c7 20 00 00 00 	add    $0x20,%rdi
  41e007:	e8 f4 97 fe ff       	callq  407800 <_ZNSsD1Ev@plt>
  41e00c:	48 83 c4 10          	add    $0x10,%rsp
  41e010:	5d                   	pop    %rbp
  41e011:	c3                   	retq   
--
  41e035:	48 8d 7d f0          	lea    -0x10(%rbp),%rdi
  41e039:	48 89 c6             	mov    %rax,%rsi
  41e03c:	e8 4f 03 00 00       	callq  41e390 <_ZNKSt10_Select1stISt4pairIKSsN5boost15program_options14variable_valueEEEclERKS5_288>
  41e041:	48 83 c4 10          	add    $0x10,%rsp
  41e045:	5d                   	pop    %rbp
  41e046:	c3                   	retq   
--
  41e07b:	48 8b 75 e8          	mov    -0x18(%rbp),%rsi
  41e07f:	48 89 46 70          	mov    %rax,0x70(%rsi)
  41e083:	48 89 f0             	mov    %rsi,%rax
  41e086:	48 83 c4 20          	add    $0x20,%rsp
  41e08a:	5d                   	pop    %rbp
  41e08b:	c3                   	retq   
--
  41e0d0:	48 8b 4d d8          	mov    -0x28(%rbp),%rcx
  41e0d4:	ff d1                	callq  *%rcx
  41e0d6:	48 8b 45 e8          	mov    -0x18(%rbp),%rax
  41e0da:	48 83 c4 30          	add    $0x30,%rsp
  41e0de:	5d                   	pop    %rbp
  41e0df:	c3                   	retq   
--
  41e13f:	48 8b 55 d8          	mov    -0x28(%rbp),%rdx
  41e143:	48 89 02             	mov    %rax,(%rdx)
  41e146:	48 89 8a 90 00 00 00 	mov    %rcx,0x90(%rdx)
  41e14d:	48 83 c4 30          	add    $0x30,%rsp
  41e151:	5d                   	pop    %rbp
  41e152:	c3                   	retq   
--
  41e19c:	e8 0f f3 ff ff       	callq  41d4b0 <_ZN9__gnu_cxx17__normal_iteratorIPKN5boost15program_options12basic_optionIcEESt6vectorIS4_SaIS4_EEEC2ERKS6_234>
  41e1a1:	e9 00 00 00 00       	jmpq   41e1a6 <_ZNKSt6vectorIN5boost15program_options12basic_optionIcEESaIS3_EE3endEv279+0x26>
  41e1a6:	48 8b 45 f8          	mov    -0x8(%rbp),%rax
  41e1aa:	48 83 c4 20          	add    $0x20,%rsp
  41e1ae:	5d                   	pop    %rbp
  41e1af:	c3                   	retq   
--
  41e1c8:	48 89 7d f8          	mov    %rdi,-0x8(%rbp)
  41e1cc:	48 8b 7d f8          	mov    -0x8(%rbp),%rdi
  41e1d0:	e8 3b bb ff ff       	callq  419d10 <_ZNSt12_Vector_baseISsSaISsEE12_Vector_implC2Ev59>
  41e1d5:	48 83 c4 10          	add    $0x10,%rsp
  41e1d9:	5d                   	pop    %rbp
  41e1da:	c3                   	retq   
--
  41e1f3:	48 89 45 f0          	mov    %rax,-0x10(%rbp)
  41e1f7:	e8 54 62 00 00       	callq  424450 <_ZN5boost16exception_detail10clone_implINS0_19error_info_injectorINS_16bad_lexical_castEEEEC1ERKS4_584>
  41e1fc:	48 8b 45 f0          	mov    -0x10(%rbp),%rax
  41e200:	48 83 c4 10          	add    $0x10,%rsp
  41e204:	5d                   	pop    %rbp
  41e205:	c3                   	retq   
--
  41e26a:	e8 d1 e6 ff ff       	callq  41c940 <_ZN5boost12bad_any_castD2Ev197>
  41e26f:	e9 0a 00 00 00       	jmpq   41e27e <_ZN5boost8any_castIRKSsEET_RNS_3anyE282+0x6e>
  41e274:	48 8b 45 f0          	mov    -0x10(%rbp),%rax
  41e278:	48 83 c4 30          	add    $0x30,%rsp
  41e27c:	5d                   	pop    %rbp
  41e27d:	c3                   	retq   
--
  41e2e4:	e8 97 2a 00 00       	callq  420d80 <_ZNK5boost6detail8function13basic_vtable1ISt4pairISsSsERKSsE5clearERNS1_15function_bufferE406>
  41e2e9:	48 8b 45 f0          	mov    -0x10(%rbp),%rax
  41e2ed:	48 c7 00 00 00 00 00 	movq   $0x0,(%rax)
  41e2f4:	48 83 c4 20          	add    $0x20,%rsp
  41e2f8:	5d                   	pop    %rbp
  41e2f9:	c3                   	retq   
--
  41e301:	48 89 e5             	mov    %rsp,%rbp
  41e304:	48 89 7d f8          	mov    %rdi,-0x8(%rbp)
  41e308:	48 8b 7d f8          	mov    -0x8(%rbp),%rdi
  41e30c:	48 89 f8             	mov    %rdi,%rax
  41e30f:	5d                   	pop    %rbp
  41e310:	c3                   	retq   
--
  41e32c:	48 89 75 f0          	mov    %rsi,-0x10(%rbp)
  41e330:	48 8b 7d f0          	mov    -0x10(%rbp),%rdi
  41e334:	e8 b7 fc ff ff       	callq  41dff0 <_ZNSt13_Rb_tree_nodeISsED2Ev273>
  41e339:	48 83 c4 10          	add    $0x10,%rsp
  41e33d:	5d                   	pop    %rbp
  41e33e:	c3                   	retq   
  41e33f:	90                   	nop

000000000041e340 <_ZTv0_n32_NK5boost16exception_detail10clone_implINS0_19error_info_injectorINS_17bad_function_callEEEE7rethrowEv286>:
--
  41e34c:	48 8b 7d f8          	mov    -0x8(%rbp),%rdi
  41e350:	48 89 f8             	mov    %rdi,%rax
  41e353:	48 8b 3f             	mov    (%rdi),%rdi
  41e356:	48 03 47 e0          	add    -0x20(%rdi),%rax
  41e35a:	48 89 c7             	mov    %rax,%rdi
  41e35d:	e8 ee c7 ff ff       	callq  41ab50 <_ZNK5boost16exception_detail10clone_implINS0_19error_info_injectorINS_17bad_function_callEEEE7rethrowEv88>
  41e362:	48 83 c4 10          	add    $0x10,%rsp
  41e366:	5d                   	pop    %rbp
  41e367:	c3                   	retq   
--
  41e374:	48 89 7d f8          	mov    %rdi,-0x8(%rbp)
  41e378:	48 8b 7d f8          	mov    -0x8(%rbp),%rdi
  41e37c:	48 8b 7f 10          	mov    0x10(%rdi),%rdi
  41e380:	48 89 f8             	mov    %rdi,%rax
  41e383:	5d                   	pop    %rbp
  41e384:	c3                   	retq   
--
  41e391:	48 89 e5             	mov    %rsp,%rbp
  41e394:	48 89 7d f8          	mov    %rdi,-0x8(%rbp)
  41e398:	48 89 75 f0          	mov    %rsi,-0x10(%rbp)
  41e39c:	48 8b 45 f0          	mov    -0x10(%rbp),%rax
  41e3a0:	5d                   	pop    %rbp
  41e3a1:	c3                   	retq   
--
  41e3c4:	e8 97 df ff ff       	callq  41c360 <_ZN5boost15program_options11typed_valueISscED2Ev182>
  41e3c9:	48 8b 7d f0          	mov    -0x10(%rbp),%rdi
  41e3cd:	e8 9e 92 fe ff       	callq  407670 <_ZdlPv@plt>
  41e3d2:	48 83 c4 10          	add    $0x10,%rsp
  41e3d6:	5d                   	pop    %rbp
  41e3d7:	c3                   	retq   
--
  41e40d:	0f 94 c1             	sete   %cl
  41e410:	80 e1 01             	and    $0x1,%cl
  41e413:	0f b6 c1             	movzbl %cl,%eax
  41e416:	48 83 c4 20          	add    $0x20,%rsp
  41e41a:	5d                   	pop    %rbp
  41e41b:	c3                   	retq   
--
  41e430:	48 8b 7d f8          	mov    -0x8(%rbp),%rdi
  41e434:	48 8b 75 f0          	mov    -0x10(%rbp),%rsi
  41e438:	e8 93 5f 00 00       	callq  4243d0 <_ZNSt16allocator_traitsISaISsEE10_S_destroyISsEENSt9enable_ifIXsr16__destroy_helperIT_EE5valueEvE4typeERS0_PS4_581>
  41e43d:	48 83 c4 10          	add    $0x10,%rsp
  41e441:	5d                   	pop    %rbp
  41e442:	c3                   	retq   
--
  41e4f5:	48 89 c6             	mov    %rax,%rsi
  41e4f8:	e8 03 06 00 00       	callq  41eb00 <_ZN5boost16exception_detail20copy_boost_exceptionEPNS_9exceptionEPKS1_315>
  41e4fd:	e9 00 00 00 00       	jmpq   41e502 <_ZN5boost16exception_detail10clone_implINS0_19error_info_injectorINS_17bad_function_callEEEEC1ERKS4_293+0xb2>
  41e502:	48 83 c4 40          	add    $0x40,%rsp
  41e506:	5d                   	pop    %rbp
  41e507:	c3                   	retq   
--
  41e55c:	48 8b 7d f8          	mov    -0x8(%rbp),%rdi
  41e560:	48 81 c7 f0 ff ff ff 	add    $0xfffffffffffffff0,%rdi
  41e567:	e8 04 cb ff ff       	callq  41b070 <_ZN5boost16exception_detail10clone_implINS0_19error_info_injectorINS_17bad_function_callEEEED1Ev108>
  41e56c:	48 83 c4 10          	add    $0x10,%rsp
  41e570:	5d                   	pop    %rbp
  41e571:	c3                   	retq   
--
  41e588:	48 89 75 f0          	mov    %rsi,-0x10(%rbp)
  41e58c:	48 8b 75 f8          	mov    -0x8(%rbp),%rsi
  41e590:	48 8b 7d f0          	mov    -0x10(%rbp),%rdi
  41e594:	48 89 3e             	mov    %rdi,(%rsi)
  41e597:	5d                   	pop    %rbp
  41e598:	c3                   	retq   
--
  41e5b4:	e8 47 03 00 00       	callq  41e900 <_ZN5boost16exception_detail10clone_implINS0_19error_info_injectorINS_15program_options20invalid_option_valueEEEED1Ev306>
  41e5b9:	48 8b 7d f0          	mov    -0x10(%rbp),%rdi
  41e5bd:	e8 ae 90 fe ff       	callq  407670 <_ZdlPv@plt>
  41e5c2:	48 83 c4 10          	add    $0x10,%rsp
  41e5c6:	5d                   	pop    %rbp
  41e5c7:	c3                   	retq   
--
  41e668:	48 8b 75 d8          	mov    -0x28(%rbp),%rsi
  41e66c:	48 8b 7d c0          	mov    -0x40(%rbp),%rdi
  41e670:	48 89 45 98          	mov    %rax,-0x68(%rbp)
  41e674:	e8 17 f1 ff ff       	callq  41d790 <_ZNSt8_Rb_treeISsSt4pairIKSsSsESt10_Select1stIS2_ESt4lessISsESaIS2_EE11_M_put_nodeEPSt13_Rb_tree_nodeIS2_E242>
  41e679:	e9 00 00 00 00       	jmpq   41e67e <_ZNSt8_Rb_treeISsSt4pairIKSsSsESt10_Select1stIS2_ESt4lessISsESaIS2_EE14_M_create_nodeIJRKSt21piecewise_construct_tSt5tupleIJRS1_EESD_IJEEEEEPSt13_Rb_tree_nodeIS2_EDpOT_297+0xae>
  41e67e:	e8 4d 90 fe ff       	callq  4076d0 <__cxa_rethrow@plt>
--
  41e696:	e9 00 00 00 00       	jmpq   41e69b <_ZNSt8_Rb_treeISsSt4pairIKSsSsESt10_Select1stIS2_ESt4lessISsESaIS2_EE14_M_create_nodeIJRKSt21piecewise_construct_tSt5tupleIJRS1_EESD_IJEEEEEPSt13_Rb_tree_nodeIS2_EDpOT_297+0xcb>
  41e69b:	e9 0a 00 00 00       	jmpq   41e6aa <_ZNSt8_Rb_treeISsSt4pairIKSsSsESt10_Select1stIS2_ESt4lessISsESaIS2_EE14_M_create_nodeIJRKSt21piecewise_construct_tSt5tupleIJRS1_EESD_IJEEEEEPSt13_Rb_tree_nodeIS2_EDpOT_297+0xda>
  41e6a0:	48 8b 45 d8          	mov    -0x28(%rbp),%rax
  41e6a4:	48 83 c4 70          	add    $0x70,%rsp
  41e6a8:	5d                   	pop    %rbp
  41e6a9:	c3                   	retq   
--
  41e6c0:	55                   	push   %rbp
  41e6c1:	48 89 e5             	mov    %rsp,%rbp
  41e6c4:	48 89 7d f8          	mov    %rdi,-0x8(%rbp)
  41e6c8:	48 8b 45 f8          	mov    -0x8(%rbp),%rax
  41e6cc:	5d                   	pop    %rbp
  41e6cd:	c3                   	retq   
--
000000000041e6d0 <_ZN5boost9function1IvRKtE5dummy7nonnullEv299>:
  41e6d0:	55                   	push   %rbp
  41e6d1:	48 89 e5             	mov    %rsp,%rbp
  41e6d4:	48 89 7d f8          	mov    %rdi,-0x8(%rbp)
  41e6d8:	5d                   	pop    %rbp
  41e6d9:	c3                   	retq   
--
  41e6ff:	e8 9c 5b 00 00       	callq  4242a0 <_ZNSt23_Rb_tree_const_iteratorISt4pairIKSsN5boost15program_options14variable_valueEEEC2EPKSt13_Rb_tree_nodeIS5_E576>
  41e704:	e9 00 00 00 00       	jmpq   41e709 <_ZNKSt8_Rb_treeISsSt4pairIKSsN5boost15program_options14variable_valueEESt10_Select1stIS5_ESt4lessISsESaIS5_EE3endEv300+0x29>
  41e709:	48 8b 45 f8          	mov    -0x8(%rbp),%rax
  41e70d:	48 83 c4 20          	add    $0x20,%rsp
  41e711:	5d                   	pop    %rbp
  41e712:	c3                   	retq   
--
  41e764:	48 c7 40 18 00 00 00 	movq   $0x0,0x18(%rax)
  41e76b:	00 
  41e76c:	48 8b 45 e8          	mov    -0x18(%rbp),%rax
  41e770:	48 83 c4 20          	add    $0x20,%rsp
  41e774:	5d                   	pop    %rbp
  41e775:	c3                   	retq   
--
  41e854:	48 8b 7d d0          	mov    -0x30(%rbp),%rdi
  41e858:	e8 a3 ef ff ff       	callq  41d800 <_ZNSt6vectorISsSaISsEED2Ev244>
  41e85d:	48 8b 45 c8          	mov    -0x38(%rbp),%rax
  41e861:	48 83 c4 50          	add    $0x50,%rsp
  41e865:	5d                   	pop    %rbp
  41e866:	c3                   	retq   
--
  41e8c1:	48 89 45 e8          	mov    %rax,-0x18(%rbp)
  41e8c5:	e9 00 00 00 00       	jmpq   41e8ca <_ZNK5boost3any4typeEv303+0x4a>
  41e8ca:	48 8b 45 e8          	mov    -0x18(%rbp),%rax
  41e8ce:	48 83 c4 20          	add    $0x20,%rsp
  41e8d2:	5d                   	pop    %rbp
  41e8d3:	c3                   	retq   
--
  41e8e4:	48 89 7d f8          	mov    %rdi,-0x8(%rbp)
  41e8e8:	48 8b 7d f8          	mov    -0x8(%rbp),%rdi
  41e8ec:	48 8b 7f 18          	mov    0x18(%rdi),%rdi
  41e8f0:	48 89 f8             	mov    %rdi,%rax
  41e8f3:	5d                   	pop    %rbp
  41e8f4:	c3                   	retq   
--
  41e924:	48 81 c6 b8 00 00 00 	add    $0xb8,%rsi
  41e92b:	48 89 f7             	mov    %rsi,%rdi
  41e92e:	e8 fd 12 00 00       	callq  41fc30 <_ZN5boost16exception_detail10clone_baseD2Ev363>
  41e933:	48 83 c4 10          	add    $0x10,%rsp
  41e937:	5d                   	pop    %rbp
  41e938:	c3                   	retq   
--
  41e980:	48 89 56 08          	mov    %rdx,0x8(%rsi)
  41e984:	48 8b 55 e8          	mov    -0x18(%rbp),%rdx
  41e988:	48 89 56 10          	mov    %rdx,0x10(%rsi)
  41e98c:	48 83 c4 20          	add    $0x20,%rsp
  41e990:	5d                   	pop    %rbp
  41e991:	c3                   	retq   
--
  41e9b4:	e8 c7 fb ff ff       	callq  41e580 <_ZNSt17_Rb_tree_iteratorISt4pairIKSsSsEEC2EPSt13_Rb_tree_nodeIS2_E295>
  41e9b9:	e9 00 00 00 00       	jmpq   41e9be <_ZNSt8_Rb_treeISsSt4pairIKSsSsESt10_Select1stIS2_ESt4lessISsESaIS2_EE5beginEv308+0x1e>
  41e9be:	48 8b 45 f8          	mov    -0x8(%rbp),%rax
  41e9c2:	48 83 c4 20          	add    $0x20,%rsp
  41e9c6:	5d                   	pop    %rbp
  41e9c7:	c3                   	retq   
--
  41ea0c:	48 8b 7d d8          	mov    -0x28(%rbp),%rdi
  41ea10:	48 8b 75 d0          	mov    -0x30(%rbp),%rsi
  41ea14:	e8 a7 c1 ff ff       	callq  41abc0 <_ZSt18uninitialized_copyIN9__gnu_cxx17__normal_iteratorIPKN5boost15program_options12basic_optionIcEESt6vectorIS5_SaIS5_EEEEPS5_ET0_T_SE_SD_89>
  41ea19:	48 83 c4 30          	add    $0x30,%rsp
  41ea1d:	5d                   	pop    %rbp
  41ea1e:	c3                   	retq   
--
000000000041ea20 <_ZN9__gnu_cxx13new_allocatorISt13_Rb_tree_nodeISsEED2Ev310>:
  41ea20:	55                   	push   %rbp
  41ea21:	48 89 e5             	mov    %rsp,%rbp
  41ea24:	48 89 7d f8          	mov    %rdi,-0x8(%rbp)
  41ea28:	5d                   	pop    %rbp
  41ea29:	c3                   	retq   
--
  41ea31:	48 89 e5             	mov    %rsp,%rbp
  41ea34:	48 89 7d f8          	mov    %rdi,-0x8(%rbp)
  41ea38:	48 8b 7d f8          	mov    -0x8(%rbp),%rdi
  41ea3c:	48 89 f8             	mov    %rdi,%rax
  41ea3f:	5d                   	pop    %rbp
  41ea40:	c3                   	retq   
--
  41ea93:	48 89 7e 08          	mov    %rdi,0x8(%rsi)
  41ea97:	48 8b 40 10          	mov    0x10(%rax),%rax
  41ea9b:	48 89 46 10          	mov    %rax,0x10(%rsi)
  41ea9f:	48 83 c4 20          	add    $0x20,%rsp
  41eaa3:	5d                   	pop    %rbp
  41eaa4:	c3                   	retq   
--
  41eac6:	48 03 47 d8          	add    -0x28(%rdi),%rax
  41eaca:	48 89 c7             	mov    %rax,%rdi
  41eacd:	e8 2e b0 ff ff       	callq  419b00 <_ZN5boost16exception_detail10clone_implINS0_19error_info_injectorINS_15program_options16validation_errorEEEED1Ev49>
  41ead2:	48 83 c4 10          	add    $0x10,%rsp
  41ead6:	5d                   	pop    %rbp
  41ead7:	c3                   	retq   
--
  41eae8:	48 89 7d f8          	mov    %rdi,-0x8(%rbp)
  41eaec:	48 8b 7d f8          	mov    -0x8(%rbp),%rdi
  41eaf0:	e8 1b f7 ff ff       	callq  41e210 <_ZN5boost8any_castIRKSsEET_RNS_3anyE282>
  41eaf5:	48 83 c4 10          	add    $0x10,%rsp
  41eaf9:	5d                   	pop    %rbp
  41eafa:	c3                   	retq   
--
  41ebf0:	e9 00 00 00 00       	jmpq   41ebf5 <_ZN5boost16exception_detail20copy_boost_exceptionEPNS_9exceptionEPKS1_315+0xf5>
  41ebf5:	48 8d 7d e8          	lea    -0x18(%rbp),%rdi
  41ebf9:	e8 c2 1b 00 00       	callq  4207c0 <_ZN5boost16exception_detail12refcount_ptrINS0_20error_info_containerEED2Ev400>
  41ebfe:	48 83 c4 50          	add    $0x50,%rsp
  41ec02:	5d                   	pop    %rbp
  41ec03:	c3                   	retq   
--
  41ec30:	48 8b 7d f8          	mov    -0x8(%rbp),%rdi
  41ec34:	48 8b 75 f0          	mov    -0x10(%rbp),%rsi
  41ec38:	e8 93 0e 00 00       	callq  41fad0 <_ZNSt12_Destroy_auxILb0EE9__destroyIPN5boost10shared_ptrINS2_15program_options18option_descriptionEEEEEvT_S8_358>
  41ec3d:	48 83 c4 10          	add    $0x10,%rsp
  41ec41:	5d                   	pop    %rbp
  41ec42:	c3                   	retq   
--
  41ec5b:	48 05 10 00 00 00    	add    $0x10,%rax
  41ec61:	48 89 7d f8          	mov    %rdi,-0x8(%rbp)
  41ec65:	48 8b 7d f8          	mov    -0x8(%rbp),%rdi
  41ec69:	48 89 07             	mov    %rax,(%rdi)
  41ec6c:	5d                   	pop    %rbp
  41ec6d:	c3                   	retq   
--
  41ecc4:	e8 b7 c9 ff ff       	callq  41b680 <_ZNK5boost6detail8function13basic_vtable1IvRKtE5clearERNS1_15function_bufferE134>
  41ecc9:	48 8b 45 f0          	mov    -0x10(%rbp),%rax
  41eccd:	48 c7 00 00 00 00 00 	movq   $0x0,(%rax)
  41ecd4:	48 83 c4 20          	add    $0x20,%rsp
  41ecd8:	5d                   	pop    %rbp
  41ecd9:	c3                   	retq   
--
  41ecec:	48 8b 7d f8          	mov    -0x8(%rbp),%rdi
  41ecf0:	48 81 c7 08 00 00 00 	add    $0x8,%rdi
  41ecf7:	e8 c4 ce ff ff       	callq  41bbc0 <_ZN5boost6detail12shared_countD2Ev153>
  41ecfc:	48 83 c4 10          	add    $0x10,%rsp
  41ed00:	5d                   	pop    %rbp
  41ed01:	c3                   	retq   
--
  41ed11:	48 89 e5             	mov    %rsp,%rbp
  41ed14:	48 89 7d f8          	mov    %rdi,-0x8(%rbp)
  41ed18:	48 8b 7d f8          	mov    -0x8(%rbp),%rdi
  41ed1c:	48 89 f8             	mov    %rdi,%rax
  41ed1f:	5d                   	pop    %rbp
  41ed20:	c3                   	retq   
--
  41ed48:	e8 13 e9 ff ff       	callq  41d660 <_ZN5boost6detail26lexical_stream_limited_srcIcSt11char_traitsIcELb0EE12shr_unsignedItEEbRT_240>
  41ed4d:	24 01                	and    $0x1,%al
  41ed4f:	0f b6 c0             	movzbl %al,%eax
  41ed52:	48 83 c4 10          	add    $0x10,%rsp
  41ed56:	5d                   	pop    %rbp
  41ed57:	c3                   	retq   
--
  41eda1:	48 89 c6             	mov    %rax,%rsi
  41eda4:	e8 57 d9 ff ff       	callq  41c700 <_ZNSt10_Head_baseILm0ERKSsLb0EEC2ES1_189>
  41eda9:	e9 00 00 00 00       	jmpq   41edae <_ZNSt11_Tuple_implILm0EJRKSsEEC2EOS2_322+0x4e>
  41edae:	48 83 c4 30          	add    $0x30,%rsp
  41edb2:	5d                   	pop    %rbp
  41edb3:	c3                   	retq   
--
  41eddc:	48 8b 7d f8          	mov    -0x8(%rbp),%rdi
  41ede0:	48 81 c7 f8 ff ff ff 	add    $0xfffffffffffffff8,%rdi
  41ede7:	e8 d4 b1 ff ff       	callq  419fc0 <_ZN5boost15program_options11typed_valueItcED0Ev65>
  41edec:	48 83 c4 10          	add    $0x10,%rsp
  41edf0:	5d                   	pop    %rbp
  41edf1:	c3                   	retq   
--
  41f154:	48 8b 7d 90          	mov    -0x70(%rbp),%rdi
  41f158:	e8 33 86 fe ff       	callq  407790 <_ZNSsC1ERKSs@plt>
  41f15d:	48 8b 45 88          	mov    -0x78(%rbp),%rax
  41f161:	48 81 c4 a0 00 00 00 	add    $0xa0,%rsp
  41f168:	5d                   	pop    %rbp
  41f169:	c3                   	retq   
--
  41f188:	48 89 7d f8          	mov    %rdi,-0x8(%rbp)
  41f18c:	48 8b 7d f8          	mov    -0x8(%rbp),%rdi
  41f190:	e8 cb bd ff ff       	callq  41af60 <_ZNSt13_Bvector_baseISaIbEED2Ev104>
  41f195:	48 83 c4 10          	add    $0x10,%rsp
  41f199:	5d                   	pop    %rbp
  41f19a:	c3                   	retq   
--
  41f1a4:	48 89 7d f8          	mov    %rdi,-0x8(%rbp)
  41f1a8:	48 8b 7d f8          	mov    -0x8(%rbp),%rdi
  41f1ac:	48 8b 7f 10          	mov    0x10(%rdi),%rdi
  41f1b0:	48 89 f8             	mov    %rdi,%rax
  41f1b3:	5d                   	pop    %rbp
  41f1b4:	c3                   	retq   
--
  41f1df:	48 8b 7d f0          	mov    -0x10(%rbp),%rdi
  41f1e3:	48 89 07             	mov    %rax,(%rdi)
  41f1e6:	48 89 f8             	mov    %rdi,%rax
  41f1e9:	48 83 c4 10          	add    $0x10,%rsp
  41f1ed:	5d                   	pop    %rbp
  41f1ee:	c3                   	retq   
--
  41f1f8:	48 8b 7d f8          	mov    -0x8(%rbp),%rdi
  41f1fc:	48 81 c7 08 00 00 00 	add    $0x8,%rdi
  41f203:	48 81 c7 10 00 00 00 	add    $0x10,%rdi
  41f20a:	48 89 f8             	mov    %rdi,%rax
  41f20d:	5d                   	pop    %rbp
  41f20e:	c3                   	retq   
--
  41f235:	48 8b 45 f0          	mov    -0x10(%rbp),%rax
  41f239:	48 89 c7             	mov    %rax,%rdi
  41f23c:	e8 6f 3e 00 00       	callq  4230b0 <_ZN5boost15program_options20invalid_option_valueD2Ev510>
  41f241:	48 83 c4 10          	add    $0x10,%rsp
  41f245:	5d                   	pop    %rbp
  41f246:	c3                   	retq   
--
  41f299:	48 8b 55 d8          	mov    -0x28(%rbp),%rdx
  41f29d:	48 89 02             	mov    %rax,(%rdx)
  41f2a0:	48 89 4a 08          	mov    %rcx,0x8(%rdx)
  41f2a4:	48 83 c4 30          	add    $0x30,%rsp
  41f2a8:	5d                   	pop    %rbp
  41f2a9:	c3                   	retq   
--
  41f2e0:	48 8b 7d f8          	mov    -0x8(%rbp),%rdi
  41f2e4:	48 8b 75 f0          	mov    -0x10(%rbp),%rsi
  41f2e8:	e8 13 00 00 00       	callq  41f300 <_ZNSt8_Rb_treeISsSt4pairIKSsS0_ISsSsEESt10_Select1stIS3_ESt4lessISsESaIS3_EEC2ERKS9_332>
  41f2ed:	48 83 c4 10          	add    $0x10,%rsp
  41f2f1:	5d                   	pop    %rbp
  41f2f2:	c3                   	retq   
--
  41f47b:	48 8b 7d d8          	mov    -0x28(%rbp),%rdi
  41f47f:	e8 ec a1 ff ff       	callq  419670 <_ZNSt8_Rb_treeISsSt4pairIKSsS0_ISsSsEESt10_Select1stIS3_ESt4lessISsESaIS3_EE13_Rb_tree_implIS7_Lb1EED2Ev26>
  41f484:	e9 09 00 00 00       	jmpq   41f492 <_ZNSt8_Rb_treeISsSt4pairIKSsS0_ISsSsEESt10_Select1stIS3_ESt4lessISsESaIS3_EEC2ERKS9_332+0x192>
  41f489:	48 81 c4 a0 00 00 00 	add    $0xa0,%rsp
  41f490:	5d                   	pop    %rbp
  41f491:	c3                   	retq   
--
  41f54e:	48 89 c6             	mov    %rax,%rsi
  41f551:	e8 aa f5 ff ff       	callq  41eb00 <_ZN5boost16exception_detail20copy_boost_exceptionEPNS_9exceptionEPKS1_315>
  41f556:	e9 00 00 00 00       	jmpq   41f55b <_ZN5boost16exception_detail10clone_implINS0_19error_info_injectorINS_15program_options20invalid_option_valueEEEEC1ERKS6_NS6_9clone_tagE333+0xbb>
  41f55b:	48 83 c4 50          	add    $0x50,%rsp
  41f55f:	5d                   	pop    %rbp
  41f560:	c3                   	retq   
--
  41f591:	e8 9a 06 00 00       	callq  41fc30 <_ZN5boost16exception_detail10clone_baseD2Ev363>
  41f596:	48 8b 7d e0          	mov    -0x20(%rbp),%rdi
  41f59a:	e8 c1 86 fe ff       	callq  407c60 <_Unwind_Resume@plt>
  41f59f:	90                   	nop

000000000041f5a0 <_ZTv0_n32_NK5boost16exception_detail10clone_implINS0_19error_info_injectorINS_12bad_any_castEEEE7rethrowEv334>:
--
  41f5ac:	48 8b 7d f8          	mov    -0x8(%rbp),%rdi
  41f5b0:	48 89 f8             	mov    %rdi,%rax
  41f5b3:	48 8b 3f             	mov    (%rdi),%rdi
  41f5b6:	48 03 47 e0          	add    -0x20(%rdi),%rax
  41f5ba:	48 89 c7             	mov    %rax,%rdi
  41f5bd:	e8 de b6 ff ff       	callq  41aca0 <_ZNK5boost16exception_detail10clone_implINS0_19error_info_injectorINS_12bad_any_castEEEE7rethrowEv92>
  41f5c2:	48 83 c4 10          	add    $0x10,%rsp
  41f5c6:	5d                   	pop    %rbp
  41f5c7:	c3                   	retq   
--
  41f5d8:	48 89 7d f8          	mov    %rdi,-0x8(%rbp)
  41f5dc:	48 8b 7d f8          	mov    -0x8(%rbp),%rdi
  41f5e0:	e8 2b c6 ff ff       	callq  41bc10 <_ZNK9__gnu_cxx13new_allocatorISsE8max_sizeEv154>
  41f5e5:	48 83 c4 10          	add    $0x10,%rsp
  41f5e9:	5d                   	pop    %rbp
  41f5ea:	c3                   	retq   
--
  41f604:	e8 17 31 00 00       	callq  422720 <_ZN5boost15program_options14value_semanticD2Ev476>
  41f609:	48 8b 7d f0          	mov    -0x10(%rbp),%rdi
  41f60d:	e8 5e 80 fe ff       	callq  407670 <_ZdlPv@plt>
  41f612:	48 83 c4 10          	add    $0x10,%rsp
  41f616:	5d                   	pop    %rbp
  41f617:	c3                   	retq   
--
  41f62c:	48 8b 7d f8          	mov    -0x8(%rbp),%rdi
  41f630:	48 81 c7 f8 ff ff ff 	add    $0xfffffffffffffff8,%rdi
  41f637:	e8 24 cd ff ff       	callq  41c360 <_ZN5boost15program_options11typed_valueISscED2Ev182>
  41f63c:	48 83 c4 10          	add    $0x10,%rsp
  41f640:	5d                   	pop    %rbp
  41f641:	c3                   	retq   
--
  41f651:	48 89 e5             	mov    %rsp,%rbp
  41f654:	48 89 7d f8          	mov    %rdi,-0x8(%rbp)
  41f658:	48 8b 7d f8          	mov    -0x8(%rbp),%rdi
  41f65c:	48 89 f8             	mov    %rdi,%rax
  41f65f:	5d                   	pop    %rbp
  41f660:	c3                   	retq   
--
  41f68c:	48 89 f7             	mov    %rsi,%rdi
  41f68f:	48 8b 75 e8          	mov    -0x18(%rbp),%rsi
  41f693:	e8 c8 f6 ff ff       	callq  41ed60 <_ZNSt11_Tuple_implILm0EJRKSsEEC2EOS2_322>
  41f698:	48 83 c4 20          	add    $0x20,%rsp
  41f69c:	5d                   	pop    %rbp
  41f69d:	c3                   	retq   
--
  41f6a0:	55                   	push   %rbp
  41f6a1:	48 89 e5             	mov    %rsp,%rbp
  41f6a4:	48 89 7d f8          	mov    %rdi,-0x8(%rbp)
  41f6a8:	48 8b 45 f8          	mov    -0x8(%rbp),%rax
  41f6ac:	5d                   	pop    %rbp
  41f6ad:	c3                   	retq   
--
  41f6e6:	48 8b 7d e0          	mov    -0x20(%rbp),%rdi
  41f6ea:	48 89 c6             	mov    %rax,%rsi
  41f6ed:	e8 ae e2 ff ff       	callq  41d9a0 <_ZN5boost15program_options12basic_optionIcEC2ERKS2_251>
  41f6f2:	48 83 c4 20          	add    $0x20,%rsp
  41f6f6:	5d                   	pop    %rbp
  41f6f7:	c3                   	retq   
--
  41f708:	48 89 7d f8          	mov    %rdi,-0x8(%rbp)
  41f70c:	48 8b 7d f8          	mov    -0x8(%rbp),%rdi
  41f710:	e8 0b 81 fe ff       	callq  407820 <strlen@plt>
  41f715:	48 83 c4 10          	add    $0x10,%rsp
  41f719:	5d                   	pop    %rbp
  41f71a:	c3                   	retq   
--
  41f728:	48 89 7d f8          	mov    %rdi,-0x8(%rbp)
  41f72c:	e8 3f 08 00 00       	callq  41ff70 <_ZN5boost9function1ISt6vectorINS_15program_options12basic_optionIcEESaIS4_EERS1_ISsSaISsEEE5clearEv368>
  41f731:	e9 00 00 00 00       	jmpq   41f736 <_ZN5boost9function1ISt6vectorINS_15program_options12basic_optionIcEESaIS4_EERS1_ISsSaISsEEED2Ev343+0x16>
  41f736:	48 83 c4 10          	add    $0x10,%rsp
  41f73a:	5d                   	pop    %rbp
  41f73b:	c3                   	retq   
--
  41f77b:	48 89 77 18          	mov    %rsi,0x18(%rdi)
  41f77f:	8b 55 ec             	mov    -0x14(%rbp),%edx
  41f782:	89 57 20             	mov    %edx,0x20(%rdi)
  41f785:	48 83 c4 20          	add    $0x20,%rsp
  41f789:	5d                   	pop    %rbp
  41f78a:	c3                   	retq   
--
  41f7e9:	48 8b 55 d8          	mov    -0x28(%rbp),%rdx
  41f7ed:	48 89 02             	mov    %rax,(%rdx)
  41f7f0:	48 89 4a 10          	mov    %rcx,0x10(%rdx)
  41f7f4:	48 83 c4 30          	add    $0x30,%rsp
  41f7f8:	5d                   	pop    %rbp
  41f7f9:	c3                   	retq   
--
  41f833:	48 89 7d f8          	mov    %rdi,-0x8(%rbp)
  41f837:	48 8b 7d f8          	mov    -0x8(%rbp),%rdi
  41f83b:	e8 b0 bb ff ff       	callq  41b3f0 <_ZN9__gnu_cxx13new_allocatorISt13_Rb_tree_nodeISt4pairIKSsSsEEE8allocateEmPKv122>
  41f840:	48 83 c4 10          	add    $0x10,%rsp
  41f844:	5d                   	pop    %rbp
  41f845:	c3                   	retq   
--
  41f8bb:	48 8b 45 f0          	mov    -0x10(%rbp),%rax
  41f8bf:	48 89 c7             	mov    %rax,%rdi
  41f8c2:	e8 99 a0 ff ff       	callq  419960 <_ZN5boost15program_options5errorD2Ev41>
  41f8c7:	48 83 c4 10          	add    $0x10,%rsp
  41f8cb:	5d                   	pop    %rbp
  41f8cc:	c3                   	retq   
--
  41f8e4:	e8 b7 55 00 00       	callq  424ea0 <_ZN5boost16exception_detail19error_info_injectorINS_16bad_lexical_castEED2Ev615>
  41f8e9:	48 8b 7d f0          	mov    -0x10(%rbp),%rdi
  41f8ed:	e8 7e 7d fe ff       	callq  407670 <_ZdlPv@plt>
  41f8f2:	48 83 c4 10          	add    $0x10,%rsp
  41f8f6:	5d                   	pop    %rbp
  41f8f7:	c3                   	retq   
--
  41f908:	48 8b 7d f8          	mov    -0x8(%rbp),%rdi
  41f90c:	48 81 c7 08 00 00 00 	add    $0x8,%rdi
  41f913:	48 81 c7 18 00 00 00 	add    $0x18,%rdi
  41f91a:	48 89 f8             	mov    %rdi,%rax
  41f91d:	5d                   	pop    %rbp
  41f91e:	c3                   	retq   
--
  41f934:	e8 27 a0 ff ff       	callq  419960 <_ZN5boost15program_options5errorD2Ev41>
  41f939:	48 8b 7d f0          	mov    -0x10(%rbp),%rdi
  41f93d:	e8 2e 7d fe ff       	callq  407670 <_ZdlPv@plt>
  41f942:	48 83 c4 10          	add    $0x10,%rsp
  41f946:	5d                   	pop    %rbp
  41f947:	c3                   	retq   
--
  41f974:	48 81 c6 30 00 00 00 	add    $0x30,%rsi
  41f97b:	48 89 f7             	mov    %rsi,%rdi
  41f97e:	e8 ad 02 00 00       	callq  41fc30 <_ZN5boost16exception_detail10clone_baseD2Ev363>
  41f983:	48 83 c4 10          	add    $0x10,%rsp
  41f987:	5d                   	pop    %rbp
  41f988:	c3                   	retq   
--
  41f9cc:	48 8b 00             	mov    (%rax),%rax
  41f9cf:	48 8b 75 f0          	mov    -0x10(%rbp),%rsi
  41f9d3:	48 89 06             	mov    %rax,(%rsi)
  41f9d6:	48 83 c4 20          	add    $0x20,%rsp
  41f9da:	5d                   	pop    %rbp
  41f9db:	c3                   	retq   
--
  41fa19:	00 
  41fa1a:	48 c7 40 10 00 00 00 	movq   $0x0,0x10(%rax)
  41fa21:	00 
  41fa22:	48 83 c4 20          	add    $0x20,%rsp
  41fa26:	5d                   	pop    %rbp
  41fa27:	c3                   	retq   
--
  41fa30:	55                   	push   %rbp
  41fa31:	48 89 e5             	mov    %rsp,%rbp
  41fa34:	48 89 7d f8          	mov    %rdi,-0x8(%rbp)
  41fa38:	48 89 75 f0          	mov    %rsi,-0x10(%rbp)
  41fa3c:	5d                   	pop    %rbp
  41fa3d:	c3                   	retq   
--
  41fa6e:	48 05 10 00 00 00    	add    $0x10,%rax
  41fa74:	48 8b 75 e8          	mov    -0x18(%rbp),%rsi
  41fa78:	48 89 06             	mov    %rax,(%rsi)
  41fa7b:	48 83 c4 20          	add    $0x20,%rsp
  41fa7f:	5d                   	pop    %rbp
  41fa80:	c3                   	retq   
--
000000000041fa90 <_ZN5boost15program_options22abstract_variables_mapD2Ev356>:
  41fa90:	55                   	push   %rbp
  41fa91:	48 89 e5             	mov    %rsp,%rbp
  41fa94:	48 89 7d f8          	mov    %rdi,-0x8(%rbp)
  41fa98:	5d                   	pop    %rbp
  41fa99:	c3                   	retq   
--
  41fab4:	48 8b 7d f8          	mov    -0x8(%rbp),%rdi
  41fab8:	48 8b 75 f0          	mov    -0x10(%rbp),%rsi
  41fabc:	e8 0f b6 ff ff       	callq  41b0d0 <_ZSt8_DestroyIPSsEvT_S1_110>
  41fac1:	48 83 c4 20          	add    $0x20,%rsp
  41fac5:	5d                   	pop    %rbp
  41fac6:	c3                   	retq   
--
  41fb03:	48 05 10 00 00 00    	add    $0x10,%rax
  41fb09:	48 89 45 f8          	mov    %rax,-0x8(%rbp)
  41fb0d:	e9 ce ff ff ff       	jmpq   41fae0 <_ZNSt12_Destroy_auxILb0EE9__destroyIPN5boost10shared_ptrINS2_15program_options18option_descriptionEEEEEvT_S8_358+0x10>
  41fb12:	48 83 c4 10          	add    $0x10,%rsp
  41fb16:	5d                   	pop    %rbp
  41fb17:	c3                   	retq   
--
  41fb28:	48 89 7d f8          	mov    %rdi,-0x8(%rbp)
  41fb2c:	48 8b 7d f8          	mov    -0x8(%rbp),%rdi
  41fb30:	e8 eb 26 00 00       	callq  422220 <_ZSt12__get_helperILm0ERKSsJEENSt9__add_refIT0_E4typeERSt11_Tuple_implIXT_EJS3_DpT1_EE460>
  41fb35:	48 83 c4 10          	add    $0x10,%rsp
  41fb39:	5d                   	pop    %rbp
  41fb3a:	c3                   	retq   
--
  41fb48:	48 89 7d f8          	mov    %rdi,-0x8(%rbp)
  41fb4c:	48 8b 7d f8          	mov    -0x8(%rbp),%rdi
  41fb50:	e8 8b c1 ff ff       	callq  41bce0 <_ZN5boost10shared_ptrINS_15program_options18option_descriptionEED2Ev159>
  41fb55:	48 83 c4 10          	add    $0x10,%rsp
  41fb59:	5d                   	pop    %rbp
  41fb5a:	c3                   	retq   
--
  41fb8f:	48 8b 45 e8          	mov    -0x18(%rbp),%rax
  41fb93:	48 8b 00             	mov    (%rax),%rax
  41fb96:	48 89 42 08          	mov    %rax,0x8(%rdx)
  41fb9a:	48 83 c4 20          	add    $0x20,%rsp
  41fb9e:	5d                   	pop    %rbp
  41fb9f:	c3                   	retq   
--
  41fc02:	48 01 c8             	add    %rcx,%rax
  41fc05:	48 89 45 c0          	mov    %rax,-0x40(%rbp)
  41fc09:	48 8b 45 c0          	mov    -0x40(%rbp),%rax
  41fc0d:	48 83 c4 40          	add    $0x40,%rsp
  41fc11:	5d                   	pop    %rbp
  41fc12:	c3                   	retq   
--
000000000041fc30 <_ZN5boost16exception_detail10clone_baseD2Ev363>:
  41fc30:	55                   	push   %rbp
  41fc31:	48 89 e5             	mov    %rsp,%rbp
  41fc34:	48 89 7d f8          	mov    %rdi,-0x8(%rbp)
  41fc38:	5d                   	pop    %rbp
  41fc39:	c3                   	retq   
--
  41fc78:	48 8b 00             	mov    (%rax),%rax
  41fc7b:	48 8b 55 e0          	mov    -0x20(%rbp),%rdx
  41fc7f:	48 89 42 08          	mov    %rax,0x8(%rdx)
  41fc83:	48 83 c4 20          	add    $0x20,%rsp
  41fc87:	5d                   	pop    %rbp
  41fc88:	c3                   	retq   
--
  41fc9c:	48 8b 7d f8          	mov    -0x8(%rbp),%rdi
  41fca0:	48 81 c7 f0 ff ff ff 	add    $0xfffffffffffffff0,%rdi
  41fca7:	e8 94 99 ff ff       	callq  419640 <_ZN5boost16exception_detail19error_info_injectorINS_17bad_function_callEED0Ev25>
  41fcac:	48 83 c4 10          	add    $0x10,%rsp
  41fcb0:	5d                   	pop    %rbp
  41fcb1:	c3                   	retq   
--
  41fe5e:	48 8b 75 e0          	mov    -0x20(%rbp),%rsi
  41fe62:	48 8b 55 e8          	mov    -0x18(%rbp),%rdx
  41fe66:	48 8b 7d b8          	mov    -0x48(%rbp),%rdi
  41fe6a:	e8 71 05 00 00       	callq  4203e0 <_ZNSt12_Vector_baseISsSaISsEE13_M_deallocateEPSsm386>
  41fe6f:	e9 00 00 00 00       	jmpq   41fe74 <_ZNSt6vectorISsSaISsEE19_M_emplace_back_auxIJSsEEEvDpOT_366+0x1b4>
  41fe74:	e8 57 78 fe ff       	callq  4076d0 <__cxa_rethrow@plt>
--
  41ff04:	48 c1 e2 03          	shl    $0x3,%rdx
  41ff08:	48 01 d0             	add    %rdx,%rax
  41ff0b:	48 89 41 10          	mov    %rax,0x10(%rcx)
  41ff0f:	48 81 c4 c0 00 00 00 	add    $0xc0,%rsp
  41ff16:	5d                   	pop    %rbp
  41ff17:	c3                   	retq   
--
  41ff53:	48 89 45 f0          	mov    %rax,-0x10(%rbp)
  41ff57:	e8 54 40 00 00       	callq  423fb0 <_ZN5boost16exception_detail10clone_implINS0_19error_info_injectorINS_12bad_any_castEEEEC1ERKS4_565>
  41ff5c:	48 8b 45 f0          	mov    -0x10(%rbp),%rax
  41ff60:	48 83 c4 10          	add    $0x10,%rsp
  41ff64:	5d                   	pop    %rbp
  41ff65:	c3                   	retq   
--
  41ffc4:	e8 b7 d1 ff ff       	callq  41d180 <_ZNK5boost6detail8function13basic_vtable1ISt6vectorINS_15program_options12basic_optionIcEESaIS6_EERS3_ISsSaISsEEE5clearERNS1_15function_bufferE225>
  41ffc9:	48 8b 45 f0          	mov    -0x10(%rbp),%rax
  41ffcd:	48 c7 00 00 00 00 00 	movq   $0x0,(%rax)
  41ffd4:	48 83 c4 20          	add    $0x20,%rsp
  41ffd8:	5d                   	pop    %rbp
  41ffd9:	c3                   	retq   
--
  42001a:	48 8b 7d d8          	mov    -0x28(%rbp),%rdi
  42001e:	48 89 c6             	mov    %rax,%rsi
  420021:	e8 0a 3c 00 00       	callq  423c30 <_ZNSt13_Rb_tree_nodeISt4pairIKSsS0_ISsSsEEEC2IJRKS3_EEEDpOT_552>
  420026:	48 83 c4 30          	add    $0x30,%rsp
  42002a:	5d                   	pop    %rbp
  42002b:	c3                   	retq   
--
  42003c:	48 8b 7d f8          	mov    -0x8(%rbp),%rdi
  420040:	48 81 c7 08 00 00 00 	add    $0x8,%rdi
  420047:	e8 74 bb ff ff       	callq  41bbc0 <_ZN5boost6detail12shared_countD2Ev153>
  42004c:	48 83 c4 10          	add    $0x10,%rsp
  420050:	5d                   	pop    %rbp
  420051:	c3                   	retq   
--
  42006c:	48 8b 7d f8          	mov    -0x8(%rbp),%rdi
  420070:	48 81 c7 f8 ff ff ff 	add    $0xfffffffffffffff8,%rdi
  420077:	e8 74 a0 ff ff       	callq  41a0f0 <_ZNK5boost15program_options11typed_valueISscE10value_typeEv70>
  42007c:	48 83 c4 10          	add    $0x10,%rsp
  420080:	5d                   	pop    %rbp
  420081:	c3                   	retq   
--
  420094:	48 89 7d f8          	mov    %rdi,-0x8(%rbp)
  420098:	48 8b 7d f8          	mov    -0x8(%rbp),%rdi
  42009c:	48 8b 7f 10          	mov    0x10(%rdi),%rdi
  4200a0:	48 89 f8             	mov    %rdi,%rax
  4200a3:	5d                   	pop    %rbp
  4200a4:	c3                   	retq   
--
  4200cf:	48 8b 7d f0          	mov    -0x10(%rbp),%rdi
  4200d3:	48 89 07             	mov    %rax,(%rdi)
  4200d6:	48 89 f8             	mov    %rdi,%rax
  4200d9:	48 83 c4 10          	add    $0x10,%rsp
  4200dd:	5d                   	pop    %rbp
  4200de:	c3                   	retq   
--
  420104:	48 89 47 18          	mov    %rax,0x18(%rdi)
  420108:	48 89 f8             	mov    %rdi,%rax
  42010b:	48 05 08 00 00 00    	add    $0x8,%rax
  420111:	48 89 47 20          	mov    %rax,0x20(%rdi)
  420115:	5d                   	pop    %rbp
  420116:	c3                   	retq   
--
  420136:	48 03 47 d8          	add    -0x28(%rdi),%rax
  42013a:	48 89 c7             	mov    %rax,%rdi
  42013d:	e8 0e f8 ff ff       	callq  41f950 <_ZN5boost16exception_detail10clone_implINS0_19error_info_injectorINS_12bad_any_castEEEED1Ev351>
  420142:	48 83 c4 10          	add    $0x10,%rsp
  420146:	5d                   	pop    %rbp
  420147:	c3                   	retq   
--
  420166:	48 03 47 d8          	add    -0x28(%rdi),%rax
  42016a:	48 89 c7             	mov    %rax,%rdi
  42016d:	e8 fe ae ff ff       	callq  41b070 <_ZN5boost16exception_detail10clone_implINS0_19error_info_injectorINS_17bad_function_callEEEED1Ev108>
  420172:	48 83 c4 10          	add    $0x10,%rsp
  420176:	5d                   	pop    %rbp
  420177:	c3                   	retq   
--
  420196:	48 03 47 d8          	add    -0x28(%rdi),%rax
  42019a:	48 89 c7             	mov    %rax,%rdi
  42019d:	e8 0e b1 ff ff       	callq  41b2b0 <_ZN5boost16exception_detail10clone_implINS0_19error_info_injectorINS_15program_options16validation_errorEEEED0Ev116>
  4201a2:	48 83 c4 10          	add    $0x10,%rsp
  4201a6:	5d                   	pop    %rbp
  4201a7:	c3                   	retq   
--
  4201b8:	48 89 7d f8          	mov    %rdi,-0x8(%rbp)
  4201bc:	48 8b 7d f8          	mov    -0x8(%rbp),%rdi
  4201c0:	e8 2b b3 ff ff       	callq  41b4f0 <_ZN9__gnu_cxx13new_allocatorIN5boost10shared_ptrINS1_15program_options19options_descriptionEEEED2Ev126>
  4201c5:	48 83 c4 10          	add    $0x10,%rsp
  4201c9:	5d                   	pop    %rbp
  4201ca:	c3                   	retq   
--
  420244:	48 8b 7d e8          	mov    -0x18(%rbp),%rdi
  420248:	48 89 c6             	mov    %rax,%rsi
  42024b:	e8 70 fa ff ff       	callq  41fcc0 <_ZNSt6vectorISsSaISsEE19_M_emplace_back_auxIJSsEEEvDpOT_366>
  420250:	48 83 c4 30          	add    $0x30,%rsp
  420254:	5d                   	pop    %rbp
  420255:	c3                   	retq   
  420256:	66 2e 0f 1f 84 00 00 	nopw   %cs:0x0(%rax,%rax,1)
  42025d:	00 00 00 

0000000000420260 <_ZTv0_n32_NK5boost16exception_detail10clone_implINS0_19error_info_injectorINS_15program_options20invalid_option_valueEEEE7rethrowEv380>:
--
  42026c:	48 8b 7d f8          	mov    -0x8(%rbp),%rdi
  420270:	48 89 f8             	mov    %rdi,%rax
  420273:	48 8b 3f             	mov    (%rdi),%rdi
  420276:	48 03 47 e0          	add    -0x20(%rdi),%rax
  42027a:	48 89 c7             	mov    %rax,%rdi
  42027d:	e8 8e 9f ff ff       	callq  41a210 <_ZNK5boost16exception_detail10clone_implINS0_19error_info_injectorINS_15program_options20invalid_option_valueEEEE7rethrowEv73>
  420282:	48 83 c4 10          	add    $0x10,%rsp
  420286:	5d                   	pop    %rbp
  420287:	c3                   	retq   
--
  4202c2:	48 8b 55 e8          	mov    -0x18(%rbp),%rdx
  4202c6:	48 89 c7             	mov    %rax,%rdi
  4202c9:	e8 a2 53 00 00       	callq  425670 <_ZN9__gnu_cxx13new_allocatorIN5boost10shared_ptrINS1_15program_options19options_descriptionEEEE10deallocateEPS5_m648>
  4202ce:	48 83 c4 20          	add    $0x20,%rsp
  4202d2:	5d                   	pop    %rbp
  4202d3:	c3                   	retq   
--
  4202e4:	48 89 7d f8          	mov    %rdi,-0x8(%rbp)
  4202e8:	48 8b 7d f8          	mov    -0x8(%rbp),%rdi
  4202ec:	48 8b 7f 10          	mov    0x10(%rdi),%rdi
  4202f0:	48 89 f8             	mov    %rdi,%rax
  4202f3:	5d                   	pop    %rbp
  4202f4:	c3                   	retq   
--
  42033c:	48 8b 45 d8          	mov    -0x28(%rbp),%rax
  420340:	48 89 c7             	mov    %rax,%rdi
  420343:	e8 18 44 00 00       	callq  424760 <_ZNSt12_Vector_baseIN5boost10shared_ptrINS0_15program_options19options_descriptionEEESaIS4_EED2Ev590>
  420348:	48 83 c4 30          	add    $0x30,%rsp
  42034c:	5d                   	pop    %rbp
  42034d:	c3                   	retq   
--
  420371:	48 89 e5             	mov    %rsp,%rbp
  420374:	48 89 7d f8          	mov    %rdi,-0x8(%rbp)
  420378:	48 8b 7d f8          	mov    -0x8(%rbp),%rdi
  42037c:	48 89 f8             	mov    %rdi,%rax
  42037f:	5d                   	pop    %rbp
  420380:	c3                   	retq   
--
  4203c9:	00 
  4203ca:	48 c7 40 10 00 00 00 	movq   $0x0,0x10(%rax)
  4203d1:	00 
  4203d2:	48 83 c4 20          	add    $0x20,%rsp
  4203d6:	5d                   	pop    %rbp
  4203d7:	c3                   	retq   
--
  420412:	48 8b 55 e8          	mov    -0x18(%rbp),%rdx
  420416:	48 89 c7             	mov    %rax,%rdi
  420419:	e8 02 b1 ff ff       	callq  41b520 <_ZN9__gnu_cxx13new_allocatorISsE10deallocateEPSsm128>
  42041e:	48 83 c4 20          	add    $0x20,%rsp
  420422:	5d                   	pop    %rbp
  420423:	c3                   	retq   
--
  420431:	48 89 e5             	mov    %rsp,%rbp
  420434:	48 89 7d f8          	mov    %rdi,-0x8(%rbp)
  420438:	48 8b 7d f8          	mov    -0x8(%rbp),%rdi
  42043c:	48 89 f8             	mov    %rdi,%rax
  42043f:	5d                   	pop    %rbp
  420440:	c3                   	retq   
--
  420450:	55                   	push   %rbp
  420451:	48 89 e5             	mov    %rsp,%rbp
  420454:	66 b8 ff ff          	mov    $0xffff,%ax
  420458:	0f b7 c0             	movzwl %ax,%eax
  42045b:	5d                   	pop    %rbp
  42045c:	c3                   	retq   
--
  420464:	48 89 7d f8          	mov    %rdi,-0x8(%rbp)
  420468:	48 8b 7d f8          	mov    -0x8(%rbp),%rdi
  42046c:	48 8b 7f 10          	mov    0x10(%rdi),%rdi
  420470:	48 89 f8             	mov    %rdi,%rax
  420473:	5d                   	pop    %rbp
  420474:	c3                   	retq   
--
  42049c:	89 ca                	mov    %ecx,%edx
  42049e:	48 0f 45 fa          	cmovne %rdx,%rdi
  4204a2:	48 89 f8             	mov    %rdi,%rax
  4204a5:	48 83 c4 10          	add    $0x10,%rsp
  4204a9:	5d                   	pop    %rbp
  4204aa:	c3                   	retq   
--
  4204b8:	48 89 7d f8          	mov    %rdi,-0x8(%rbp)
  4204bc:	e8 af e7 ff ff       	callq  41ec70 <_ZN5boost9function1IvRKtE5clearEv318>
  4204c1:	e9 00 00 00 00       	jmpq   4204c6 <_ZN5boost9function1IvRKtED2Ev391+0x16>
  4204c6:	48 83 c4 10          	add    $0x10,%rsp
  4204ca:	5d                   	pop    %rbp
  4204cb:	c3                   	retq   
--
  42051b:	e8 f0 4d 00 00       	callq  425310 <_ZN5boost3any6holderItEC2ERKt631>
  420520:	e9 00 00 00 00       	jmpq   420525 <_ZNK5boost3any6holderItE5cloneEv392+0x45>
  420525:	48 8b 45 d8          	mov    -0x28(%rbp),%rax
  420529:	48 83 c4 30          	add    $0x30,%rsp
  42052d:	5d                   	pop    %rbp
  42052e:	c3                   	retq   
--
  420551:	48 89 e5             	mov    %rsp,%rbp
  420554:	48 89 7d f8          	mov    %rdi,-0x8(%rbp)
  420558:	48 8b 7d f8          	mov    -0x8(%rbp),%rdi
  42055c:	48 8b 47 28          	mov    0x28(%rdi),%rax
  420560:	5d                   	pop    %rbp
  420561:	c3                   	retq   
--
  420574:	48 89 7d f8          	mov    %rdi,-0x8(%rbp)
  420578:	48 8b 7d f8          	mov    -0x8(%rbp),%rdi
  42057c:	48 8b 7f 10          	mov    0x10(%rdi),%rdi
  420580:	48 89 f8             	mov    %rdi,%rax
  420583:	5d                   	pop    %rbp
  420584:	c3                   	retq   
--
  420697:	48 8b 75 c8          	mov    -0x38(%rbp),%rsi
  42069b:	48 8b 7d 98          	mov    -0x68(%rbp),%rdi
  42069f:	48 89 85 60 ff ff ff 	mov    %rax,-0xa0(%rbp)
  4206a6:	e8 15 3c 00 00       	callq  4242c0 <_ZNSt8_Rb_treeISsSt4pairIKSsSsESt10_Select1stIS2_ESt4lessISsESaIS2_EE15_M_destroy_nodeEPSt13_Rb_tree_nodeIS2_E577>
  4206ab:	e9 00 00 00 00       	jmpq   4206b0 <_ZNSt8_Rb_treeISsSt4pairIKSsSsESt10_Select1stIS2_ESt4lessISsESaIS2_EE22_M_emplace_hint_uniqueIJRKSt21piecewise_construct_tSt5tupleIJRS1_EESD_IJEEEEESt17_Rb_tree_iteratorIS2_ESt23_Rb_tree_const_iteratorIS2_EDpOT_395+0x120>
  4206b0:	e8 1b 70 fe ff       	callq  4076d0 <__cxa_rethrow@plt>
--
  4206f1:	e9 00 00 00 00       	jmpq   4206f6 <_ZNSt8_Rb_treeISsSt4pairIKSsSsESt10_Select1stIS2_ESt4lessISsESaIS2_EE22_M_emplace_hint_uniqueIJRKSt21piecewise_construct_tSt5tupleIJRS1_EESD_IJEEEEESt17_Rb_tree_iteratorIS2_ESt23_Rb_tree_const_iteratorIS2_EDpOT_395+0x166>
  4206f6:	e9 0d 00 00 00       	jmpq   420708 <_ZNSt8_Rb_treeISsSt4pairIKSsSsESt10_Select1stIS2_ESt4lessISsESaIS2_EE22_M_emplace_hint_uniqueIJRKSt21piecewise_construct_tSt5tupleIJRS1_EESD_IJEEEEESt17_Rb_tree_iteratorIS2_ESt23_Rb_tree_const_iteratorIS2_EDpOT_395+0x178>
  4206fb:	48 8b 45 f8          	mov    -0x8(%rbp),%rax
  4206ff:	48 81 c4 b0 00 00 00 	add    $0xb0,%rsp
  420706:	5d                   	pop    %rbp
  420707:	c3                   	retq   
--
  420730:	55                   	push   %rbp
  420731:	48 89 e5             	mov    %rsp,%rbp
  420734:	48 89 7d f8          	mov    %rdi,-0x8(%rbp)
  420738:	48 8b 45 f8          	mov    -0x8(%rbp),%rax
  42073c:	5d                   	pop    %rbp
  42073d:	c3                   	retq   
--
  420740:	55                   	push   %rbp
  420741:	48 89 e5             	mov    %rsp,%rbp
  420744:	48 89 7d f8          	mov    %rdi,-0x8(%rbp)
  420748:	48 8b 45 f8          	mov    -0x8(%rbp),%rax
  42074c:	5d                   	pop    %rbp
  42074d:	c3                   	retq   
--
  420783:	48 05 48 00 00 00    	add    $0x48,%rax
  420789:	48 89 45 f8          	mov    %rax,-0x8(%rbp)
  42078d:	e9 ce ff ff ff       	jmpq   420760 <_ZNSt12_Destroy_auxILb0EE9__destroyIPN5boost15program_options12basic_optionIcEEEEvT_S7_398+0x10>
  420792:	48 83 c4 10          	add    $0x10,%rsp
  420796:	5d                   	pop    %rbp
  420797:	c3                   	retq   
--
  4207a1:	48 89 e5             	mov    %rsp,%rbp
  4207a4:	48 89 7d f8          	mov    %rdi,-0x8(%rbp)
  4207a8:	48 8b 7d f8          	mov    -0x8(%rbp),%rdi
  4207ac:	48 8b 07             	mov    (%rdi),%rax
  4207af:	5d                   	pop    %rbp
  4207b0:	c3                   	retq   
--
  4207c8:	48 89 7d f8          	mov    %rdi,-0x8(%rbp)
  4207cc:	e8 5f 4c 00 00       	callq  425430 <_ZN5boost16exception_detail12refcount_ptrINS0_20error_info_containerEE7releaseEv637>
  4207d1:	e9 00 00 00 00       	jmpq   4207d6 <_ZN5boost16exception_detail12refcount_ptrINS0_20error_info_containerEED2Ev400+0x16>
  4207d6:	48 83 c4 10          	add    $0x10,%rsp
  4207da:	5d                   	pop    %rbp
  4207db:	c3                   	retq   
--
  42089f:	48 8b 45 f0          	mov    -0x10(%rbp),%rax
  4208a3:	48 89 c7             	mov    %rax,%rdi
  4208a6:	e8 05 36 00 00       	callq  423eb0 <_ZN5boost15program_options29value_semantic_codecvt_helperIcED2Ev562>
  4208ab:	48 83 c4 10          	add    $0x10,%rsp
  4208af:	5d                   	pop    %rbp
  4208b0:	c3                   	retq   
--
  420bdb:	e8 80 ef ff ff       	callq  41fb60 <_ZNSt4pairIPSt18_Rb_tree_node_baseS1_EC2IRS1_vEEOT_RKS1_361>
  420be0:	48 8b 45 f0          	mov    -0x10(%rbp),%rax
  420be4:	48 8b 55 f8          	mov    -0x8(%rbp),%rdx
  420be8:	48 81 c4 a0 00 00 00 	add    $0xa0,%rsp
  420bef:	5d                   	pop    %rbp
  420bf0:	c3                   	retq   
--
  420c14:	48 8b 7d f8          	mov    -0x8(%rbp),%rdi
  420c18:	48 8b 75 f0          	mov    -0x10(%rbp),%rsi
  420c1c:	e8 9f 49 00 00       	callq  4255c0 <_ZSt8_DestroyIPN5boost15program_options12basic_optionIcEEEvT_S5_643>
  420c21:	48 83 c4 20          	add    $0x20,%rsp
  420c25:	5d                   	pop    %rbp
  420c26:	c3                   	retq   
--
  420c79:	48 8b 55 d8          	mov    -0x28(%rbp),%rdx
  420c7d:	48 89 02             	mov    %rax,(%rdx)
  420c80:	48 89 4a 18          	mov    %rcx,0x18(%rdx)
  420c84:	48 83 c4 30          	add    $0x30,%rsp
  420c88:	5d                   	pop    %rbp
  420c89:	c3                   	retq   
--
  420d1e:	48 8b 75 e8          	mov    -0x18(%rbp),%rsi
  420d22:	48 8b 7d d0          	mov    -0x30(%rbp),%rdi
  420d26:	48 89 45 b8          	mov    %rax,-0x48(%rbp)
  420d2a:	e8 61 ca ff ff       	callq  41d790 <_ZNSt8_Rb_treeISsSt4pairIKSsSsESt10_Select1stIS2_ESt4lessISsESaIS2_EE11_M_put_nodeEPSt13_Rb_tree_nodeIS2_E242>
  420d2f:	e9 00 00 00 00       	jmpq   420d34 <_ZNSt8_Rb_treeISsSt4pairIKSsSsESt10_Select1stIS2_ESt4lessISsESaIS2_EE14_M_create_nodeIJRKS2_EEEPSt13_Rb_tree_nodeIS2_EDpOT_405+0x84>
  420d34:	e8 97 69 fe ff       	callq  4076d0 <__cxa_rethrow@plt>
--
  420d4c:	e9 00 00 00 00       	jmpq   420d51 <_ZNSt8_Rb_treeISsSt4pairIKSsSsESt10_Select1stIS2_ESt4lessISsESaIS2_EE14_M_create_nodeIJRKS2_EEEPSt13_Rb_tree_nodeIS2_EDpOT_405+0xa1>
  420d51:	e9 0a 00 00 00       	jmpq   420d60 <_ZNSt8_Rb_treeISsSt4pairIKSsSsESt10_Select1stIS2_ESt4lessISsESaIS2_EE14_M_create_nodeIJRKS2_EEEPSt13_Rb_tree_nodeIS2_EDpOT_405+0xb0>
  420d56:	48 8b 45 e8          	mov    -0x18(%rbp),%rax
  420d5a:	48 83 c4 50          	add    $0x50,%rsp
  420d5e:	5d                   	pop    %rbp
  420d5f:	c3                   	retq   
--
  420db1:	48 8b 7d f0          	mov    -0x10(%rbp),%rdi
  420db5:	48 8b 75 f0          	mov    -0x10(%rbp),%rsi
  420db9:	ff d1                	callq  *%rcx
  420dbb:	48 83 c4 20          	add    $0x20,%rsp
  420dbf:	5d                   	pop    %rbp
  420dc0:	c3                   	retq   
--
  420e79:	48 8b 45 c0          	mov    -0x40(%rbp),%rax
  420e7d:	48 8b 4d a0          	mov    -0x60(%rbp),%rcx
  420e81:	48 89 48 08          	mov    %rcx,0x8(%rax)
  420e85:	48 83 c4 60          	add    $0x60,%rsp
  420e89:	5d                   	pop    %rbp
  420e8a:	c3                   	retq   
--
  420ec1:	48 89 e5             	mov    %rsp,%rbp
  420ec4:	48 89 7d f8          	mov    %rdi,-0x8(%rbp)
  420ec8:	48 8b 7d f8          	mov    -0x8(%rbp),%rdi
  420ecc:	48 8b 07             	mov    (%rdi),%rax
  420ecf:	5d                   	pop    %rbp
  420ed0:	c3                   	retq   
--
  420ef4:	48 8b 55 f0          	mov    -0x10(%rbp),%rdx
  420ef8:	48 89 d7             	mov    %rdx,%rdi
  420efb:	e8 70 67 fe ff       	callq  407670 <_ZdlPv@plt>
  420f00:	48 83 c4 20          	add    $0x20,%rsp
  420f04:	5d                   	pop    %rbp
  420f05:	c3                   	retq   
--
0000000000420f10 <_ZN5boost3any11placeholderD2Ev410>:
  420f10:	55                   	push   %rbp
  420f11:	48 89 e5             	mov    %rsp,%rbp
  420f14:	48 89 7d f8          	mov    %rdi,-0x8(%rbp)
  420f18:	5d                   	pop    %rbp
  420f19:	c3                   	retq   
--
  420f83:	48 89 77 18          	mov    %rsi,0x18(%rdi)
  420f87:	8b 48 20             	mov    0x20(%rax),%ecx
  420f8a:	89 4f 20             	mov    %ecx,0x20(%rdi)
  420f8d:	48 83 c4 20          	add    $0x20,%rsp
  420f91:	5d                   	pop    %rbp
  420f92:	c3                   	retq   
--
  420fc2:	0f 9c c1             	setl   %cl
  420fc5:	80 e1 01             	and    $0x1,%cl
  420fc8:	0f b6 c1             	movzbl %cl,%eax
  420fcb:	48 83 c4 10          	add    $0x10,%rsp
  420fcf:	5d                   	pop    %rbp
  420fd0:	c3                   	retq   
--
  421334:	48 8b 7d 90          	mov    -0x70(%rbp),%rdi
  421338:	e8 53 64 fe ff       	callq  407790 <_ZNSsC1ERKSs@plt>
  42133d:	48 8b 45 88          	mov    -0x78(%rbp),%rax
  421341:	48 81 c4 a0 00 00 00 	add    $0xa0,%rsp
  421348:	5d                   	pop    %rbp
  421349:	c3                   	retq   
--
  421373:	48 89 45 f0          	mov    %rax,-0x10(%rbp)
  421377:	e8 e4 c3 ff ff       	callq  41d760 <_ZNSt16allocator_traitsISaIN5boost15program_options12basic_optionIcEEEE37select_on_container_copy_constructionERKS4_241>
  42137c:	48 8b 45 f0          	mov    -0x10(%rbp),%rax
  421380:	48 83 c4 10          	add    $0x10,%rsp
  421384:	5d                   	pop    %rbp
  421385:	c3                   	retq   
--
  42139c:	48 8b 75 f8          	mov    -0x8(%rbp),%rsi
  4213a0:	48 8b 7d f0          	mov    -0x10(%rbp),%rdi
  4213a4:	48 8b 3f             	mov    (%rdi),%rdi
  4213a7:	48 89 3e             	mov    %rdi,(%rsi)
  4213aa:	5d                   	pop    %rbp
  4213ab:	c3                   	retq   
--
  4213b1:	48 89 e5             	mov    %rsp,%rbp
  4213b4:	48 b8 92 24 49 92 24 	movabs $0x492492492492492,%rax
  4213bb:	49 92 04 
  4213be:	48 89 7d f8          	mov    %rdi,-0x8(%rbp)
  4213c2:	5d                   	pop    %rbp
  4213c3:	c3                   	retq   
--
00000000004213d0 <_ZN9__gnu_cxx13new_allocatorIN5boost10shared_ptrINS1_15program_options18option_descriptionEEEED2Ev417>:
  4213d0:	55                   	push   %rbp
  4213d1:	48 89 e5             	mov    %rsp,%rbp
  4213d4:	48 89 7d f8          	mov    %rdi,-0x8(%rbp)
  4213d8:	5d                   	pop    %rbp
  4213d9:	c3                   	retq   
--
  42141e:	48 89 d7             	mov    %rdx,%rdi
  421421:	e8 ba ec ff ff       	callq  4200e0 <_ZNSt8_Rb_treeISsSt4pairIKSsSsESt10_Select1stIS2_ESt4lessISsESaIS2_EE13_Rb_tree_implIS6_Lb1EE13_M_initializeEv374>
  421426:	e9 00 00 00 00       	jmpq   42142b <_ZNSt8_Rb_treeISsSt4pairIKSsSsESt10_Select1stIS2_ESt4lessISsESaIS2_EE13_Rb_tree_implIS6_Lb1EEC2ERKS6_RKSaISt13_Rb_tree_nodeIS2_EE418+0x4b>
  42142b:	48 83 c4 30          	add    $0x30,%rsp
  42142f:	5d                   	pop    %rbp
  421430:	c3                   	retq   
--
  421494:	48 c1 e7 03          	shl    $0x3,%rdi
  421498:	48 01 f8             	add    %rdi,%rax
  42149b:	48 89 46 10          	mov    %rax,0x10(%rsi)
  42149f:	48 83 c4 20          	add    $0x20,%rsp
  4214a3:	5d                   	pop    %rbp
  4214a4:	c3                   	retq   
--
  4214c6:	48 03 47 e8          	add    -0x18(%rdi),%rax
  4214ca:	48 89 c7             	mov    %rax,%rdi
  4214cd:	e8 de 2b 00 00       	callq  4240b0 <_ZNK5boost16exception_detail10clone_implINS0_19error_info_injectorINS_15program_options20invalid_option_valueEEEE5cloneEv566>
  4214d2:	48 83 c4 10          	add    $0x10,%rsp
  4214d6:	5d                   	pop    %rbp
  4214d7:	c3                   	retq   
--
  4214e8:	48 89 7d f8          	mov    %rdi,-0x8(%rbp)
  4214ec:	48 8b 7d f8          	mov    -0x8(%rbp),%rdi
  4214f0:	e8 8b 28 00 00       	callq  423d80 <_ZN9__gnu_cxx13new_allocatorIN5boost15program_options12basic_optionIcEEEC2Ev557>
  4214f5:	48 83 c4 10          	add    $0x10,%rsp
  4214f9:	5d                   	pop    %rbp
  4214fa:	c3                   	retq   
--
  421508:	48 8b 7d f8          	mov    -0x8(%rbp),%rdi
  42150c:	8a 47 40             	mov    0x40(%rdi),%al
  42150f:	24 01                	and    $0x1,%al
  421511:	0f b6 c0             	movzbl %al,%eax
  421514:	5d                   	pop    %rbp
  421515:	c3                   	retq   
--
  421543:	48 89 f7             	mov    %rsi,%rdi
  421546:	48 8b 75 e8          	mov    -0x18(%rbp),%rsi
  42154a:	e8 e1 a6 ff ff       	callq  41bc30 <_ZN9__gnu_cxx13new_allocatorISt13_Rb_tree_nodeISt4pairIKSsN5boost15program_options14variable_valueEEEE10deallocateEPS8_m155>
  42154f:	48 83 c4 20          	add    $0x20,%rsp
  421553:	5d                   	pop    %rbp
  421554:	c3                   	retq   
--
  4215b9:	48 8b 55 d8          	mov    -0x28(%rbp),%rdx
  4215bd:	48 89 02             	mov    %rax,(%rdx)
  4215c0:	48 89 4a 08          	mov    %rcx,0x8(%rdx)
  4215c4:	48 83 c4 30          	add    $0x30,%rsp
  4215c8:	5d                   	pop    %rbp
  4215c9:	c3                   	retq   
--
  42164a:	48 81 c6 10 00 00 00 	add    $0x10,%rsi
  421651:	48 89 c7             	mov    %rax,%rdi
  421654:	e8 a7 37 00 00       	callq  424e00 <_ZSt4swapIPN5boost15program_options12basic_optionIcEEEvRT_S6_612>
  421659:	48 83 c4 20          	add    $0x20,%rsp
  42165d:	5d                   	pop    %rbp
  42165e:	c3                   	retq   
--
  421664:	48 89 7d f8          	mov    %rdi,-0x8(%rbp)
  421668:	48 8b 7d f8          	mov    -0x8(%rbp),%rdi
  42166c:	48 81 c7 08 00 00 00 	add    $0x8,%rdi
  421673:	48 89 f8             	mov    %rdi,%rax
  421676:	5d                   	pop    %rbp
  421677:	c3                   	retq   
--
  4216e2:	48 01 c8             	add    %rcx,%rax
  4216e5:	48 89 45 c0          	mov    %rax,-0x40(%rbp)
  4216e9:	48 8b 45 c0          	mov    -0x40(%rbp),%rax
  4216ed:	48 83 c4 40          	add    $0x40,%rsp
  4216f1:	5d                   	pop    %rbp
  4216f2:	c3                   	retq   
--
  421724:	48 89 c7             	mov    %rax,%rdi
  421727:	e8 f4 41 00 00       	callq  425920 <_ZNSt13move_iteratorIPSsEC2ES0_657>
  42172c:	48 8b 45 f8          	mov    -0x8(%rbp),%rax
  421730:	48 83 c4 10          	add    $0x10,%rsp
  421734:	5d                   	pop    %rbp
  421735:	c3                   	retq   
--
  42174c:	48 8b 7d f8          	mov    -0x8(%rbp),%rdi
  421750:	48 8b 3f             	mov    (%rdi),%rdi
  421753:	e8 08 16 00 00       	callq  422d60 <_ZSt4moveIRSsEONSt16remove_referenceIT_E4typeEOS2_493>
  421758:	48 83 c4 10          	add    $0x10,%rsp
  42175c:	5d                   	pop    %rbp
  42175d:	c3                   	retq   
--
  421783:	48 89 f7             	mov    %rsi,%rdi
  421786:	48 8b 75 e8          	mov    -0x18(%rbp),%rsi
  42178a:	e8 21 3a 00 00       	callq  4251b0 <_ZN9__gnu_cxx13new_allocatorISt13_Rb_tree_nodeISsEE10deallocateEPS2_m627>
  42178f:	48 83 c4 20          	add    $0x20,%rsp
  421793:	5d                   	pop    %rbp
  421794:	c3                   	retq   
--
  4217b6:	48 03 47 d8          	add    -0x28(%rdi),%rax
  4217ba:	48 89 c7             	mov    %rax,%rdi
  4217bd:	e8 7e 29 00 00       	callq  424140 <_ZN5boost16exception_detail10clone_implINS0_19error_info_injectorINS_16bad_lexical_castEEEED0Ev567>
  4217c2:	48 83 c4 10          	add    $0x10,%rsp
  4217c6:	5d                   	pop    %rbp
  4217c7:	c3                   	retq   
--
  4217d1:	48 89 e5             	mov    %rsp,%rbp
  4217d4:	48 89 7d f8          	mov    %rdi,-0x8(%rbp)
  4217d8:	48 8b 7d f8          	mov    -0x8(%rbp),%rdi
  4217dc:	48 89 f8             	mov    %rdi,%rax
  4217df:	5d                   	pop    %rbp
  4217e0:	c3                   	retq   
--
  4217f4:	48 89 7d f8          	mov    %rdi,-0x8(%rbp)
  4217f8:	48 8b 7d f8          	mov    -0x8(%rbp),%rdi
  4217fc:	48 8b 7f 18          	mov    0x18(%rdi),%rdi
  421800:	48 89 f8             	mov    %rdi,%rax
  421803:	5d                   	pop    %rbp
  421804:	c3                   	retq   
--
  42182c:	48 89 f7             	mov    %rsi,%rdi
  42182f:	48 8b 75 e8          	mov    -0x18(%rbp),%rsi
  421833:	e8 28 99 ff ff       	callq  41b160 <_ZNSt11_Tuple_implILm0EJRKSsEEC2ES1_113>
  421838:	48 83 c4 20          	add    $0x20,%rsp
  42183c:	5d                   	pop    %rbp
  42183d:	c3                   	retq   
--
  4218b9:	48 8b 7d b8          	mov    -0x48(%rbp),%rdi
  4218bd:	48 89 45 a8          	mov    %rax,-0x58(%rbp)
  4218c1:	e8 aa 2f 00 00       	callq  424870 <_ZNSt4pairIKSsSsEC2IJRS0_EJEEESt21piecewise_construct_tSt5tupleIJDpT_EES5_IJDpT0_EE595>
  4218c6:	48 83 c4 60          	add    $0x60,%rsp
  4218ca:	5d                   	pop    %rbp
  4218cb:	c3                   	retq   
--
00000000004218d0 <_ZN9__gnu_cxx13new_allocatorISt13_Rb_tree_nodeISt4pairIKSsSsEEED2Ev436>:
  4218d0:	55                   	push   %rbp
  4218d1:	48 89 e5             	mov    %rsp,%rbp
  4218d4:	48 89 7d f8          	mov    %rdi,-0x8(%rbp)
  4218d8:	5d                   	pop    %rbp
  4218d9:	c3                   	retq   
--
  421952:	48 81 c7 10 00 00 00 	add    $0x10,%rdi
  421959:	48 8b 45 b0          	mov    -0x50(%rbp),%rax
  42195d:	48 89 38             	mov    %rdi,(%rax)
  421960:	48 83 c4 50          	add    $0x50,%rsp
  421964:	5d                   	pop    %rbp
  421965:	c3                   	retq   
--
  4219a0:	48 8b 7d f8          	mov    -0x8(%rbp),%rdi
  4219a4:	48 8b 75 f0          	mov    -0x10(%rbp),%rsi
  4219a8:	e8 53 40 00 00       	callq  425a00 <_ZSt18__do_alloc_on_moveISaIN5boost15program_options12basic_optionIcEEEEvRT_S6_St17integral_constantIbLb1EE662>
  4219ad:	48 83 c4 20          	add    $0x20,%rsp
  4219b1:	5d                   	pop    %rbp
  4219b2:	c3                   	retq   
--
  4219cb:	48 05 10 00 00 00    	add    $0x10,%rax
  4219d1:	48 89 7d f8          	mov    %rdi,-0x8(%rbp)
  4219d5:	48 8b 7d f8          	mov    -0x8(%rbp),%rdi
  4219d9:	48 89 07             	mov    %rax,(%rdi)
  4219dc:	5d                   	pop    %rbp
  4219dd:	c3                   	retq   
--
  421a8e:	48 89 c6             	mov    %rax,%rsi
  421a91:	e8 6a d0 ff ff       	callq  41eb00 <_ZN5boost16exception_detail20copy_boost_exceptionEPNS_9exceptionEPKS1_315>
  421a96:	e9 00 00 00 00       	jmpq   421a9b <_ZN5boost16exception_detail10clone_implINS0_19error_info_injectorINS_15program_options16validation_errorEEEEC1ERKS6_NS6_9clone_tagE440+0xbb>
  421a9b:	48 83 c4 50          	add    $0x50,%rsp
  421a9f:	5d                   	pop    %rbp
  421aa0:	c3                   	retq   
--
  421b4b:	48 81 c7 10 00 00 00 	add    $0x10,%rdi
  421b52:	48 8b 45 c8          	mov    -0x38(%rbp),%rax
  421b56:	48 89 38             	mov    %rdi,(%rax)
  421b59:	48 83 c4 40          	add    $0x40,%rsp
  421b5d:	5d                   	pop    %rbp
  421b5e:	c3                   	retq   
--
  421bfb:	48 8b 45 e8          	mov    -0x18(%rbp),%rax
  421bff:	48 89 45 f0          	mov    %rax,-0x10(%rbp)
  421c03:	e9 b0 ff ff ff       	jmpq   421bb8 <_ZNSt8_Rb_treeISsSsSt9_IdentityISsESt4lessISsESaISsEE8_M_eraseEPSt13_Rb_tree_nodeISsE442+0x18>
  421c08:	48 83 c4 20          	add    $0x20,%rsp
  421c0c:	5d                   	pop    %rbp
  421c0d:	c3                   	retq   
--
  421cbe:	48 89 c6             	mov    %rax,%rsi
  421cc1:	e8 3a ce ff ff       	callq  41eb00 <_ZN5boost16exception_detail20copy_boost_exceptionEPNS_9exceptionEPKS1_315>
  421cc6:	e9 00 00 00 00       	jmpq   421ccb <_ZN5boost16exception_detail10clone_implINS0_19error_info_injectorINS_15program_options16validation_errorEEEEC1ERKS5_443+0xbb>
  421ccb:	48 83 c4 40          	add    $0x40,%rsp
  421ccf:	5d                   	pop    %rbp
  421cd0:	c3                   	retq   
--
  421ddb:	48 8b 45 e0          	mov    -0x20(%rbp),%rax
  421ddf:	48 89 45 a8          	mov    %rax,-0x58(%rbp)
  421de3:	48 8b 45 a8          	mov    -0x58(%rbp),%rax
  421de7:	48 83 c4 60          	add    $0x60,%rsp
  421deb:	5d                   	pop    %rbp
  421dec:	c3                   	retq   
--
  421e58:	48 89 06             	mov    %rax,(%rsi)
  421e5b:	48 89 56 18          	mov    %rdx,0x18(%rsi)
  421e5f:	48 89 4e 40          	mov    %rcx,0x40(%rsi)
  421e63:	48 83 c4 30          	add    $0x30,%rsp
  421e67:	5d                   	pop    %rbp
  421e68:	c3                   	retq   
--
  421ea4:	e8 97 aa ff ff       	callq  41c940 <_ZN5boost12bad_any_castD2Ev197>
  421ea9:	48 8b 7d f0          	mov    -0x10(%rbp),%rdi
  421ead:	e8 be 57 fe ff       	callq  407670 <_ZdlPv@plt>
  421eb2:	48 83 c4 10          	add    $0x10,%rsp
  421eb6:	5d                   	pop    %rbp
  421eb7:	c3                   	retq   
--
  421ec4:	48 89 7d f8          	mov    %rdi,-0x8(%rbp)
  421ec8:	48 8b 7d f8          	mov    -0x8(%rbp),%rdi
  421ecc:	48 8b 7f 18          	mov    0x18(%rdi),%rdi
  421ed0:	48 89 f8             	mov    %rdi,%rax
  421ed3:	5d                   	pop    %rbp
  421ed4:	c3                   	retq   
--
  421ee1:	48 89 e5             	mov    %rsp,%rbp
  421ee4:	48 b8 8e e3 38 8e e3 	movabs $0x38e38e38e38e38e,%rax
  421eeb:	38 8e 03 
  421eee:	48 89 7d f8          	mov    %rdi,-0x8(%rbp)
  421ef2:	5d                   	pop    %rbp
  421ef3:	c3                   	retq   
--
  421f6f:	48 8b 7d d0          	mov    -0x30(%rbp),%rdi
  421f73:	e8 88 58 fe ff       	callq  407800 <_ZNSsD1Ev@plt>
  421f78:	48 8b 45 c8          	mov    -0x38(%rbp),%rax
  421f7c:	48 83 c4 40          	add    $0x40,%rsp
  421f80:	5d                   	pop    %rbp
  421f81:	c3                   	retq   
--
  421fa4:	48 8b 55 f0          	mov    -0x10(%rbp),%rdx
  421fa8:	48 89 d7             	mov    %rdx,%rdi
  421fab:	e8 c0 56 fe ff       	callq  407670 <_ZdlPv@plt>
  421fb0:	48 83 c4 20          	add    $0x20,%rsp
  421fb4:	5d                   	pop    %rbp
  421fb5:	c3                   	retq   
--
  421fcc:	48 8b 7d f8          	mov    -0x8(%rbp),%rdi
  421fd0:	48 81 c7 70 ff ff ff 	add    $0xffffffffffffff70,%rdi
  421fd7:	e8 24 40 00 00       	callq  426000 <_ZN5boost16exception_detail19error_info_injectorINS_15program_options16validation_errorEED0Ev678>
  421fdc:	48 83 c4 10          	add    $0x10,%rsp
  421fe0:	5d                   	pop    %rbp
  421fe1:	c3                   	retq   
--
  422009:	48 89 45 f0          	mov    %rax,-0x10(%rbp)
  42200d:	e9 00 00 00 00       	jmpq   422012 <_ZNKSt6vectorISsSaISsEE8max_sizeEv452+0x22>
  422012:	48 8b 45 f0          	mov    -0x10(%rbp),%rax
  422016:	48 83 c4 20          	add    $0x20,%rsp
  42201a:	5d                   	pop    %rbp
  42201b:	c3                   	retq   
--
  42203c:	48 89 75 f0          	mov    %rsi,-0x10(%rbp)
  422040:	48 8b 7d f0          	mov    -0x10(%rbp),%rdi
  422044:	e8 07 7d ff ff       	callq  419d50 <_ZNSt13_Rb_tree_nodeISt4pairIKSsS0_ISsSsEEED2Ev60>
  422049:	48 83 c4 10          	add    $0x10,%rsp
  42204d:	5d                   	pop    %rbp
  42204e:	c3                   	retq   
--
  422050:	55                   	push   %rbp
  422051:	48 89 e5             	mov    %rsp,%rbp
  422054:	48 8d 05 00 4e 00 00 	lea    0x4e00(%rip),%rax        # 426e5b <_IO_stdin_used+0x25b>
  42205b:	48 89 7d f8          	mov    %rdi,-0x8(%rbp)
  42205f:	5d                   	pop    %rbp
  422060:	c3                   	retq   
--
  42208b:	e8 20 b4 ff ff       	callq  41d4b0 <_ZN9__gnu_cxx17__normal_iteratorIPKN5boost15program_options12basic_optionIcEESt6vectorIS4_SaIS4_EEEC2ERKS6_234>
  422090:	e9 00 00 00 00       	jmpq   422095 <_ZNKSt6vectorIN5boost15program_options12basic_optionIcEESaIS3_EE5beginEv455+0x25>
  422095:	48 8b 45 f8          	mov    -0x8(%rbp),%rax
  422099:	48 83 c4 20          	add    $0x20,%rsp
  42209d:	5d                   	pop    %rbp
  42209e:	c3                   	retq   
--
  4220b0:	55                   	push   %rbp
  4220b1:	48 89 e5             	mov    %rsp,%rbp
  4220b4:	48 89 7d f8          	mov    %rdi,-0x8(%rbp)
  4220b8:	48 89 75 f0          	mov    %rsi,-0x10(%rbp)
  4220bc:	5d                   	pop    %rbp
  4220bd:	c3                   	retq   
--
  422128:	48 89 06             	mov    %rax,(%rsi)
  42212b:	48 89 56 10          	mov    %rdx,0x10(%rsi)
  42212f:	48 89 4e 38          	mov    %rcx,0x38(%rsi)
  422133:	48 83 c4 30          	add    $0x30,%rsp
  422137:	5d                   	pop    %rbp
  422138:	c3                   	retq   
--
  422170:	48 8b 75 f8          	mov    -0x8(%rbp),%rsi
  422174:	48 89 f7             	mov    %rsi,%rdi
  422177:	e8 94 d0 ff ff       	callq  41f210 <_ZN5boost16exception_detail19error_info_injectorINS_15program_options20invalid_option_valueEED2Ev329>
  42217c:	48 83 c4 10          	add    $0x10,%rsp
  422180:	5d                   	pop    %rbp
  422181:	c3                   	retq   
--
  422203:	48 81 c7 08 00 00 00 	add    $0x8,%rdi
  42220a:	48 8b 75 f0          	mov    -0x10(%rbp),%rsi
  42220e:	ff d0                	callq  *%rax
  422210:	48 83 c4 40          	add    $0x40,%rsp
  422214:	5d                   	pop    %rbp
  422215:	c3                   	retq   
--
  422228:	48 89 7d f8          	mov    %rdi,-0x8(%rbp)
  42222c:	48 8b 7d f8          	mov    -0x8(%rbp),%rdi
  422230:	e8 1b 46 00 00       	callq  426850 <_ZNSt11_Tuple_implILm0EJRKSsEE7_M_headERS2_688>
  422235:	48 83 c4 10          	add    $0x10,%rsp
  422239:	5d                   	pop    %rbp
  42223a:	c3                   	retq   
--
  422284:	48 c7 40 18 00 00 00 	movq   $0x0,0x18(%rax)
  42228b:	00 
  42228c:	48 8b 45 e8          	mov    -0x18(%rbp),%rax
  422290:	48 83 c4 20          	add    $0x20,%rsp
  422294:	5d                   	pop    %rbp
  422295:	c3                   	retq   
--
  4222d4:	48 8b 75 d8          	mov    -0x28(%rbp),%rsi
  4222d8:	48 89 c2             	mov    %rax,%rdx
  4222db:	e8 c0 91 ff ff       	callq  41b4a0 <_ZNSt16allocator_traitsISaISt13_Rb_tree_nodeISt4pairIKSsS1_ISsSsEEEEE12_S_constructIS5_JRKS4_EEENSt9enable_ifIXsr18__construct_helperIT_DpT0_EE5valueEvE4typeERS6_PSC_DpOSD_125>
  4222e0:	48 83 c4 30          	add    $0x30,%rsp
  4222e4:	5d                   	pop    %rbp
  4222e5:	c3                   	retq   
--
  422399:	48 8b 45 c0          	mov    -0x40(%rbp),%rax
  42239d:	48 8b 4d a0          	mov    -0x60(%rbp),%rcx
  4223a1:	48 89 48 08          	mov    %rcx,0x8(%rax)
  4223a5:	48 83 c4 60          	add    $0x60,%rsp
  4223a9:	5d                   	pop    %rbp
  4223aa:	c3                   	retq   
--
  4223e4:	48 89 7d f8          	mov    %rdi,-0x8(%rbp)
  4223e8:	48 8b 7d f8          	mov    -0x8(%rbp),%rdi
  4223ec:	48 8b 7f 10          	mov    0x10(%rdi),%rdi
  4223f0:	48 89 f8             	mov    %rdi,%rax
  4223f3:	5d                   	pop    %rbp
  4223f4:	c3                   	retq   
--
  422428:	48 8b 08             	mov    (%rax),%rcx
  42242b:	48 89 c7             	mov    %rax,%rdi
  42242e:	ff 51 08             	callq  *0x8(%rcx)
  422431:	48 83 c4 10          	add    $0x10,%rsp
  422435:	5d                   	pop    %rbp
  422436:	c3                   	retq   
--
  4224a2:	48 01 c8             	add    %rcx,%rax
  4224a5:	48 89 45 c0          	mov    %rax,-0x40(%rbp)
  4224a9:	48 8b 45 c0          	mov    -0x40(%rbp),%rax
  4224ad:	48 83 c4 40          	add    $0x40,%rsp
  4224b1:	5d                   	pop    %rbp
  4224b2:	c3                   	retq   
--
  4224d1:	48 89 e5             	mov    %rsp,%rbp
  4224d4:	48 89 7d f8          	mov    %rdi,-0x8(%rbp)
  4224d8:	48 8b 7d f8          	mov    -0x8(%rbp),%rdi
  4224dc:	48 8b 47 10          	mov    0x10(%rdi),%rax
  4224e0:	5d                   	pop    %rbp
  4224e1:	c3                   	retq   
--
  422514:	48 8b 75 f8          	mov    -0x8(%rbp),%rsi
  422518:	48 8d 4d c8          	lea    -0x38(%rbp),%rcx
  42251c:	48 89 7d b0          	mov    %rdi,-0x50(%rbp)
  422520:	48 89 cf             	mov    %rcx,%rdi
  422523:	48 89 45 a8          	mov    %rax,-0x58(%rbp)
  422527:	e8 24 1e 00 00       	callq  424350 <_ZN5boost17enable_error_infoINS_12bad_any_castEEENS_16exception_detail29enable_error_info_return_typeIT_E4typeERKS4_579>
--
00000000004225b0 <_ZN9__gnu_cxx13new_allocatorISt13_Rb_tree_nodeISt4pairIKSsN5boost15program_options14variable_valueEEEED2Ev469>:
  4225b0:	55                   	push   %rbp
  4225b1:	48 89 e5             	mov    %rsp,%rbp
  4225b4:	48 89 7d f8          	mov    %rdi,-0x8(%rbp)
  4225b8:	5d                   	pop    %rbp
  4225b9:	c3                   	retq   
--
  4225c4:	48 89 7d f8          	mov    %rdi,-0x8(%rbp)
  4225c8:	48 8b 7d f8          	mov    -0x8(%rbp),%rdi
  4225cc:	48 8b 7f 10          	mov    0x10(%rdi),%rdi
  4225d0:	48 89 f8             	mov    %rdi,%rax
  4225d3:	5d                   	pop    %rbp
  4225d4:	c3                   	retq   
--
  422614:	c7 45 fc 00 00 00 00 	movl   $0x0,-0x4(%rbp)
  42261b:	e9 07 00 00 00       	jmpq   422627 <_ZNK5boost15program_options11typed_valueISscE10max_tokensEv471+0x47>
  422620:	c7 45 fc 01 00 00 00 	movl   $0x1,-0x4(%rbp)
  422627:	8b 45 fc             	mov    -0x4(%rbp),%eax
  42262a:	5d                   	pop    %rbp
  42262b:	c3                   	retq   
--
  42263c:	48 8b 75 f8          	mov    -0x8(%rbp),%rsi
  422640:	48 8b 7d f0          	mov    -0x10(%rbp),%rdi
  422644:	48 8b 3f             	mov    (%rdi),%rdi
  422647:	48 89 3e             	mov    %rdi,(%rsi)
  42264a:	5d                   	pop    %rbp
  42264b:	c3                   	retq   
--
  422658:	48 89 7d f8          	mov    %rdi,-0x8(%rbp)
  42265c:	48 8b 7d f8          	mov    -0x8(%rbp),%rdi
  422660:	e8 1b 0b 00 00       	callq  423180 <_ZNSt8_Rb_treeISsSt4pairIKSsN5boost15program_options14variable_valueEESt10_Select1stIS5_ESt4lessISsESaIS5_EED2Ev513>
  422665:	48 83 c4 10          	add    $0x10,%rsp
  422669:	5d                   	pop    %rbp
  42266a:	c3                   	retq   
--
  42269e:	e9 00 00 00 00       	jmpq   4226a3 <_ZNSt8_Rb_treeISsSt4pairIKSsSsESt10_Select1stIS2_ESt4lessISsESaIS2_EED2Ev474+0x33>
  4226a3:	48 8b 7d e0          	mov    -0x20(%rbp),%rdi
  4226a7:	e8 64 69 ff ff       	callq  419010 <_ZNSt8_Rb_treeISsSt4pairIKSsSsESt10_Select1stIS2_ESt4lessISsESaIS2_EE13_Rb_tree_implIS6_Lb1EED2Ev1>
  4226ac:	48 83 c4 30          	add    $0x30,%rsp
  4226b0:	5d                   	pop    %rbp
  4226b1:	c3                   	retq   
--
  4226fe:	48 05 10 00 00 00    	add    $0x10,%rax
  422704:	48 8b 75 e8          	mov    -0x18(%rbp),%rsi
  422708:	48 89 06             	mov    %rax,(%rsi)
  42270b:	48 83 c4 20          	add    $0x20,%rsp
  42270f:	5d                   	pop    %rbp
  422710:	c3                   	retq   
--
0000000000422720 <_ZN5boost15program_options14value_semanticD2Ev476>:
  422720:	55                   	push   %rbp
  422721:	48 89 e5             	mov    %rsp,%rbp
  422724:	48 89 7d f8          	mov    %rdi,-0x8(%rbp)
  422728:	5d                   	pop    %rbp
  422729:	c3                   	retq   
--
  422745:	48 8d 7d f0          	lea    -0x10(%rbp),%rdi
  422749:	48 89 c6             	mov    %rax,%rsi
  42274c:	e8 cf a8 ff ff       	callq  41d020 <_ZNKSt10_Select1stISt4pairIKSsSsEEclERKS2_216>
  422751:	48 83 c4 10          	add    $0x10,%rsp
  422755:	5d                   	pop    %rbp
  422756:	c3                   	retq   
--
  422789:	48 89 c6             	mov    %rax,%rsi
  42278c:	e8 9f 9c ff ff       	callq  41c430 <_ZNSt6vectorIN5boost15program_options12basic_optionIcEESaIS3_EE14_M_move_assignEOS5_St17integral_constantIbLb1EE183>
  422791:	48 8b 45 e0          	mov    -0x20(%rbp),%rax
  422795:	48 83 c4 20          	add    $0x20,%rsp
  422799:	5d                   	pop    %rbp
  42279a:	c3                   	retq   
--
  4227ce:	e9 00 00 00 00       	jmpq   4227d3 <_ZNSt8_Rb_treeISsSsSt9_IdentityISsESt4lessISsESaISsEED2Ev479+0x33>
  4227d3:	48 8b 7d e0          	mov    -0x20(%rbp),%rdi
  4227d7:	e8 e4 99 ff ff       	callq  41c1c0 <_ZNSt8_Rb_treeISsSsSt9_IdentityISsESt4lessISsESaISsEE13_Rb_tree_implIS3_Lb1EED2Ev173>
  4227dc:	48 83 c4 30          	add    $0x30,%rsp
  4227e0:	5d                   	pop    %rbp
  4227e1:	c3                   	retq   
--
  422816:	48 03 47 e8          	add    -0x18(%rdi),%rax
  42281a:	48 89 c7             	mov    %rax,%rdi
  42281d:	e8 5e ee ff ff       	callq  421680 <_ZNK5boost16exception_detail10clone_implINS0_19error_info_injectorINS_16bad_lexical_castEEEE5cloneEv427>
  422822:	48 83 c4 10          	add    $0x10,%rsp
  422826:	5d                   	pop    %rbp
  422827:	c3                   	retq   
--
  422840:	48 8b 7d f8          	mov    -0x8(%rbp),%rdi
  422844:	48 8b 75 f0          	mov    -0x10(%rbp),%rsi
  422848:	e8 13 23 00 00       	callq  424b60 <_ZNSt8_Rb_treeISsSt4pairIKSsSsESt10_Select1stIS2_ESt4lessISsESaIS2_EEC2ERKS8_602>
  42284d:	48 83 c4 10          	add    $0x10,%rsp
  422851:	5d                   	pop    %rbp
  422852:	c3                   	retq   
--
  422873:	8b 75 f4             	mov    -0xc(%rbp),%esi
  422876:	f0 0f c1 37          	lock xadd %esi,(%rdi)
  42287a:	89 75 f0             	mov    %esi,-0x10(%rbp)
  42287d:	8b 45 f0             	mov    -0x10(%rbp),%eax
  422880:	5d                   	pop    %rbp
  422881:	c3                   	retq   
--
  42293e:	48 8b 7d e8          	mov    -0x18(%rbp),%rdi
  422942:	48 8b 75 e0          	mov    -0x20(%rbp),%rsi
  422946:	48 89 45 b0          	mov    %rax,-0x50(%rbp)
  42294a:	e8 81 87 ff ff       	callq  41b0d0 <_ZSt8_DestroyIPSsEvT_S1_110>
  42294f:	e9 00 00 00 00       	jmpq   422954 <_ZNSt20__uninitialized_copyILb0EE13__uninit_copyISt13move_iteratorIPSsES3_EET0_T_S6_S5_483+0xc4>
  422954:	e8 77 4d fe ff       	callq  4076d0 <__cxa_rethrow@plt>
  422959:	e9 38 00 00 00       	jmpq   422996 <_ZNSt20__uninitialized_copyILb0EE13__uninit_copyISt13move_iteratorIPSsES3_EET0_T_S6_S5_483+0x106>
  42295e:	48 8b 45 e0          	mov    -0x20(%rbp),%rax
  422962:	48 83 c4 60          	add    $0x60,%rsp
  422966:	5d                   	pop    %rbp
  422967:	c3                   	retq   
--
  422a6e:	48 8d 7d e8          	lea    -0x18(%rbp),%rdi
  422a72:	e8 59 0e 00 00       	callq  4238d0 <_ZNKSt17_Rb_tree_iteratorISt4pairIKSsSsEEdeEv540>
  422a77:	48 05 08 00 00 00    	add    $0x8,%rax
  422a7d:	48 83 c4 60          	add    $0x60,%rsp
  422a81:	5d                   	pop    %rbp
  422a82:	c3                   	retq   
--
  422ab4:	48 8b 7d e8          	mov    -0x18(%rbp),%rdi
  422ab8:	48 89 c6             	mov    %rax,%rsi
  422abb:	e8 10 d7 ff ff       	callq  4201d0 <_ZNSt6vectorISsSaISsEE12emplace_backIJSsEEEvDpOT_379>
  422ac0:	48 83 c4 20          	add    $0x20,%rsp
  422ac4:	5d                   	pop    %rbp
  422ac5:	c3                   	retq   
--
  422b55:	48 8b 75 e0          	mov    -0x20(%rbp),%rsi
  422b59:	e8 22 ba ff ff       	callq  41e580 <_ZNSt17_Rb_tree_iteratorISt4pairIKSsSsEEC2EPSt13_Rb_tree_nodeIS2_E295>
  422b5e:	48 8b 45 f8          	mov    -0x8(%rbp),%rax
  422b62:	48 83 c4 30          	add    $0x30,%rsp
  422b66:	5d                   	pop    %rbp
  422b67:	c3                   	retq   
--
  422be6:	48 89 4d e0          	mov    %rcx,-0x20(%rbp)
  422bea:	e9 00 00 00 00       	jmpq   422bef <_ZN5boost8any_castIKtEEPT_PNS_3anyE487+0x7f>
  422bef:	48 8b 45 e0          	mov    -0x20(%rbp),%rax
  422bf3:	48 83 c4 30          	add    $0x30,%rsp
  422bf7:	5d                   	pop    %rbp
  422bf8:	c3                   	retq   
--
  422c39:	e9 00 00 00 00       	jmpq   422c3e <_ZNSt12_Vector_baseISsSaISsEED2Ev488+0x2e>
  422c3e:	48 8b 7d e0          	mov    -0x20(%rbp),%rdi
  422c42:	e8 d9 ae ff ff       	callq  41db20 <_ZNSt12_Vector_baseISsSaISsEE12_Vector_implD2Ev254>
  422c47:	48 83 c4 20          	add    $0x20,%rsp
  422c4b:	5d                   	pop    %rbp
  422c4c:	c3                   	retq   
--
  422c7c:	48 8b 07             	mov    (%rdi),%rax
  422c7f:	48 05 48 00 00 00    	add    $0x48,%rax
  422c85:	48 89 07             	mov    %rax,(%rdi)
  422c88:	48 89 f8             	mov    %rdi,%rax
  422c8b:	5d                   	pop    %rbp
  422c8c:	c3                   	retq   
--
  422c9c:	48 8b 7d f8          	mov    -0x8(%rbp),%rdi
  422ca0:	48 81 c7 70 ff ff ff 	add    $0xffffffffffffff70,%rdi
  422ca7:	e8 54 6e ff ff       	callq  419b00 <_ZN5boost16exception_detail10clone_implINS0_19error_info_injectorINS_15program_options16validation_errorEEEED1Ev49>
  422cac:	48 83 c4 10          	add    $0x10,%rsp
  422cb0:	5d                   	pop    %rbp
  422cb1:	c3                   	retq   
--
  422ce0:	e8 2b 80 ff ff       	callq  41ad10 <_ZNSt4pairISsSsED2Ev93>
  422ce5:	48 8b 7d f0          	mov    -0x10(%rbp),%rdi
  422ce9:	e8 12 4b fe ff       	callq  407800 <_ZNSsD1Ev@plt>
  422cee:	48 83 c4 10          	add    $0x10,%rsp
  422cf2:	5d                   	pop    %rbp
  422cf3:	c3                   	retq   
--
  422d2b:	48 8b 7d d0          	mov    -0x30(%rbp),%rdi
  422d2f:	e8 1c e7 ff ff       	callq  421450 <_ZNSt12_Vector_baseISsSaISsEE17_M_create_storageEm419>
  422d34:	e9 00 00 00 00       	jmpq   422d39 <_ZNSt12_Vector_baseISsSaISsEEC2EmRKS0_492+0x39>
  422d39:	48 83 c4 30          	add    $0x30,%rsp
  422d3d:	5d                   	pop    %rbp
  422d3e:	c3                   	retq   
--
  422d60:	55                   	push   %rbp
  422d61:	48 89 e5             	mov    %rsp,%rbp
  422d64:	48 89 7d f8          	mov    %rdi,-0x8(%rbp)
  422d68:	48 8b 45 f8          	mov    -0x8(%rbp),%rax
  422d6c:	5d                   	pop    %rbp
  422d6d:	c3                   	retq   
--
  422d8c:	48 89 f7             	mov    %rsi,%rdi
  422d8f:	48 8b 75 e8          	mov    -0x18(%rbp),%rsi
  422d93:	e8 e8 b1 ff ff       	callq  41df80 <_ZNSt12_Vector_baseIN5boost15program_options12basic_optionIcEESaIS3_EEC2ERKS4_270>
  422d98:	48 83 c4 20          	add    $0x20,%rsp
  422d9c:	5d                   	pop    %rbp
  422d9d:	c3                   	retq   
--
  422da8:	48 89 7d f8          	mov    %rdi,-0x8(%rbp)
  422dac:	48 8b 7d f8          	mov    -0x8(%rbp),%rdi
  422db0:	e8 1b eb ff ff       	callq  4218d0 <_ZN9__gnu_cxx13new_allocatorISt13_Rb_tree_nodeISt4pairIKSsSsEEED2Ev436>
  422db5:	48 83 c4 10          	add    $0x10,%rsp
  422db9:	5d                   	pop    %rbp
  422dba:	c3                   	retq   
--
  422dd4:	e8 57 ce ff ff       	callq  41fc30 <_ZN5boost16exception_detail10clone_baseD2Ev363>
  422dd9:	48 8b 7d f0          	mov    -0x10(%rbp),%rdi
  422ddd:	e8 8e 48 fe ff       	callq  407670 <_ZdlPv@plt>
  422de2:	48 83 c4 10          	add    $0x10,%rsp
  422de6:	5d                   	pop    %rbp
  422de7:	c3                   	retq   
--
  422df8:	48 89 7d f8          	mov    %rdi,-0x8(%rbp)
  422dfc:	48 8b 7d f8          	mov    -0x8(%rbp),%rdi
  422e00:	e8 9b 47 fe ff       	callq  4075a0 <_ZNSt8bad_castD2Ev@plt>
  422e05:	48 83 c4 10          	add    $0x10,%rsp
  422e09:	5d                   	pop    %rbp
  422e0a:	c3                   	retq   
--
  422e11:	48 89 e5             	mov    %rsp,%rbp
  422e14:	48 b8 55 55 55 55 55 	movabs $0x555555555555555,%rax
  422e1b:	55 55 05 
  422e1e:	48 89 7d f8          	mov    %rdi,-0x8(%rbp)
  422e22:	5d                   	pop    %rbp
  422e23:	c3                   	retq   
--
  422e45:	48 8d 7d f0          	lea    -0x10(%rbp),%rdi
  422e49:	48 89 c6             	mov    %rax,%rsi
  422e4c:	e8 3f b5 ff ff       	callq  41e390 <_ZNKSt10_Select1stISt4pairIKSsN5boost15program_options14variable_valueEEEclERKS5_288>
  422e51:	48 83 c4 10          	add    $0x10,%rsp
  422e55:	5d                   	pop    %rbp
  422e56:	c3                   	retq   
--
  422ea4:	e8 67 28 00 00       	callq  425710 <_ZNSt6vectorIN5boost10shared_ptrINS0_15program_options18option_descriptionEEESaIS4_EED2Ev651>
  422ea9:	48 8b 7d f0          	mov    -0x10(%rbp),%rdi
  422ead:	e8 4e 49 fe ff       	callq  407800 <_ZNSsD1Ev@plt>
  422eb2:	48 83 c4 10          	add    $0x10,%rsp
  422eb6:	5d                   	pop    %rbp
  422eb7:	c3                   	retq   
--
  422edb:	e8 b0 e4 ff ff       	callq  421390 <_ZN9__gnu_cxx17__normal_iteratorIPKSsSt6vectorISsSaISsEEEC2ERKS2_415>
  422ee0:	e9 00 00 00 00       	jmpq   422ee5 <_ZNKSt6vectorISsSaISsEE5beginEv501+0x25>
  422ee5:	48 8b 45 f8          	mov    -0x8(%rbp),%rax
  422ee9:	48 83 c4 20          	add    $0x20,%rsp
  422eed:	5d                   	pop    %rbp
  422eee:	c3                   	retq   
--
  422f08:	48 89 7d f8          	mov    %rdi,-0x8(%rbp)
  422f0c:	48 8b 7d f8          	mov    -0x8(%rbp),%rdi
  422f10:	e8 7b 69 ff ff       	callq  419890 <_ZN5boost13function_baseC2Ev37>
  422f15:	48 83 c4 10          	add    $0x10,%rsp
  422f19:	5d                   	pop    %rbp
  422f1a:	c3                   	retq   
--
  422f45:	48 8b 45 f0          	mov    -0x10(%rbp),%rax
  422f49:	48 89 c7             	mov    %rax,%rdi
  422f4c:	e8 ef 99 ff ff       	callq  41c940 <_ZN5boost12bad_any_castD2Ev197>
  422f51:	48 83 c4 10          	add    $0x10,%rsp
  422f55:	5d                   	pop    %rbp
  422f56:	c3                   	retq   
--
  422fbe:	48 8b 4d b8          	mov    -0x48(%rbp),%rcx
  422fc2:	49 89 c0             	mov    %rax,%r8
  422fc5:	e8 c6 20 00 00       	callq  425090 <_ZNSt16allocator_traitsISaISt13_Rb_tree_nodeISt4pairIKSsSsEEEE12_S_constructIS4_JRKSt21piecewise_construct_tSt5tupleIJRS2_EESB_IJEEEEENSt9enable_ifIXsr18__construct_helperIT_DpT0_EE5valueEvE4typeERS5_PSG_DpOSH_624>
  422fca:	48 83 c4 50          	add    $0x50,%rsp
  422fce:	5d                   	pop    %rbp
  422fcf:	c3                   	retq   
--
  422ff4:	48 89 47 18          	mov    %rax,0x18(%rdi)
  422ff8:	48 89 f8             	mov    %rdi,%rax
  422ffb:	48 05 08 00 00 00    	add    $0x8,%rax
  423001:	48 89 47 20          	mov    %rax,0x20(%rdi)
  423005:	5d                   	pop    %rbp
  423006:	c3                   	retq   
--
  423010:	55                   	push   %rbp
  423011:	48 89 e5             	mov    %rsp,%rbp
  423014:	48 8b 05 6d 6f 21 00 	mov    0x216f6d(%rip),%rax        # 639f88 <_DYNAMIC+0x250>
  42301b:	48 89 7d f8          	mov    %rdi,-0x8(%rbp)
  42301f:	5d                   	pop    %rbp
  423020:	c3                   	retq   
--
  423048:	e8 93 91 ff ff       	callq  41c1e0 <_ZNSt8_Rb_treeISsSt4pairIKSsSsESt10_Select1stIS2_ESt4lessISsESaIS2_EE11lower_boundERS1_174>
  42304d:	48 89 45 f8          	mov    %rax,-0x8(%rbp)
  423051:	48 8b 45 f8          	mov    -0x8(%rbp),%rax
  423055:	48 83 c4 20          	add    $0x20,%rsp
  423059:	5d                   	pop    %rbp
  42305a:	c3                   	retq   
--
  423074:	e8 37 00 00 00       	callq  4230b0 <_ZN5boost15program_options20invalid_option_valueD2Ev510>
  423079:	48 8b 7d f0          	mov    -0x10(%rbp),%rdi
  42307d:	e8 ee 45 fe ff       	callq  407670 <_ZdlPv@plt>
  423082:	48 83 c4 10          	add    $0x10,%rsp
  423086:	5d                   	pop    %rbp
  423087:	c3                   	retq   
--
  423098:	48 89 7d f8          	mov    %rdi,-0x8(%rbp)
  42309c:	48 8b 7d f8          	mov    -0x8(%rbp),%rdi
  4230a0:	e8 7b b9 ff ff       	callq  41ea20 <_ZN9__gnu_cxx13new_allocatorISt13_Rb_tree_nodeISsEED2Ev310>
  4230a5:	48 83 c4 10          	add    $0x10,%rsp
  4230a9:	5d                   	pop    %rbp
  4230aa:	c3                   	retq   
--
  4230b8:	48 89 7d f8          	mov    %rdi,-0x8(%rbp)
  4230bc:	48 8b 7d f8          	mov    -0x8(%rbp),%rdi
  4230c0:	e8 1b 6a ff ff       	callq  419ae0 <_ZN5boost15program_options16validation_errorD2Ev48>
  4230c5:	48 83 c4 10          	add    $0x10,%rsp
  4230c9:	5d                   	pop    %rbp
  4230ca:	c3                   	retq   
--
  42311c:	48 8b 55 d8          	mov    -0x28(%rbp),%rdx
  423120:	48 89 02             	mov    %rax,(%rdx)
  423123:	48 89 8a 90 00 00 00 	mov    %rcx,0x90(%rdx)
  42312a:	48 83 c4 30          	add    $0x30,%rsp
  42312e:	5d                   	pop    %rbp
  42312f:	c3                   	retq   
--
  423164:	e8 a7 ac ff ff       	callq  41de10 <_ZN5boost6system12system_errorD2Ev264>
  423169:	48 8b 7d f0          	mov    -0x10(%rbp),%rdi
  42316d:	e8 fe 44 fe ff       	callq  407670 <_ZdlPv@plt>
  423172:	48 83 c4 10          	add    $0x10,%rsp
  423176:	5d                   	pop    %rbp
  423177:	c3                   	retq   
--
  4231ae:	e9 00 00 00 00       	jmpq   4231b3 <_ZNSt8_Rb_treeISsSt4pairIKSsN5boost15program_options14variable_valueEESt10_Select1stIS5_ESt4lessISsESaIS5_EED2Ev513+0x33>
  4231b3:	48 8b 7d e0          	mov    -0x20(%rbp),%rdi
  4231b7:	e8 a4 02 00 00       	callq  423460 <_ZNSt8_Rb_treeISsSt4pairIKSsN5boost15program_options14variable_valueEESt10_Select1stIS5_ESt4lessISsESaIS5_EE13_Rb_tree_implIS9_Lb1EED2Ev528>
  4231bc:	48 83 c4 30          	add    $0x30,%rsp
  4231c0:	5d                   	pop    %rbp
  4231c1:	c3                   	retq   
--
  4231f6:	48 03 47 d8          	add    -0x28(%rdi),%rax
  4231fa:	48 89 c7             	mov    %rax,%rdi
  4231fd:	e8 fe b6 ff ff       	callq  41e900 <_ZN5boost16exception_detail10clone_implINS0_19error_info_injectorINS_15program_options20invalid_option_valueEEEED1Ev306>
  423202:	48 83 c4 10          	add    $0x10,%rsp
  423206:	5d                   	pop    %rbp
  423207:	c3                   	retq   
--
  423210:	55                   	push   %rbp
  423211:	48 89 e5             	mov    %rsp,%rbp
  423214:	48 89 7d f8          	mov    %rdi,-0x8(%rbp)
  423218:	48 8b 45 f8          	mov    -0x8(%rbp),%rax
  42321c:	5d                   	pop    %rbp
  42321d:	c3                   	retq   
--
  423228:	48 89 7d f8          	mov    %rdi,-0x8(%rbp)
  42322c:	48 8b 7d f8          	mov    -0x8(%rbp),%rdi
  423230:	e8 9b 22 00 00       	callq  4254d0 <_ZNSaImED2Ev639>
  423235:	48 83 c4 10          	add    $0x10,%rsp
  423239:	5d                   	pop    %rbp
  42323a:	c3                   	retq   
--
  42324c:	48 8b 7d f8          	mov    -0x8(%rbp),%rdi
  423250:	48 81 c7 f8 ff ff ff 	add    $0xfffffffffffffff8,%rdi
  423257:	e8 34 9e ff ff       	callq  41d090 <_ZN5boost16exception_detail19error_info_injectorINS_12bad_any_castEED0Ev218>
  42325c:	48 83 c4 10          	add    $0x10,%rsp
  423260:	5d                   	pop    %rbp
  423261:	c3                   	retq   
--
  423278:	48 89 7d f8          	mov    %rdi,-0x8(%rbp)
  42327c:	48 8b 7d f8          	mov    -0x8(%rbp),%rdi
  423280:	e8 3b 45 fe ff       	callq  4077c0 <_ZNSt13runtime_errorD2Ev@plt>
  423285:	48 83 c4 10          	add    $0x10,%rsp
  423289:	5d                   	pop    %rbp
  42328a:	c3                   	retq   
--
  4232eb:	48 8b 45 e8          	mov    -0x18(%rbp),%rax
  4232ef:	48 89 45 f0          	mov    %rax,-0x10(%rbp)
  4232f3:	e9 b0 ff ff ff       	jmpq   4232a8 <_ZNSt8_Rb_treeISsSt4pairIKSsSsESt10_Select1stIS2_ESt4lessISsESaIS2_EE8_M_eraseEPSt13_Rb_tree_nodeIS2_E519+0x18>
  4232f8:	48 83 c4 20          	add    $0x20,%rsp
  4232fc:	5d                   	pop    %rbp
  4232fd:	c3                   	retq   
--
  423314:	48 8b 55 f0          	mov    -0x10(%rbp),%rdx
  423318:	48 89 d7             	mov    %rdx,%rdi
  42331b:	e8 50 43 fe ff       	callq  407670 <_ZdlPv@plt>
  423320:	48 83 c4 20          	add    $0x20,%rsp
  423324:	5d                   	pop    %rbp
  423325:	c3                   	retq   
--
  423338:	48 89 7d f8          	mov    %rdi,-0x8(%rbp)
  42333c:	48 8b 7d f8          	mov    -0x8(%rbp),%rdi
  423340:	e8 8b 9e ff ff       	callq  41d1d0 <_ZNSaIN5boost10shared_ptrINS_15program_options18option_descriptionEEEED2Ev226>
  423345:	48 83 c4 10          	add    $0x10,%rsp
  423349:	5d                   	pop    %rbp
  42334a:	c3                   	retq   
--
  423367:	48 3b 37             	cmp    (%rdi),%rsi
  42336a:	0f 94 c0             	sete   %al
  42336d:	24 01                	and    $0x1,%al
  42336f:	0f b6 c0             	movzbl %al,%eax
  423372:	5d                   	pop    %rbp
  423373:	c3                   	retq   
--
  423380:	55                   	push   %rbp
  423381:	48 89 e5             	mov    %rsp,%rbp
  423384:	48 89 7d f8          	mov    %rdi,-0x8(%rbp)
  423388:	48 8b 45 f8          	mov    -0x8(%rbp),%rax
  42338c:	5d                   	pop    %rbp
  42338d:	c3                   	retq   
--
  423398:	48 8b 7d f8          	mov    -0x8(%rbp),%rdi
  42339c:	48 81 c7 08 00 00 00 	add    $0x8,%rdi
  4233a3:	48 81 c7 10 00 00 00 	add    $0x10,%rdi
  4233aa:	48 89 f8             	mov    %rdi,%rax
  4233ad:	5d                   	pop    %rbp
  4233ae:	c3                   	retq   
--
00000000004233b0 <_ZN9__gnu_cxx13new_allocatorISsEC2Ev526>:
  4233b0:	55                   	push   %rbp
  4233b1:	48 89 e5             	mov    %rsp,%rbp
  4233b4:	48 89 7d f8          	mov    %rdi,-0x8(%rbp)
  4233b8:	5d                   	pop    %rbp
  4233b9:	c3                   	retq   
--
  42341f:	48 8b 55 d8          	mov    -0x28(%rbp),%rdx
  423423:	48 89 02             	mov    %rax,(%rdx)
  423426:	48 89 8a 90 00 00 00 	mov    %rcx,0x90(%rdx)
  42342d:	48 83 c4 30          	add    $0x30,%rsp
  423431:	5d                   	pop    %rbp
  423432:	c3                   	retq   
--
  423468:	48 89 7d f8          	mov    %rdi,-0x8(%rbp)
  42346c:	48 8b 7d f8          	mov    -0x8(%rbp),%rdi
  423470:	e8 2b 14 00 00       	callq  4248a0 <_ZNSaISt13_Rb_tree_nodeISt4pairIKSsN5boost15program_options14variable_valueEEEED2Ev596>
  423475:	48 83 c4 10          	add    $0x10,%rsp
  423479:	5d                   	pop    %rbp
  42347a:	c3                   	retq   
--
  423484:	48 89 7d f8          	mov    %rdi,-0x8(%rbp)
  423488:	48 8b 7d f8          	mov    -0x8(%rbp),%rdi
  42348c:	48 8b 7f 18          	mov    0x18(%rdi),%rdi
  423490:	48 89 f8             	mov    %rdi,%rax
  423493:	5d                   	pop    %rbp
  423494:	c3                   	retq   
--
  4234b6:	48 03 47 d8          	add    -0x28(%rdi),%rax
  4234ba:	48 89 c7             	mov    %rax,%rdi
  4234bd:	e8 6e 7b ff ff       	callq  41b030 <_ZN5boost16exception_detail10clone_implINS0_19error_info_injectorINS_16bad_lexical_castEEEED1Ev107>
  4234c2:	48 83 c4 10          	add    $0x10,%rsp
  4234c6:	5d                   	pop    %rbp
  4234c7:	c3                   	retq   
--
  423546:	48 89 4d e0          	mov    %rcx,-0x20(%rbp)
  42354a:	e9 00 00 00 00       	jmpq   42354f <_ZN5boost8any_castIKSsEEPT_PNS_3anyE531+0x7f>
  42354f:	48 8b 45 e0          	mov    -0x20(%rbp),%rax
  423553:	48 83 c4 30          	add    $0x30,%rsp
  423557:	5d                   	pop    %rbp
  423558:	c3                   	retq   
--
  423656:	48 8b 7d c0          	mov    -0x40(%rbp),%rdi
  42365a:	e8 a1 a1 ff ff       	callq  41d800 <_ZNSt6vectorISsSaISsEED2Ev244>
  42365f:	48 8b 45 b8          	mov    -0x48(%rbp),%rax
  423663:	48 83 c4 60          	add    $0x60,%rsp
  423667:	5d                   	pop    %rbp
  423668:	c3                   	retq   
--
  4236c1:	48 89 c7             	mov    %rax,%rdi
  4236c4:	e8 07 3f fe ff       	callq  4075d0 <_ZNSsC1Ev@plt>
  4236c9:	e9 00 00 00 00       	jmpq   4236ce <_ZNSt4pairIKSsSsEC2IJRS0_EJLm0EEJEJEEERSt5tupleIJDpT_EERS4_IJDpT1_EESt12_Index_tupleIJXspT0_EEESD_IJXspT2_EEE533+0x4e>
  4236ce:	48 83 c4 40          	add    $0x40,%rsp
  4236d2:	5d                   	pop    %rbp
  4236d3:	c3                   	retq   
--
  4236f8:	48 89 7d f8          	mov    %rdi,-0x8(%rbp)
  4236fc:	48 8b 7d f8          	mov    -0x8(%rbp),%rdi
  423700:	e8 6b 9e ff ff       	callq  41d570 <_ZN5boost8any_castISsEEPT_PNS_3anyE237>
  423705:	48 83 c4 10          	add    $0x10,%rsp
  423709:	5d                   	pop    %rbp
  42370a:	c3                   	retq   
--
  423723:	48 89 45 f0          	mov    %rax,-0x10(%rbp)
  423727:	e8 24 ad ff ff       	callq  41e450 <_ZN5boost16exception_detail10clone_implINS0_19error_info_injectorINS_17bad_function_callEEEEC1ERKS4_293>
  42372c:	48 8b 45 f0          	mov    -0x10(%rbp),%rax
  423730:	48 83 c4 10          	add    $0x10,%rsp
  423734:	5d                   	pop    %rbp
  423735:	c3                   	retq   
--
  423776:	48 8b 7d e0          	mov    -0x20(%rbp),%rdi
  42377a:	48 89 c6             	mov    %rax,%rsi
  42377d:	e8 8e 44 fe ff       	callq  407c10 <_ZNSsC1EOSs@plt>
  423782:	48 83 c4 20          	add    $0x20,%rsp
  423786:	5d                   	pop    %rbp
  423787:	c3                   	retq   
--
  4237c7:	48 69 7d f0 38 00 00 	imul   $0x38,-0x10(%rbp),%rdi
  4237ce:	00 
  4237cf:	e8 6c 44 fe ff       	callq  407c40 <_Znwm@plt>
  4237d4:	48 83 c4 20          	add    $0x20,%rsp
  4237d8:	5d                   	pop    %rbp
  4237d9:	c3                   	retq   
--
  423808:	e9 08 00 00 00       	jmpq   423815 <_ZSt3maxImERKT_S2_S2_538+0x35>
  42380d:	48 8b 45 f0          	mov    -0x10(%rbp),%rax
  423811:	48 89 45 f8          	mov    %rax,-0x8(%rbp)
  423815:	48 8b 45 f8          	mov    -0x8(%rbp),%rax
  423819:	5d                   	pop    %rbp
  42381a:	c3                   	retq   
--
  42388a:	48 89 06             	mov    %rax,(%rsi)
  42388d:	48 89 96 90 00 00 00 	mov    %rdx,0x90(%rsi)
  423894:	48 89 8e b8 00 00 00 	mov    %rcx,0xb8(%rsi)
  42389b:	48 83 c4 30          	add    $0x30,%rsp
  42389f:	5d                   	pop    %rbp
  4238a0:	c3                   	retq   
--
  4238d8:	48 8b 7d f8          	mov    -0x8(%rbp),%rdi
  4238dc:	48 8b 3f             	mov    (%rdi),%rdi
  4238df:	48 81 c7 20 00 00 00 	add    $0x20,%rdi
  4238e6:	48 89 f8             	mov    %rdi,%rax
  4238e9:	5d                   	pop    %rbp
  4238ea:	c3                   	retq   
--
  42392f:	48 89 45 d0          	mov    %rax,-0x30(%rbp)
  423933:	e8 c8 ea ff ff       	callq  422400 <_ZN5boost3anyD2Ev465>
  423938:	48 8b 45 e0          	mov    -0x20(%rbp),%rax
  42393c:	48 83 c4 30          	add    $0x30,%rsp
  423940:	5d                   	pop    %rbp
  423941:	c3                   	retq   
--
  4239f7:	48 8b 45 e0          	mov    -0x20(%rbp),%rax
  4239fb:	48 89 45 f8          	mov    %rax,-0x8(%rbp)
  4239ff:	48 8b 45 f8          	mov    -0x8(%rbp),%rax
  423a03:	48 83 c4 40          	add    $0x40,%rsp
  423a07:	5d                   	pop    %rbp
  423a08:	c3                   	retq   
--
  423a6b:	8a 45 ff             	mov    -0x1(%rbp),%al
  423a6e:	24 01                	and    $0x1,%al
  423a70:	0f b6 c0             	movzbl %al,%eax
  423a73:	48 83 c4 30          	add    $0x30,%rsp
  423a77:	5d                   	pop    %rbp
  423a78:	c3                   	retq   
  423a79:	0f 1f 80 00 00 00 00 	nopl   0x0(%rax)

0000000000423a80 <_ZN5boost17enable_error_infoINS_17bad_function_callEEENS_16exception_detail29enable_error_info_return_typeIT_E4typeERKS4_544>:
--
  423a93:	48 89 45 f0          	mov    %rax,-0x10(%rbp)
  423a97:	e8 f4 a2 ff ff       	callq  41dd90 <_ZN5boost16exception_detail19error_info_injectorINS_17bad_function_callEEC2ERKS2_263>
  423a9c:	48 8b 45 f0          	mov    -0x10(%rbp),%rax
  423aa0:	48 83 c4 10          	add    $0x10,%rsp
  423aa4:	5d                   	pop    %rbp
  423aa5:	c3                   	retq   
--
  423ac3:	48 89 45 f0          	mov    %rax,-0x10(%rbp)
  423ac7:	e8 e4 81 ff ff       	callq  41bcb0 <_ZNSaISsEC2ERKS_158>
  423acc:	48 8b 45 f0          	mov    -0x10(%rbp),%rax
  423ad0:	48 83 c4 10          	add    $0x10,%rsp
  423ad4:	5d                   	pop    %rbp
  423ad5:	c3                   	retq   
--
  423aec:	48 8b 7d f8          	mov    -0x8(%rbp),%rdi
  423af0:	48 81 c7 f0 ff ff ff 	add    $0xfffffffffffffff0,%rdi
  423af7:	e8 34 00 00 00       	callq  423b30 <_ZN5boost16exception_detail19error_info_injectorINS_17bad_function_callEED2Ev548>
  423afc:	48 83 c4 10          	add    $0x10,%rsp
  423b00:	5d                   	pop    %rbp
  423b01:	c3                   	retq   
--
  423b14:	48 89 7d f8          	mov    %rdi,-0x8(%rbp)
  423b18:	48 8b 7d f8          	mov    -0x8(%rbp),%rdi
  423b1c:	48 8b 7f 10          	mov    0x10(%rdi),%rdi
  423b20:	48 89 f8             	mov    %rdi,%rax
  423b23:	5d                   	pop    %rbp
  423b24:	c3                   	retq   
--
  423b55:	48 8b 45 f0          	mov    -0x10(%rbp),%rax
  423b59:	48 89 c7             	mov    %rax,%rdi
  423b5c:	e8 0f f7 ff ff       	callq  423270 <_ZN5boost17bad_function_callD2Ev518>
  423b61:	48 83 c4 10          	add    $0x10,%rsp
  423b65:	5d                   	pop    %rbp
  423b66:	c3                   	retq   
--
  423bb1:	48 c7 40 18 00 00 00 	movq   $0x0,0x18(%rax)
  423bb8:	00 
  423bb9:	c7 40 20 ff ff ff ff 	movl   $0xffffffff,0x20(%rax)
  423bc0:	48 83 c4 10          	add    $0x10,%rsp
  423bc4:	5d                   	pop    %rbp
  423bc5:	c3                   	retq   
--
  423bd0:	55                   	push   %rbp
  423bd1:	48 89 e5             	mov    %rsp,%rbp
  423bd4:	48 89 7d f8          	mov    %rdi,-0x8(%rbp)
  423bd8:	48 8b 45 f8          	mov    -0x8(%rbp),%rax
  423bdc:	5d                   	pop    %rbp
  423bdd:	c3                   	retq   
--
  423c19:	48 8b 08             	mov    (%rax),%rcx
  423c1c:	48 89 c7             	mov    %rax,%rdi
  423c1f:	ff 51 18             	callq  *0x18(%rcx)
  423c22:	48 83 c4 10          	add    $0x10,%rsp
  423c26:	5d                   	pop    %rbp
  423c27:	c3                   	retq   
--
  423c73:	48 8b 7d e0          	mov    -0x20(%rbp),%rdi
  423c77:	48 89 c6             	mov    %rax,%rsi
  423c7a:	e8 91 a2 ff ff       	callq  41df10 <_ZNSt4pairIKSsS_ISsSsEEC2ERKS2_269>
  423c7f:	48 83 c4 20          	add    $0x20,%rsp
  423c83:	5d                   	pop    %rbp
  423c84:	c3                   	retq   
--
  423cdf:	48 8b 45 e0          	mov    -0x20(%rbp),%rax
  423ce3:	48 8b 4d e8          	mov    -0x18(%rbp),%rcx
  423ce7:	48 89 01             	mov    %rax,(%rcx)
  423cea:	48 83 c4 20          	add    $0x20,%rsp
  423cee:	5d                   	pop    %rbp
  423cef:	c3                   	retq   
--
  423d0c:	48 89 f7             	mov    %rsi,%rdi
  423d0f:	48 8b 75 e8          	mov    -0x18(%rbp),%rsi
  423d13:	e8 18 bd ff ff       	callq  41fa30 <_ZN9__gnu_cxx13new_allocatorISt13_Rb_tree_nodeISt4pairIKSsSsEEEC2ERKS6_354>
  423d18:	48 83 c4 20          	add    $0x20,%rsp
  423d1c:	5d                   	pop    %rbp
  423d1d:	c3                   	retq   
--
  423d28:	48 89 7d f8          	mov    %rdi,-0x8(%rbp)
  423d2c:	e8 5f a5 ff ff       	callq  41e290 <_ZN5boost9function1ISt4pairISsSsERKSsE5clearEv283>
  423d31:	e9 00 00 00 00       	jmpq   423d36 <_ZN5boost9function1ISt4pairISsSsERKSsED2Ev555+0x16>
  423d36:	48 83 c4 10          	add    $0x10,%rsp
  423d3a:	5d                   	pop    %rbp
  423d3b:	c3                   	retq   
--
  423d65:	48 8d 7d f0          	lea    -0x10(%rbp),%rdi
  423d69:	48 89 c6             	mov    %rax,%rsi
  423d6c:	e8 af 92 ff ff       	callq  41d020 <_ZNKSt10_Select1stISt4pairIKSsSsEEclERKS2_216>
  423d71:	48 83 c4 10          	add    $0x10,%rsp
  423d75:	5d                   	pop    %rbp
  423d76:	c3                   	retq   
--
0000000000423d80 <_ZN9__gnu_cxx13new_allocatorIN5boost15program_options12basic_optionIcEEEC2Ev557>:
  423d80:	55                   	push   %rbp
  423d81:	48 89 e5             	mov    %rsp,%rbp
  423d84:	48 89 7d f8          	mov    %rdi,-0x8(%rbp)
  423d88:	5d                   	pop    %rbp
  423d89:	c3                   	retq   
--
  423d9c:	48 8b 7d f8          	mov    -0x8(%rbp),%rdi
  423da0:	48 81 c7 f0 ff ff ff 	add    $0xfffffffffffffff0,%rdi
  423da7:	e8 c4 7d ff ff       	callq  41bb70 <_ZN5boost16exception_detail10clone_implINS0_19error_info_injectorINS_17bad_function_callEEEED0Ev151>
  423dac:	48 83 c4 10          	add    $0x10,%rsp
  423db0:	5d                   	pop    %rbp
  423db1:	c3                   	retq   
--
  423e04:	48 89 45 d0          	mov    %rax,-0x30(%rbp)
  423e08:	e8 f3 e5 ff ff       	callq  422400 <_ZN5boost3anyD2Ev465>
  423e0d:	48 8b 45 d8          	mov    -0x28(%rbp),%rax
  423e11:	48 83 c4 30          	add    $0x30,%rsp
  423e15:	5d                   	pop    %rbp
  423e16:	c3                   	retq   
--
  423e51:	48 8b 75 d8          	mov    -0x28(%rbp),%rsi
  423e55:	48 89 c2             	mov    %rax,%rdx
  423e58:	e8 e3 91 ff ff       	callq  41d040 <_ZN9__gnu_cxx13new_allocatorISsE9constructISsJSsEEEvPT_DpOT0_217>
  423e5d:	48 83 c4 30          	add    $0x30,%rsp
  423e61:	5d                   	pop    %rbp
  423e62:	c3                   	retq   
--
  423e96:	48 05 10 00 00 00    	add    $0x10,%rax
  423e9c:	48 8b 7d f0          	mov    -0x10(%rbp),%rdi
  423ea0:	48 89 07             	mov    %rax,(%rdi)
  423ea3:	48 83 c4 10          	add    $0x10,%rsp
  423ea7:	5d                   	pop    %rbp
  423ea8:	c3                   	retq   
--
  423eb8:	48 89 7d f8          	mov    %rdi,-0x8(%rbp)
  423ebc:	48 8b 7d f8          	mov    -0x8(%rbp),%rdi
  423ec0:	e8 5b e8 ff ff       	callq  422720 <_ZN5boost15program_options14value_semanticD2Ev476>
  423ec5:	48 83 c4 10          	add    $0x10,%rsp
  423ec9:	5d                   	pop    %rbp
  423eca:	c3                   	retq   
--
  423f29:	48 8b 55 d8          	mov    -0x28(%rbp),%rdx
  423f2d:	48 89 02             	mov    %rax,(%rdx)
  423f30:	48 89 4a 18          	mov    %rcx,0x18(%rdx)
  423f34:	48 83 c4 30          	add    $0x30,%rsp
  423f38:	5d                   	pop    %rbp
  423f39:	c3                   	retq   
--
  423f92:	48 8b 55 e8          	mov    -0x18(%rbp),%rdx
  423f96:	48 89 c7             	mov    %rax,%rdi
  423f99:	e8 e2 26 00 00       	callq  426680 <_ZN9__gnu_cxx13new_allocatorIN5boost10shared_ptrINS1_15program_options18option_descriptionEEEE10deallocateEPS5_m683>
  423f9e:	48 83 c4 20          	add    $0x20,%rsp
  423fa2:	5d                   	pop    %rbp
  423fa3:	c3                   	retq   
--
  424055:	48 89 c6             	mov    %rax,%rsi
  424058:	e8 a3 aa ff ff       	callq  41eb00 <_ZN5boost16exception_detail20copy_boost_exceptionEPNS_9exceptionEPKS1_315>
  42405d:	e9 00 00 00 00       	jmpq   424062 <_ZN5boost16exception_detail10clone_implINS0_19error_info_injectorINS_12bad_any_castEEEEC1ERKS4_565+0xb2>
  424062:	48 83 c4 40          	add    $0x40,%rsp
  424066:	5d                   	pop    %rbp
  424067:	c3                   	retq   
--
  424112:	48 01 c8             	add    %rcx,%rax
  424115:	48 89 45 c0          	mov    %rax,-0x40(%rbp)
  424119:	48 8b 45 c0          	mov    -0x40(%rbp),%rax
  42411d:	48 83 c4 40          	add    $0x40,%rsp
  424121:	5d                   	pop    %rbp
  424122:	c3                   	retq   
--
  424154:	e8 d7 6e ff ff       	callq  41b030 <_ZN5boost16exception_detail10clone_implINS0_19error_info_injectorINS_16bad_lexical_castEEEED1Ev107>
  424159:	48 8b 7d f0          	mov    -0x10(%rbp),%rdi
  42415d:	e8 0e 35 fe ff       	callq  407670 <_ZdlPv@plt>
  424162:	48 83 c4 10          	add    $0x10,%rsp
  424166:	5d                   	pop    %rbp
  424167:	c3                   	retq   
--
  424170:	55                   	push   %rbp
  424171:	48 89 e5             	mov    %rsp,%rbp
  424174:	48 89 7d f8          	mov    %rdi,-0x8(%rbp)
  424178:	48 8b 45 f8          	mov    -0x8(%rbp),%rax
  42417c:	5d                   	pop    %rbp
  42417d:	c3                   	retq   
--
  424181:	48 89 e5             	mov    %rsp,%rbp
  424184:	48 89 7d f8          	mov    %rdi,-0x8(%rbp)
  424188:	48 8b 7d f8          	mov    -0x8(%rbp),%rdi
  42418c:	48 8b 07             	mov    (%rdi),%rax
  42418f:	5d                   	pop    %rbp
  424190:	c3                   	retq   
--
  4241c7:	48 89 c6             	mov    %rax,%rsi
  4241ca:	e8 c1 b7 ff ff       	callq  41f990 <_ZSt4swapIPN5boost3any11placeholderEEvRT_S5_352>
  4241cf:	48 8b 45 e0          	mov    -0x20(%rbp),%rax
  4241d3:	48 83 c4 20          	add    $0x20,%rsp
  4241d7:	5d                   	pop    %rbp
  4241d8:	c3                   	retq   
--
  4241e1:	48 89 e5             	mov    %rsp,%rbp
  4241e4:	48 89 7d f8          	mov    %rdi,-0x8(%rbp)
  4241e8:	48 8b 7d f8          	mov    -0x8(%rbp),%rdi
  4241ec:	8b 07                	mov    (%rdi),%eax
  4241ee:	5d                   	pop    %rbp
  4241ef:	c3                   	retq   
--
  424201:	48 89 7d f8          	mov    %rdi,-0x8(%rbp)
  424205:	48 89 75 f0          	mov    %rsi,-0x10(%rbp)
  424209:	48 8b 75 f8          	mov    -0x8(%rbp),%rsi
  42420d:	48 89 06             	mov    %rax,(%rsi)
  424210:	5d                   	pop    %rbp
  424211:	c3                   	retq   
--
  42425a:	48 8b 7d d8          	mov    -0x28(%rbp),%rdi
  42425e:	48 89 c6             	mov    %rax,%rsi
  424261:	e8 9a 0e 00 00       	callq  425100 <_ZNSt13_Rb_tree_nodeISt4pairIKSsSsEEC2IJRKS2_EEEDpOT_625>
  424266:	48 83 c4 30          	add    $0x30,%rsp
  42426a:	5d                   	pop    %rbp
  42426b:	c3                   	retq   
--
  424278:	48 89 7d f8          	mov    %rdi,-0x8(%rbp)
  42427c:	48 8b 7d f8          	mov    -0x8(%rbp),%rdi
  424280:	e8 4b b3 ff ff       	callq  41f5d0 <_ZNSt16allocator_traitsISaISsEE11_S_max_sizeIKS0_EENSt9enable_ifIXsr16__maxsize_helperIT_EE5valueEmE4typeERS5_335>
  424285:	48 83 c4 10          	add    $0x10,%rsp
  424289:	5d                   	pop    %rbp
  42428a:	c3                   	retq   
--
  424290:	55                   	push   %rbp
  424291:	48 89 e5             	mov    %rsp,%rbp
  424294:	48 89 7d f8          	mov    %rdi,-0x8(%rbp)
  424298:	48 8b 45 f8          	mov    -0x8(%rbp),%rax
  42429c:	5d                   	pop    %rbp
  42429d:	c3                   	retq   
--
  4242a8:	48 89 75 f0          	mov    %rsi,-0x10(%rbp)
  4242ac:	48 8b 75 f8          	mov    -0x8(%rbp),%rsi
  4242b0:	48 8b 7d f0          	mov    -0x10(%rbp),%rdi
  4242b4:	48 89 3e             	mov    %rdi,(%rsi)
  4242b7:	5d                   	pop    %rbp
  4242b8:	c3                   	retq   
--
  4242ec:	48 8b 75 f0          	mov    -0x10(%rbp),%rsi
  4242f0:	48 8b 7d e8          	mov    -0x18(%rbp),%rdi
  4242f4:	e8 97 94 ff ff       	callq  41d790 <_ZNSt8_Rb_treeISsSt4pairIKSsSsESt10_Select1stIS2_ESt4lessISsESaIS2_EE11_M_put_nodeEPSt13_Rb_tree_nodeIS2_E242>
  4242f9:	48 83 c4 20          	add    $0x20,%rsp
  4242fd:	5d                   	pop    %rbp
  4242fe:	c3                   	retq   
--
  424333:	48 05 08 00 00 00    	add    $0x8,%rax
  424339:	48 89 45 f8          	mov    %rax,-0x8(%rbp)
  42433d:	e9 ce ff ff ff       	jmpq   424310 <_ZNSt12_Destroy_auxILb0EE9__destroyIPSsEEvT_S3_578+0x10>
  424342:	48 83 c4 10          	add    $0x10,%rsp
  424346:	5d                   	pop    %rbp
  424347:	c3                   	retq   
  424348:	0f 1f 84 00 00 00 00 	nopl   0x0(%rax,%rax,1)
  42434f:	00 

0000000000424350 <_ZN5boost17enable_error_infoINS_12bad_any_castEEENS_16exception_detail29enable_error_info_return_typeIT_E4typeERKS4_579>:
--
  424363:	48 89 45 f0          	mov    %rax,-0x10(%rbp)
  424367:	e8 e4 ae ff ff       	callq  41f250 <_ZN5boost16exception_detail19error_info_injectorINS_12bad_any_castEEC2ERKS2_330>
  42436c:	48 8b 45 f0          	mov    -0x10(%rbp),%rax
  424370:	48 83 c4 10          	add    $0x10,%rsp
  424374:	5d                   	pop    %rbp
  424375:	c3                   	retq   
--
  4243b6:	48 c1 fa 03          	sar    $0x3,%rdx
  4243ba:	48 89 c7             	mov    %rax,%rdi
  4243bd:	e8 ee 6a ff ff       	callq  41aeb0 <_ZN9__gnu_cxx13new_allocatorImE10deallocateEPmm101>
  4243c2:	48 83 c4 10          	add    $0x10,%rsp
  4243c6:	5d                   	pop    %rbp
  4243c7:	c3                   	retq   
--
  4243ec:	48 89 f7             	mov    %rsi,%rdi
  4243ef:	48 8b 75 e8          	mov    -0x18(%rbp),%rsi
  4243f3:	e8 b8 09 00 00       	callq  424db0 <_ZN9__gnu_cxx13new_allocatorISsE7destroyISsEEvPT_609>
  4243f8:	48 83 c4 20          	add    $0x20,%rsp
  4243fc:	5d                   	pop    %rbp
  4243fd:	c3                   	retq   
--
  424408:	48 8b 7d f8          	mov    -0x8(%rbp),%rdi
  42440c:	48 81 c7 08 00 00 00 	add    $0x8,%rdi
  424413:	48 81 c7 08 00 00 00 	add    $0x8,%rdi
  42441a:	48 89 f8             	mov    %rdi,%rax
  42441d:	5d                   	pop    %rbp
  42441e:	c3                   	retq   
--
  42443d:	34 01                	xor    $0x1,%al
  42443f:	24 01                	and    $0x1,%al
  424441:	0f b6 c0             	movzbl %al,%eax
  424444:	48 83 c4 10          	add    $0x10,%rsp
  424448:	5d                   	pop    %rbp
  424449:	c3                   	retq   
--
  4244f5:	48 89 c6             	mov    %rax,%rsi
  4244f8:	e8 03 a6 ff ff       	callq  41eb00 <_ZN5boost16exception_detail20copy_boost_exceptionEPNS_9exceptionEPKS1_315>
  4244fd:	e9 00 00 00 00       	jmpq   424502 <_ZN5boost16exception_detail10clone_implINS0_19error_info_injectorINS_16bad_lexical_castEEEEC1ERKS4_584+0xb2>
  424502:	48 83 c4 40          	add    $0x40,%rsp
  424506:	5d                   	pop    %rbp
  424507:	c3                   	retq   
--
  4245c5:	48 8b 75 e8          	mov    -0x18(%rbp),%rsi
  4245c9:	48 89 c7             	mov    %rax,%rdi
  4245cc:	e8 9f 80 ff ff       	callq  41c670 <_ZNK5boost9function1IvRKtEclES2_188>
  4245d1:	48 83 c4 30          	add    $0x30,%rsp
  4245d5:	5d                   	pop    %rbp
  4245d6:	c3                   	retq   
--
  4245f7:	48 3b 37             	cmp    (%rdi),%rsi
  4245fa:	0f 94 c0             	sete   %al
  4245fd:	24 01                	and    $0x1,%al
  4245ff:	0f b6 c0             	movzbl %al,%eax
  424602:	5d                   	pop    %rbp
  424603:	c3                   	retq   
--
  4246d2:	48 8b 7d c8          	mov    -0x38(%rbp),%rdi
  4246d6:	e8 25 31 fe ff       	callq  407800 <_ZNSsD1Ev@plt>
  4246db:	48 8b 45 c0          	mov    -0x40(%rbp),%rax
  4246df:	48 83 c4 60          	add    $0x60,%rsp
  4246e3:	5d                   	pop    %rbp
  4246e4:	c3                   	retq   
--
  424704:	e8 67 eb ff ff       	callq  423270 <_ZN5boost17bad_function_callD2Ev518>
  424709:	48 8b 7d f0          	mov    -0x10(%rbp),%rdi
  42470d:	e8 5e 2f fe ff       	callq  407670 <_ZdlPv@plt>
  424712:	48 83 c4 10          	add    $0x10,%rsp
  424716:	5d                   	pop    %rbp
  424717:	c3                   	retq   
--
  424741:	e8 da 86 ff ff       	callq  41ce20 <_ZN5boost10filesystem6existsENS0_11file_statusE210>
  424746:	24 01                	and    $0x1,%al
  424748:	0f b6 c0             	movzbl %al,%eax
  42474b:	48 83 c4 10          	add    $0x10,%rsp
  42474f:	5d                   	pop    %rbp
  424750:	c3                   	retq   
--
  424789:	e9 00 00 00 00       	jmpq   42478e <_ZNSt12_Vector_baseIN5boost10shared_ptrINS0_15program_options19options_descriptionEEESaIS4_EED2Ev590+0x2e>
  42478e:	48 8b 7d e0          	mov    -0x20(%rbp),%rdi
  424792:	e8 69 86 ff ff       	callq  41ce00 <_ZNSt12_Vector_baseIN5boost10shared_ptrINS0_15program_options19options_descriptionEEESaIS4_EE12_Vector_implD2Ev209>
  424797:	48 83 c4 20          	add    $0x20,%rsp
  42479b:	5d                   	pop    %rbp
  42479c:	c3                   	retq   
--
  4247cc:	48 8b 7d f8          	mov    -0x8(%rbp),%rdi
  4247d0:	48 81 c7 70 ff ff ff 	add    $0xffffffffffffff70,%rdi
  4247d7:	e8 b4 75 ff ff       	callq  41bd90 <_ZN5boost16exception_detail19error_info_injectorINS_15program_options16validation_errorEED2Ev163>
  4247dc:	48 83 c4 10          	add    $0x10,%rsp
  4247e0:	5d                   	pop    %rbp
  4247e1:	c3                   	retq   
--
  424804:	e8 07 aa ff ff       	callq  41f210 <_ZN5boost16exception_detail19error_info_injectorINS_15program_options20invalid_option_valueEED2Ev329>
  424809:	48 8b 7d f0          	mov    -0x10(%rbp),%rdi
  42480d:	e8 5e 2e fe ff       	callq  407670 <_ZdlPv@plt>
  424812:	48 83 c4 10          	add    $0x10,%rsp
  424816:	5d                   	pop    %rbp
  424817:	c3                   	retq   
--
  424824:	48 89 7d f8          	mov    %rdi,-0x8(%rbp)
  424828:	48 8b 7d f8          	mov    -0x8(%rbp),%rdi
  42482c:	48 8b 7f 10          	mov    0x10(%rdi),%rdi
  424830:	48 89 f8             	mov    %rdi,%rax
  424833:	5d                   	pop    %rbp
  424834:	c3                   	retq   
--
  42485c:	e8 3f c7 ff ff       	callq  420fa0 <_ZStltIcSt11char_traitsIcESaIcEEbRKSbIT_T0_T1_ES8_412>
  424861:	24 01                	and    $0x1,%al
  424863:	0f b6 c0             	movzbl %al,%eax
  424866:	48 83 c4 20          	add    $0x20,%rsp
  42486a:	5d                   	pop    %rbp
  42486b:	c3                   	retq   
--
  424888:	48 8b 7d e0          	mov    -0x20(%rbp),%rdi
  42488c:	48 89 c6             	mov    %rax,%rsi
  42488f:	e8 ec ed ff ff       	callq  423680 <_ZNSt4pairIKSsSsEC2IJRS0_EJLm0EEJEJEEERSt5tupleIJDpT_EERS4_IJDpT1_EESt12_Index_tupleIJXspT0_EEESD_IJXspT2_EEE533>
  424894:	48 83 c4 30          	add    $0x30,%rsp
  424898:	5d                   	pop    %rbp
  424899:	c3                   	retq   
--
  4248a8:	48 89 7d f8          	mov    %rdi,-0x8(%rbp)
  4248ac:	48 8b 7d f8          	mov    -0x8(%rbp),%rdi
  4248b0:	e8 fb dc ff ff       	callq  4225b0 <_ZN9__gnu_cxx13new_allocatorISt13_Rb_tree_nodeISt4pairIKSsN5boost15program_options14variable_valueEEEED2Ev469>
  4248b5:	48 83 c4 10          	add    $0x10,%rsp
  4248b9:	5d                   	pop    %rbp
  4248ba:	c3                   	retq   
--
  4248dc:	48 89 f7             	mov    %rsi,%rdi
  4248df:	48 8b 75 e8          	mov    -0x18(%rbp),%rsi
  4248e3:	e8 c8 2f fe ff       	callq  4078b0 <_ZNK5boost15program_options22abstract_variables_mapixERKSs@plt>
  4248e8:	48 83 c4 20          	add    $0x20,%rsp
  4248ec:	5d                   	pop    %rbp
  4248ed:	c3                   	retq   
--
  4249cd:	8b 48 10             	mov    0x10(%rax),%ecx
  4249d0:	48 8b 45 d8          	mov    -0x28(%rbp),%rax
  4249d4:	89 48 10             	mov    %ecx,0x10(%rax)
  4249d7:	48 83 c4 40          	add    $0x40,%rsp
  4249db:	5d                   	pop    %rbp
  4249dc:	c3                   	retq   
--
  424ab6:	e8 45 8d ff ff       	callq  41d800 <_ZNSt6vectorISsSaISsEED2Ev244>
  424abb:	48 8d 7d b8          	lea    -0x48(%rbp),%rdi
  424abf:	e8 3c 8d ff ff       	callq  41d800 <_ZNSt6vectorISsSaISsEED2Ev244>
  424ac4:	48 83 c4 70          	add    $0x70,%rsp
  424ac8:	5d                   	pop    %rbp
  424ac9:	c3                   	retq   
--
  424b16:	48 03 47 d8          	add    -0x28(%rdi),%rax
  424b1a:	48 89 c7             	mov    %rax,%rdi
  424b1d:	e8 7e 9a ff ff       	callq  41e5a0 <_ZN5boost16exception_detail10clone_implINS0_19error_info_injectorINS_15program_options20invalid_option_valueEEEED0Ev296>
  424b22:	48 83 c4 10          	add    $0x10,%rsp
  424b26:	5d                   	pop    %rbp
  424b27:	c3                   	retq   
--
  424b3c:	48 8b 7d f8          	mov    -0x8(%rbp),%rdi
  424b40:	48 81 c7 e8 ff ff ff 	add    $0xffffffffffffffe8,%rdi
  424b47:	e8 54 03 00 00       	callq  424ea0 <_ZN5boost16exception_detail19error_info_injectorINS_16bad_lexical_castEED2Ev615>
  424b4c:	48 83 c4 10          	add    $0x10,%rsp
  424b50:	5d                   	pop    %rbp
  424b51:	c3                   	retq   
--
  424cdb:	48 8b 7d d8          	mov    -0x28(%rbp),%rdi
  424cdf:	e8 2c 43 ff ff       	callq  419010 <_ZNSt8_Rb_treeISsSt4pairIKSsSsESt10_Select1stIS2_ESt4lessISsESaIS2_EE13_Rb_tree_implIS6_Lb1EED2Ev1>
  424ce4:	e9 09 00 00 00       	jmpq   424cf2 <_ZNSt8_Rb_treeISsSt4pairIKSsSsESt10_Select1stIS2_ESt4lessISsESaIS2_EEC2ERKS8_602+0x192>
  424ce9:	48 81 c4 a0 00 00 00 	add    $0xa0,%rsp
  424cf0:	5d                   	pop    %rbp
  424cf1:	c3                   	retq   
--
  424d1b:	48 89 3e             	mov    %rdi,(%rsi)
  424d1e:	48 89 f7             	mov    %rsi,%rdi
  424d21:	e8 8a 75 ff ff       	callq  41c2b0 <_ZN5boost16exception_detail12refcount_ptrINS0_20error_info_containerEE7add_refEv178>
  424d26:	48 83 c4 10          	add    $0x10,%rsp
  424d2a:	5d                   	pop    %rbp
  424d2b:	c3                   	retq   
--
  424d31:	48 89 e5             	mov    %rsp,%rbp
  424d34:	31 c0                	xor    %eax,%eax
  424d36:	89 c7                	mov    %eax,%edi
  424d38:	e8 33 8d ff ff       	callq  41da70 <_ZN5boost15program_options5valueISsEEPNS0_11typed_valueIT_cEEPS3_252>
  424d3d:	5d                   	pop    %rbp
  424d3e:	c3                   	retq   
--
  424d48:	48 89 7d f8          	mov    %rdi,-0x8(%rbp)
  424d4c:	48 8b 7d f8          	mov    -0x8(%rbp),%rdi
  424d50:	e8 bb 53 ff ff       	callq  41a110 <_ZNSt12_Vector_baseIN5boost15program_options12basic_optionIcEESaIS3_EE12_Vector_implC2Ev71>
  424d55:	48 83 c4 10          	add    $0x10,%rsp
  424d59:	5d                   	pop    %rbp
  424d5a:	c3                   	retq   
--
  424d64:	48 89 7d f8          	mov    %rdi,-0x8(%rbp)
  424d68:	48 8b 7d f8          	mov    -0x8(%rbp),%rdi
  424d6c:	48 8b 7f 18          	mov    0x18(%rdi),%rdi
  424d70:	48 89 f8             	mov    %rdi,%rax
  424d73:	5d                   	pop    %rbp
  424d74:	c3                   	retq   
--
  424d88:	48 89 7d f8          	mov    %rdi,-0x8(%rbp)
  424d8c:	48 8b 7d f8          	mov    -0x8(%rbp),%rdi
  424d90:	e8 4b 47 ff ff       	callq  4194e0 <_ZNSt18_Rb_tree_node_base10_S_maximumEPS_18>
  424d95:	48 83 c4 10          	add    $0x10,%rsp
  424d99:	5d                   	pop    %rbp
  424d9a:	c3                   	retq   
--
  424da1:	48 89 e5             	mov    %rsp,%rbp
  424da4:	48 89 7d f8          	mov    %rdi,-0x8(%rbp)
  424da8:	48 8b 7d f8          	mov    -0x8(%rbp),%rdi
  424dac:	8b 07                	mov    (%rdi),%eax
  424dae:	5d                   	pop    %rbp
  424daf:	c3                   	retq   
--
  424dbc:	48 89 75 f0          	mov    %rsi,-0x10(%rbp)
  424dc0:	48 8b 7d f0          	mov    -0x10(%rbp),%rdi
  424dc4:	e8 37 2a fe ff       	callq  407800 <_ZNSsD1Ev@plt>
  424dc9:	48 83 c4 10          	add    $0x10,%rsp
  424dcd:	5d                   	pop    %rbp
  424dce:	c3                   	retq   
--
  424dec:	48 89 f7             	mov    %rsi,%rdi
  424def:	48 8b 75 e8          	mov    -0x18(%rbp),%rsi
  424df3:	e8 e8 72 ff ff       	callq  41c0e0 <_ZN9__gnu_cxx13new_allocatorISt13_Rb_tree_nodeISt4pairIKSsS2_ISsSsEEEEC2ERKS7_171>
  424df8:	48 83 c4 20          	add    $0x20,%rsp
  424dfc:	5d                   	pop    %rbp
  424dfd:	c3                   	retq   
--
  424e3c:	48 8b 00             	mov    (%rax),%rax
  424e3f:	48 8b 75 f0          	mov    -0x10(%rbp),%rsi
  424e43:	48 89 06             	mov    %rax,(%rsi)
  424e46:	48 83 c4 20          	add    $0x20,%rsp
  424e4a:	5d                   	pop    %rbp
  424e4b:	c3                   	retq   
--
  424e5b:	48 05 10 00 00 00    	add    $0x10,%rax
  424e61:	48 89 7d f8          	mov    %rdi,-0x8(%rbp)
  424e65:	48 8b 7d f8          	mov    -0x8(%rbp),%rdi
  424e69:	48 89 07             	mov    %rax,(%rdi)
  424e6c:	5d                   	pop    %rbp
  424e6d:	c3                   	retq   
--
  424e84:	e8 27 62 ff ff       	callq  41b0b0 <_ZN5boost3any6holderItED2Ev109>
  424e89:	48 8b 7d f0          	mov    -0x10(%rbp),%rdi
  424e8d:	e8 de 27 fe ff       	callq  407670 <_ZdlPv@plt>
  424e92:	48 83 c4 10          	add    $0x10,%rsp
  424e96:	5d                   	pop    %rbp
  424e97:	c3                   	retq   
--
  424ec5:	48 8b 45 f0          	mov    -0x10(%rbp),%rax
  424ec9:	48 89 c7             	mov    %rax,%rdi
  424ecc:	e8 1f df ff ff       	callq  422df0 <_ZN5boost16bad_lexical_castD2Ev497>
  424ed1:	48 83 c4 10          	add    $0x10,%rsp
  424ed5:	5d                   	pop    %rbp
  424ed6:	c3                   	retq   
--
  424f1f:	ff 51 10             	callq  *0x10(%rcx)
  424f22:	48 8b 7d f0          	mov    -0x10(%rbp),%rdi
  424f26:	e8 b5 ec ff ff       	callq  423be0 <_ZN5boost6detail15sp_counted_base12weak_releaseEv551>
  424f2b:	48 83 c4 10          	add    $0x10,%rsp
  424f2f:	5d                   	pop    %rbp
  424f30:	c3                   	retq   
--
  424f56:	48 81 ff 00 00 00 00 	cmp    $0x0,%rdi
  424f5d:	0f 95 c0             	setne  %al
  424f60:	24 01                	and    $0x1,%al
  424f62:	0f b6 c0             	movzbl %al,%eax
  424f65:	5d                   	pop    %rbp
  424f66:	c3                   	retq   
--
  424f83:	48 89 45 f0          	mov    %rax,-0x10(%rbp)
  424f87:	e8 74 4a ff ff       	callq  419a00 <_ZNSt16allocator_traitsISaISsEE37select_on_container_copy_constructionERKS0_45>
  424f8c:	48 8b 45 f0          	mov    -0x10(%rbp),%rax
  424f90:	48 83 c4 10          	add    $0x10,%rsp
  424f94:	5d                   	pop    %rbp
  424f95:	c3                   	retq   
--
  424fe7:	00 
  424fe8:	48 01 f8             	add    %rdi,%rax
  424feb:	48 89 46 10          	mov    %rax,0x10(%rsi)
  424fef:	48 83 c4 20          	add    $0x20,%rsp
  424ff3:	5d                   	pop    %rbp
  424ff4:	c3                   	retq   
--
  425008:	48 8b 7d f8          	mov    -0x8(%rbp),%rdi
  42500c:	8a 47 44             	mov    0x44(%rdi),%al
  42500f:	24 01                	and    $0x1,%al
  425011:	0f b6 c0             	movzbl %al,%eax
  425014:	5d                   	pop    %rbp
  425015:	c3                   	retq   
--
  42502c:	48 8b 7d f8          	mov    -0x8(%rbp),%rdi
  425030:	48 81 c7 70 ff ff ff 	add    $0xffffffffffffff70,%rdi
  425037:	e8 64 95 ff ff       	callq  41e5a0 <_ZN5boost16exception_detail10clone_implINS0_19error_info_injectorINS_15program_options20invalid_option_valueEEEED0Ev296>
  42503c:	48 83 c4 10          	add    $0x10,%rsp
  425040:	5d                   	pop    %rbp
  425041:	c3                   	retq   
--
  425058:	48 89 7d f8          	mov    %rdi,-0x8(%rbp)
  42505c:	48 8b 7d f8          	mov    -0x8(%rbp),%rdi
  425060:	e8 9b 27 fe ff       	callq  407800 <_ZNSsD1Ev@plt>
  425065:	48 83 c4 10          	add    $0x10,%rsp
  425069:	5d                   	pop    %rbp
  42506a:	c3                   	retq   
--
  42507b:	48 05 10 00 00 00    	add    $0x10,%rax
  425081:	48 89 7d f8          	mov    %rdi,-0x8(%rbp)
  425085:	48 8b 7d f8          	mov    -0x8(%rbp),%rdi
  425089:	48 89 07             	mov    %rax,(%rdi)
  42508c:	5d                   	pop    %rbp
  42508d:	c3                   	retq   
--
  4250eb:	48 8b 4d b8          	mov    -0x48(%rbp),%rcx
  4250ef:	49 89 c0             	mov    %rax,%r8
  4250f2:	e8 49 07 00 00       	callq  425840 <_ZN9__gnu_cxx13new_allocatorISt13_Rb_tree_nodeISt4pairIKSsSsEEE9constructIS5_JRKSt21piecewise_construct_tSt5tupleIJRS3_EESB_IJEEEEEvPT_DpOT0_654>
  4250f7:	48 83 c4 50          	add    $0x50,%rsp
  4250fb:	5d                   	pop    %rbp
  4250fc:	c3                   	retq   
--
  425143:	48 8b 7d e0          	mov    -0x20(%rbp),%rdi
  425147:	48 89 c6             	mov    %rax,%rsi
  42514a:	e8 81 67 ff ff       	callq  41b8d0 <_ZNSt4pairIKSsSsEC2ERKS1_141>
  42514f:	48 83 c4 20          	add    $0x20,%rsp
  425153:	5d                   	pop    %rbp
  425154:	c3                   	retq   
--
  425194:	48 8b 75 d8          	mov    -0x28(%rbp),%rsi
  425198:	48 89 c2             	mov    %rax,%rdx
  42519b:	e8 80 ec ff ff       	callq  423e20 <_ZNSt16allocator_traitsISaISsEE12_S_constructISsJSsEEENSt9enable_ifIXsr18__construct_helperIT_DpT0_EE5valueEvE4typeERS0_PS4_DpOS5_560>
  4251a0:	48 83 c4 30          	add    $0x30,%rsp
  4251a4:	5d                   	pop    %rbp
  4251a5:	c3                   	retq   
--
  4251c4:	48 8b 55 f0          	mov    -0x10(%rbp),%rdx
  4251c8:	48 89 d7             	mov    %rdx,%rdi
  4251cb:	e8 a0 24 fe ff       	callq  407670 <_ZdlPv@plt>
  4251d0:	48 83 c4 20          	add    $0x20,%rsp
  4251d4:	5d                   	pop    %rbp
  4251d5:	c3                   	retq   
--
  425204:	48 8b 7d e8          	mov    -0x18(%rbp),%rdi
  425208:	48 89 37             	mov    %rsi,(%rdi)
  42520b:	e8 a0 70 ff ff       	callq  41c2b0 <_ZN5boost16exception_detail12refcount_ptrINS0_20error_info_containerEE7add_refEv178>
  425210:	48 83 c4 20          	add    $0x20,%rsp
  425214:	5d                   	pop    %rbp
  425215:	c3                   	retq   
--
  425228:	48 89 7d f8          	mov    %rdi,-0x8(%rbp)
  42522c:	48 8b 7d f8          	mov    -0x8(%rbp),%rdi
  425230:	e8 cb 6b ff ff       	callq  41be00 <_ZN5boost8any_castItEEPT_PNS_3anyE165>
  425235:	48 83 c4 10          	add    $0x10,%rsp
  425239:	5d                   	pop    %rbp
  42523a:	c3                   	retq   
--
  4252ae:	48 8b 75 e8          	mov    -0x18(%rbp),%rsi
  4252b2:	48 8b 7d d0          	mov    -0x30(%rbp),%rdi
  4252b6:	48 89 45 b8          	mov    %rax,-0x48(%rbp)
  4252ba:	e8 c1 4a ff ff       	callq  419d80 <_ZNSt8_Rb_treeISsSt4pairIKSsS0_ISsSsEESt10_Select1stIS3_ESt4lessISsESaIS3_EE11_M_put_nodeEPSt13_Rb_tree_nodeIS3_E61>
  4252bf:	e9 00 00 00 00       	jmpq   4252c4 <_ZNSt8_Rb_treeISsSt4pairIKSsS0_ISsSsEESt10_Select1stIS3_ESt4lessISsESaIS3_EE14_M_create_nodeIJRKS3_EEEPSt13_Rb_tree_nodeIS3_EDpOT_630+0x84>
  4252c4:	e8 07 24 fe ff       	callq  4076d0 <__cxa_rethrow@plt>
--
  4252dc:	e9 00 00 00 00       	jmpq   4252e1 <_ZNSt8_Rb_treeISsSt4pairIKSsS0_ISsSsEESt10_Select1stIS3_ESt4lessISsESaIS3_EE14_M_create_nodeIJRKS3_EEEPSt13_Rb_tree_nodeIS3_EDpOT_630+0xa1>
  4252e1:	e9 0a 00 00 00       	jmpq   4252f0 <_ZNSt8_Rb_treeISsSt4pairIKSsS0_ISsSsEESt10_Select1stIS3_ESt4lessISsESaIS3_EE14_M_create_nodeIJRKS3_EEEPSt13_Rb_tree_nodeIS3_EDpOT_630+0xb0>
  4252e6:	48 8b 45 e8          	mov    -0x18(%rbp),%rax
  4252ea:	48 83 c4 50          	add    $0x50,%rsp
  4252ee:	5d                   	pop    %rbp
  4252ef:	c3                   	retq   
--
  425345:	48 8b 75 f0          	mov    -0x10(%rbp),%rsi
  425349:	66 8b 06             	mov    (%rsi),%ax
  42534c:	66 89 47 08          	mov    %ax,0x8(%rdi)
  425350:	48 83 c4 20          	add    $0x20,%rsp
  425354:	5d                   	pop    %rbp
  425355:	c3                   	retq   
--
  42536c:	48 8b 7d f8          	mov    -0x8(%rbp),%rdi
  425370:	48 81 c7 f8 ff ff ff 	add    $0xfffffffffffffff8,%rdi
  425377:	e8 a4 db ff ff       	callq  422f20 <_ZN5boost16exception_detail19error_info_injectorINS_12bad_any_castEED2Ev503>
  42537c:	48 83 c4 10          	add    $0x10,%rsp
  425380:	5d                   	pop    %rbp
  425381:	c3                   	retq   
--
  4253ac:	89 ca                	mov    %ecx,%edx
  4253ae:	48 0f 45 fa          	cmovne %rdx,%rdi
  4253b2:	48 89 f8             	mov    %rdi,%rax
  4253b5:	48 83 c4 10          	add    $0x10,%rsp
  4253b9:	5d                   	pop    %rbp
  4253ba:	c3                   	retq   
--
  4253ec:	48 8b 7d d8          	mov    -0x28(%rbp),%rdi
  4253f0:	48 8b 75 d0          	mov    -0x30(%rbp),%rsi
  4253f4:	e8 e7 86 ff ff       	callq  41dae0 <_ZSt18uninitialized_copyISt13move_iteratorIPSsES1_ET0_T_S4_S3_253>
  4253f9:	48 83 c4 30          	add    $0x30,%rsp
  4253fd:	5d                   	pop    %rbp
  4253fe:	c3                   	retq   
--
  425413:	48 89 7d f8          	mov    %rdi,-0x8(%rbp)
  425417:	48 8b 7d f8          	mov    -0x8(%rbp),%rdi
  42541b:	e8 70 e3 ff ff       	callq  423790 <_ZN9__gnu_cxx13new_allocatorISt13_Rb_tree_nodeISt4pairIKSsS2_ISsSsEEEE8allocateEmPKv537>
  425420:	48 83 c4 10          	add    $0x10,%rsp
  425424:	5d                   	pop    %rbp
  425425:	c3                   	retq   
--
  425469:	e9 0b 00 00 00       	jmpq   425479 <_ZN5boost16exception_detail12refcount_ptrINS0_20error_info_containerEE7releaseEv637+0x49>
  42546e:	48 8b 45 f0          	mov    -0x10(%rbp),%rax
  425472:	48 c7 00 00 00 00 00 	movq   $0x0,(%rax)
  425479:	48 83 c4 10          	add    $0x10,%rsp
  42547d:	5d                   	pop    %rbp
  42547e:	c3                   	retq   
--
  4254b5:	48 8b 75 f0          	mov    -0x10(%rbp),%rsi
  4254b9:	66 8b 06             	mov    (%rsi),%ax
  4254bc:	66 89 47 08          	mov    %ax,0x8(%rdi)
  4254c0:	48 83 c4 20          	add    $0x20,%rsp
  4254c4:	5d                   	pop    %rbp
  4254c5:	c3                   	retq   
--
  4254d8:	48 89 7d f8          	mov    %rdi,-0x8(%rbp)
  4254dc:	48 8b 7d f8          	mov    -0x8(%rbp),%rdi
  4254e0:	e8 9b 68 ff ff       	callq  41bd80 <_ZN9__gnu_cxx13new_allocatorImED2Ev162>
  4254e5:	48 83 c4 10          	add    $0x10,%rsp
  4254e9:	5d                   	pop    %rbp
  4254ea:	c3                   	retq   
--
  4254f8:	48 8b 7d f8          	mov    -0x8(%rbp),%rdi
  4254fc:	8a 47 44             	mov    0x44(%rdi),%al
  4254ff:	24 01                	and    $0x1,%al
  425501:	0f b6 c0             	movzbl %al,%eax
  425504:	5d                   	pop    %rbp
  425505:	c3                   	retq   
--
0000000000425510 <_ZN9__gnu_cxx13new_allocatorISsED2Ev641>:
  425510:	55                   	push   %rbp
  425511:	48 89 e5             	mov    %rsp,%rbp
  425514:	48 89 7d f8          	mov    %rdi,-0x8(%rbp)
  425518:	5d                   	pop    %rbp
  425519:	c3                   	retq   
--
  4255a5:	48 8b 75 e0          	mov    -0x20(%rbp),%rsi
  4255a9:	e8 f2 ec ff ff       	callq  4242a0 <_ZNSt23_Rb_tree_const_iteratorISt4pairIKSsN5boost15program_options14variable_valueEEEC2EPKSt13_Rb_tree_nodeIS5_E576>
  4255ae:	48 8b 45 f8          	mov    -0x8(%rbp),%rax
  4255b2:	48 83 c4 30          	add    $0x30,%rsp
  4255b6:	5d                   	pop    %rbp
  4255b7:	c3                   	retq   
--
  4255d0:	48 8b 7d f8          	mov    -0x8(%rbp),%rdi
  4255d4:	48 8b 75 f0          	mov    -0x10(%rbp),%rsi
  4255d8:	e8 73 b1 ff ff       	callq  420750 <_ZNSt12_Destroy_auxILb0EE9__destroyIPN5boost15program_options12basic_optionIcEEEEvT_S7_398>
  4255dd:	48 83 c4 10          	add    $0x10,%rsp
  4255e1:	5d                   	pop    %rbp
  4255e2:	c3                   	retq   
--
  4255fc:	48 8b 7d f8          	mov    -0x8(%rbp),%rdi
  425600:	48 81 c7 f8 ff ff ff 	add    $0xfffffffffffffff8,%rdi
  425607:	e8 a4 8d ff ff       	callq  41e3b0 <_ZN5boost15program_options11typed_valueISscED0Ev289>
  42560c:	48 83 c4 10          	add    $0x10,%rsp
  425610:	5d                   	pop    %rbp
  425611:	c3                   	retq   
--
0000000000425620 <_ZNKSt8_Rb_treeISsSt4pairIKSsSsESt10_Select1stIS2_ESt4lessISsESaIS2_EE8key_compEv645>:
  425620:	55                   	push   %rbp
  425621:	48 89 e5             	mov    %rsp,%rbp
  425624:	48 89 7d f0          	mov    %rdi,-0x10(%rbp)
  425628:	5d                   	pop    %rbp
  425629:	c3                   	retq   
--
  425631:	48 89 e5             	mov    %rsp,%rbp
  425634:	48 89 7d f8          	mov    %rdi,-0x8(%rbp)
  425638:	48 8b 7d f8          	mov    -0x8(%rbp),%rdi
  42563c:	48 c7 07 00 00 00 00 	movq   $0x0,(%rdi)
  425643:	5d                   	pop    %rbp
  425644:	c3                   	retq   
--
  425654:	48 89 7d f8          	mov    %rdi,-0x8(%rbp)
  425658:	48 8b 7d f8          	mov    -0x8(%rbp),%rdi
  42565c:	48 8b 7f 10          	mov    0x10(%rdi),%rdi
  425660:	48 89 f8             	mov    %rdi,%rax
  425663:	5d                   	pop    %rbp
  425664:	c3                   	retq   
--
  425684:	48 8b 55 f0          	mov    -0x10(%rbp),%rdx
  425688:	48 89 d7             	mov    %rdx,%rdi
  42568b:	e8 e0 1f fe ff       	callq  407670 <_ZdlPv@plt>
  425690:	48 83 c4 20          	add    $0x20,%rsp
  425694:	5d                   	pop    %rbp
  425695:	c3                   	retq   
--
  4256a8:	48 89 7d f8          	mov    %rdi,-0x8(%rbp)
  4256ac:	48 8b 7d f8          	mov    -0x8(%rbp),%rdi
  4256b0:	e8 bb 11 00 00       	callq  426870 <_ZNSt18_Rb_tree_node_base10_S_minimumEPS_689>
  4256b5:	48 83 c4 10          	add    $0x10,%rsp
  4256b9:	5d                   	pop    %rbp
  4256ba:	c3                   	retq   
--
  4256f3:	48 05 10 00 00 00    	add    $0x10,%rax
  4256f9:	48 89 45 f8          	mov    %rax,-0x8(%rbp)
  4256fd:	e9 ce ff ff ff       	jmpq   4256d0 <_ZNSt12_Destroy_auxILb0EE9__destroyIPN5boost10shared_ptrINS2_15program_options19options_descriptionEEEEEvT_S8_650+0x10>
  425702:	48 83 c4 10          	add    $0x10,%rsp
  425706:	5d                   	pop    %rbp
  425707:	c3                   	retq   
--
  42574c:	48 8b 45 d8          	mov    -0x28(%rbp),%rax
  425750:	48 89 c7             	mov    %rax,%rdi
  425753:	e8 b8 7d ff ff       	callq  41d510 <_ZNSt12_Vector_baseIN5boost10shared_ptrINS0_15program_options18option_descriptionEEESaIS4_EED2Ev236>
  425758:	48 83 c4 30          	add    $0x30,%rsp
  42575c:	5d                   	pop    %rbp
  42575d:	c3                   	retq   
--
  4257b8:	48 8b 00             	mov    (%rax),%rax
  4257bb:	48 8b 55 e0          	mov    -0x20(%rbp),%rdx
  4257bf:	48 89 42 08          	mov    %rax,0x8(%rdx)
  4257c3:	48 83 c4 20          	add    $0x20,%rsp
  4257c7:	5d                   	pop    %rbp
  4257c8:	c3                   	retq   
--
  425824:	a8 01                	test   $0x1,%al
  425826:	0f 45 ca             	cmovne %edx,%ecx
  425829:	48 63 c1             	movslq %ecx,%rax
  42582c:	48 83 c4 30          	add    $0x30,%rsp
  425830:	5d                   	pop    %rbp
  425831:	c3                   	retq   
--
  4258a4:	48 8b 55 b8          	mov    -0x48(%rbp),%rdx
  4258a8:	48 89 c1             	mov    %rax,%rcx
  4258ab:	e8 90 bf ff ff       	callq  421840 <_ZNSt13_Rb_tree_nodeISt4pairIKSsSsEEC2IJRKSt21piecewise_construct_tSt5tupleIJRS1_EES8_IJEEEEEDpOT_435>
  4258b0:	48 83 c4 50          	add    $0x50,%rsp
  4258b4:	5d                   	pop    %rbp
  4258b5:	c3                   	retq   
  4258b6:	66 2e 0f 1f 84 00 00 	nopw   %cs:0x0(%rax,%rax,1)
  4258bd:	00 00 00 

00000000004258c0 <_ZN5boost17enable_error_infoINS_15program_options20invalid_option_valueEEENS_16exception_detail29enable_error_info_return_typeIT_E4typeERKS5_655>:
--
  4258d3:	48 89 45 f0          	mov    %rax,-0x10(%rbp)
  4258d7:	e8 f4 d7 ff ff       	callq  4230d0 <_ZN5boost16exception_detail19error_info_injectorINS_15program_options20invalid_option_valueEEC2ERKS3_511>
  4258dc:	48 8b 45 f0          	mov    -0x10(%rbp),%rax
  4258e0:	48 83 c4 10          	add    $0x10,%rsp
  4258e4:	5d                   	pop    %rbp
  4258e5:	c3                   	retq   
  4258e6:	66 2e 0f 1f 84 00 00 	nopw   %cs:0x0(%rax,%rax,1)
  4258ed:	00 00 00 

00000000004258f0 <_ZTv0_n32_NK5boost16exception_detail10clone_implINS0_19error_info_injectorINS_16bad_lexical_castEEEE7rethrowEv656>:
--
  4258fc:	48 8b 7d f8          	mov    -0x8(%rbp),%rdi
  425900:	48 89 f8             	mov    %rdi,%rax
  425903:	48 8b 3f             	mov    (%rdi),%rdi
  425906:	48 03 47 e0          	add    -0x20(%rdi),%rax
  42590a:	48 89 c7             	mov    %rax,%rdi
  42590d:	e8 be 04 00 00       	callq  425dd0 <_ZNK5boost16exception_detail10clone_implINS0_19error_info_injectorINS_16bad_lexical_castEEEE7rethrowEv672>
  425912:	48 83 c4 10          	add    $0x10,%rsp
  425916:	5d                   	pop    %rbp
  425917:	c3                   	retq   
--
  425928:	48 89 75 f0          	mov    %rsi,-0x10(%rbp)
  42592c:	48 8b 75 f8          	mov    -0x8(%rbp),%rsi
  425930:	48 8b 7d f0          	mov    -0x10(%rbp),%rdi
  425934:	48 89 3e             	mov    %rdi,(%rsi)
  425937:	5d                   	pop    %rbp
  425938:	c3                   	retq   
--
  42596a:	48 89 c6             	mov    %rax,%rsi
  42596d:	e8 6e f8 ff ff       	callq  4251e0 <_ZN5boost16exception_detail12refcount_ptrINS0_20error_info_containerEE5adoptEPS2_628>
  425972:	48 8b 45 e0          	mov    -0x20(%rbp),%rax
  425976:	48 83 c4 20          	add    $0x20,%rsp
  42597a:	5d                   	pop    %rbp
  42597b:	c3                   	retq   
--
  425994:	e8 b7 41 ff ff       	callq  419b50 <_ZN5boost15program_options16typed_value_baseD2Ev51>
  425999:	48 8b 7d f0          	mov    -0x10(%rbp),%rdi
  42599d:	e8 ce 1c fe ff       	callq  407670 <_ZdlPv@plt>
  4259a2:	48 83 c4 10          	add    $0x10,%rsp
  4259a6:	5d                   	pop    %rbp
  4259a7:	c3                   	retq   
  4259a8:	0f 1f 84 00 00 00 00 	nopl   0x0(%rax,%rax,1)
  4259af:	00 

00000000004259b0 <_ZN5boost17enable_error_infoINS_15program_options16validation_errorEEENS_16exception_detail29enable_error_info_return_typeIT_E4typeERKS5_660>:
--
  4259c3:	48 89 45 f0          	mov    %rax,-0x10(%rbp)
  4259c7:	e8 b4 05 00 00       	callq  425f80 <_ZN5boost16exception_detail19error_info_injectorINS_15program_options16validation_errorEEC2ERKS3_677>
  4259cc:	48 8b 45 f0          	mov    -0x10(%rbp),%rax
  4259d0:	48 83 c4 10          	add    $0x10,%rsp
  4259d4:	5d                   	pop    %rbp
  4259d5:	c3                   	retq   
--
  4259ec:	48 8b 07             	mov    (%rdi),%rax
  4259ef:	48 05 08 00 00 00    	add    $0x8,%rax
  4259f5:	48 89 07             	mov    %rax,(%rdi)
  4259f8:	48 89 f8             	mov    %rdi,%rax
  4259fb:	5d                   	pop    %rbp
  4259fc:	c3                   	retq   
--
  425a10:	48 8b 7d e8          	mov    -0x18(%rbp),%rdi
  425a14:	e8 b7 e1 ff ff       	callq  423bd0 <_ZSt4moveIRSaIN5boost15program_options12basic_optionIcEEEEONSt16remove_referenceIT_E4typeEOS7_550>
  425a19:	48 89 45 e0          	mov    %rax,-0x20(%rbp)
  425a1d:	48 83 c4 20          	add    $0x20,%rsp
  425a21:	5d                   	pop    %rbp
  425a22:	c3                   	retq   
--
  425aa3:	48 8b 75 e8          	mov    -0x18(%rbp),%rsi
  425aa7:	48 89 ca             	mov    %rcx,%rdx
  425aaa:	e8 b1 35 ff ff       	callq  419060 <_ZN5boost15program_options8validateItcEEvRNS_3anyERKSt6vectorISbIT0_St11char_traitsIS5_ESaIS5_EESaIS9_EEPT_l4>
  425aaf:	48 83 c4 30          	add    $0x30,%rsp
  425ab3:	5d                   	pop    %rbp
  425ab4:	c3                   	retq   
--
  425b1a:	e8 21 6e ff ff       	callq  41c940 <_ZN5boost12bad_any_castD2Ev197>
  425b1f:	e9 0a 00 00 00       	jmpq   425b2e <_ZN5boost8any_castIRKtEET_RNS_3anyE664+0x6e>
  425b24:	48 8b 45 f0          	mov    -0x10(%rbp),%rax
  425b28:	48 83 c4 30          	add    $0x30,%rsp
  425b2c:	5d                   	pop    %rbp
  425b2d:	c3                   	retq   
--
  425b5a:	39 c8                	cmp    %ecx,%eax
  425b5c:	0f 94 c2             	sete   %dl
  425b5f:	80 e2 01             	and    $0x1,%dl
  425b62:	0f b6 c2             	movzbl %dl,%eax
  425b65:	5d                   	pop    %rbp
  425b66:	c3                   	retq   
--
  425ba7:	48 89 c6             	mov    %rax,%rsi
  425baa:	e8 61 20 fe ff       	callq  407c10 <_ZNSsC1EOSs@plt>
  425baf:	48 8b 45 e0          	mov    -0x20(%rbp),%rax
  425bb3:	48 83 c4 20          	add    $0x20,%rsp
  425bb7:	5d                   	pop    %rbp
  425bb8:	c3                   	retq   
--
  425d18:	e8 43 19 fe ff       	callq  407660 <_ZNKSs5c_strEv@plt>
  425d1d:	48 89 45 f8          	mov    %rax,-0x8(%rbp)
  425d21:	48 8b 45 f8          	mov    -0x8(%rbp),%rax
  425d25:	48 83 c4 70          	add    $0x70,%rsp
  425d29:	5d                   	pop    %rbp
  425d2a:	c3                   	retq   
--
  425d4c:	48 89 f7             	mov    %rsi,%rdi
  425d4f:	48 8b 75 e8          	mov    -0x18(%rbp),%rsi
  425d53:	e8 78 34 ff ff       	callq  4191d0 <_ZN9__gnu_cxx13new_allocatorIN5boost15program_options12basic_optionIcEEEC2ERKS5_5>
  425d58:	48 83 c4 20          	add    $0x20,%rsp
  425d5c:	5d                   	pop    %rbp
  425d5d:	c3                   	retq   
--
  425d76:	48 03 47 e8          	add    -0x18(%rdi),%rax
  425d7a:	48 89 c7             	mov    %rax,%rdi
  425d7d:	e8 be c6 ff ff       	callq  422440 <_ZNK5boost16exception_detail10clone_implINS0_19error_info_injectorINS_15program_options16validation_errorEEEE5cloneEv466>
  425d82:	48 83 c4 10          	add    $0x10,%rsp
  425d86:	5d                   	pop    %rbp
  425d87:	c3                   	retq   
--
  425d91:	48 89 e5             	mov    %rsp,%rbp
  425d94:	48 89 7d f8          	mov    %rdi,-0x8(%rbp)
  425d98:	48 8b 7d f8          	mov    -0x8(%rbp),%rdi
  425d9c:	48 89 f8             	mov    %rdi,%rax
  425d9f:	5d                   	pop    %rbp
  425da0:	c3                   	retq   
--
  425db1:	48 89 e5             	mov    %rsp,%rbp
  425db4:	48 89 7d f8          	mov    %rdi,-0x8(%rbp)
  425db8:	48 8b 7d f8          	mov    -0x8(%rbp),%rdi
  425dbc:	48 c7 07 00 00 00 00 	movq   $0x0,(%rdi)
  425dc3:	5d                   	pop    %rbp
  425dc4:	c3                   	retq   
  425dc5:	66 2e 0f 1f 84 00 00 	nopw   %cs:0x0(%rax,%rax,1)
  425dcc:	00 00 00 
  425dcf:	90                   	nop

0000000000425dd0 <_ZNK5boost16exception_detail10clone_implINS0_19error_info_injectorINS_16bad_lexical_castEEEE7rethrowEv672>:
--
  425def:	48 89 c1             	mov    %rax,%rcx
  425df2:	48 89 c7             	mov    %rax,%rdi
  425df5:	48 8b 75 e0          	mov    -0x20(%rbp),%rsi
  425df9:	48 89 4d d8          	mov    %rcx,-0x28(%rbp)
  425dfd:	e8 ee bf ff ff       	callq  421df0 <_ZN5boost16exception_detail10clone_implINS0_19error_info_injectorINS_16bad_lexical_castEEEEC1ERKS5_445>
  425e02:	e9 00 00 00 00       	jmpq   425e07 <_ZNK5boost16exception_detail10clone_implINS0_19error_info_injectorINS_16bad_lexical_castEEEE7rethrowEv672+0x37>
--
  425f09:	48 8b 75 d8          	mov    -0x28(%rbp),%rsi
  425f0d:	e8 6e 86 ff ff       	callq  41e580 <_ZNSt17_Rb_tree_iteratorISt4pairIKSsSsEEC2EPSt13_Rb_tree_nodeIS2_E295>
  425f12:	48 8b 45 f8          	mov    -0x8(%rbp),%rax
  425f16:	48 83 c4 60          	add    $0x60,%rsp
  425f1a:	5d                   	pop    %rbp
  425f1b:	c3                   	retq   
--
0000000000425f20 <_ZN9__gnu_cxx13new_allocatorISt13_Rb_tree_nodeISt4pairIKSsS2_ISsSsEEEED2Ev674>:
  425f20:	55                   	push   %rbp
  425f21:	48 89 e5             	mov    %rsp,%rbp
  425f24:	48 89 7d f8          	mov    %rdi,-0x8(%rbp)
  425f28:	5d                   	pop    %rbp
  425f29:	c3                   	retq   
--
  425f44:	e8 a7 ce ff ff       	callq  422df0 <_ZN5boost16bad_lexical_castD2Ev497>
  425f49:	48 8b 7d f0          	mov    -0x10(%rbp),%rdi
  425f4d:	e8 1e 17 fe ff       	callq  407670 <_ZdlPv@plt>
  425f52:	48 83 c4 10          	add    $0x10,%rsp
  425f56:	5d                   	pop    %rbp
  425f57:	c3                   	retq   
--
  425f6c:	48 8b 07             	mov    (%rdi),%rax
  425f6f:	48 05 08 00 00 00    	add    $0x8,%rax
  425f75:	48 89 07             	mov    %rax,(%rdi)
  425f78:	48 89 f8             	mov    %rdi,%rax
  425f7b:	5d                   	pop    %rbp
  425f7c:	c3                   	retq   
--
  425fcc:	48 8b 55 d8          	mov    -0x28(%rbp),%rdx
  425fd0:	48 89 02             	mov    %rax,(%rdx)
  425fd3:	48 89 8a 90 00 00 00 	mov    %rcx,0x90(%rdx)
  425fda:	48 83 c4 30          	add    $0x30,%rsp
  425fde:	5d                   	pop    %rbp
  425fdf:	c3                   	retq   
--
  426014:	e8 77 5d ff ff       	callq  41bd90 <_ZN5boost16exception_detail19error_info_injectorINS_15program_options16validation_errorEED2Ev163>
  426019:	48 8b 7d f0          	mov    -0x10(%rbp),%rdi
  42601d:	e8 4e 16 fe ff       	callq  407670 <_ZdlPv@plt>
  426022:	48 83 c4 10          	add    $0x10,%rsp
  426026:	5d                   	pop    %rbp
  426027:	c3                   	retq   
--
  42606e:	48 89 d7             	mov    %rdx,%rdi
  426071:	e8 5a cf ff ff       	callq  422fd0 <_ZNSt8_Rb_treeISsSt4pairIKSsS0_ISsSsEESt10_Select1stIS3_ESt4lessISsESaIS3_EE13_Rb_tree_implIS7_Lb1EE13_M_initializeEv505>
  426076:	e9 00 00 00 00       	jmpq   42607b <_ZNSt8_Rb_treeISsSt4pairIKSsS0_ISsSsEESt10_Select1stIS3_ESt4lessISsESaIS3_EE13_Rb_tree_implIS7_Lb1EEC2ERKS7_RKSaISt13_Rb_tree_nodeIS3_EE679+0x4b>
  42607b:	48 83 c4 30          	add    $0x30,%rsp
  42607f:	5d                   	pop    %rbp
  426080:	c3                   	retq   
--
  4260ac:	48 8b 47 08          	mov    0x8(%rdi),%rax
  4260b0:	48 8b 3f             	mov    (%rdi),%rdi
  4260b3:	48 29 f8             	sub    %rdi,%rax
  4260b6:	48 c1 f8 03          	sar    $0x3,%rax
  4260ba:	5d                   	pop    %rbp
  4260bb:	c3                   	retq   
  4260bc:	0f 1f 40 00          	nopl   0x0(%rax)

00000000004260c0 <_ZN5boost6detail18lcast_ret_unsignedISt11char_traitsIcEtcEEbRT0_PKT1_S8_681>:
--
  4260e6:	48 89 55 e0          	mov    %rdx,-0x20(%rbp)
  4260ea:	48 8b 55 f0          	mov    -0x10(%rbp),%rdx
  4260ee:	66 c7 02 00 00       	movw   $0x0,(%rdx)
  4260f3:	48 8b 55 e8          	mov    -0x18(%rbp),%rdx
  4260f7:	48 3b 55 e0          	cmp    -0x20(%rbp),%rdx
  4260fb:	0f 87 26 00 00 00    	ja     426127 <_ZN5boost6detail18lcast_ret_unsignedISt11char_traitsIcEtcEEbRT0_PKT1_S8_681+0x67>
  426101:	48 8b 45 e0          	mov    -0x20(%rbp),%rax
  426105:	0f be 08             	movsbl (%rax),%ecx
  426108:	81 f9 30 00 00 00    	cmp    $0x30,%ecx
  42610e:	0f 8c 13 00 00 00    	jl     426127 <_ZN5boost6detail18lcast_ret_unsignedISt11char_traitsIcEtcEEbRT0_PKT1_S8_681+0x67>
  426114:	48 8b 45 e0          	mov    -0x20(%rbp),%rax
  426118:	0f be 08             	movsbl (%rax),%ecx
  42611b:	81 f9 3a 00 00 00    	cmp    $0x3a,%ecx
  426121:	0f 8c 09 00 00 00    	jl     426130 <_ZN5boost6detail18lcast_ret_unsignedISt11char_traitsIcEtcEEbRT0_PKT1_S8_681+0x70>
  426127:	c6 45 ff 00          	movb   $0x0,-0x1(%rbp)
  42612b:	e9 ee 04 00 00       	jmpq   42661e <_ZN5boost6detail18lcast_ret_unsignedISt11char_traitsIcEtcEEbRT0_PKT1_S8_681+0x55e>
--
  426155:	c6 45 db 00          	movb   $0x0,-0x25(%rbp)
  426159:	48 8d 7d d0          	lea    -0x30(%rbp),%rdi
  42615d:	e8 1e 18 fe ff       	callq  407980 <_ZNSt6localeC1Ev@plt>
  426162:	e8 d9 14 fe ff       	callq  407640 <_ZNSt6locale7classicEv@plt>
  426167:	48 89 45 80          	mov    %rax,-0x80(%rbp)
  42616b:	e9 00 00 00 00       	jmpq   426170 <_ZN5boost6detail18lcast_ret_unsignedISt11char_traitsIcEtcEEbRT0_PKT1_S8_681+0xb0>
  426170:	48 8d 7d d0          	lea    -0x30(%rbp),%rdi
  426174:	48 8b 75 80          	mov    -0x80(%rbp),%rsi
  426178:	e8 a3 e2 ff ff       	callq  424420 <_ZNKSt6localeneERKS_583>
  42617d:	a8 01                	test   $0x1,%al
  42617f:	0f 85 05 00 00 00    	jne    42618a <_ZN5boost6detail18lcast_ret_unsignedISt11char_traitsIcEtcEEbRT0_PKT1_S8_681+0xca>
  426185:	e9 2c 03 00 00       	jmpq   4264b6 <_ZN5boost6detail18lcast_ret_unsignedISt11char_traitsIcEtcEEbRT0_PKT1_S8_681+0x3f6>
  42618a:	48 8d 7d d0          	lea    -0x30(%rbp),%rdi
  42618e:	e8 dd 17 fe ff       	callq  407970 <_ZSt9use_facetISt8numpunctIcEERKT_RKSt6locale@plt>
  426193:	48 89 85 78 ff ff ff 	mov    %rax,-0x88(%rbp)
  42619a:	e9 00 00 00 00       	jmpq   42619f <_ZN5boost6detail18lcast_ret_unsignedISt11char_traitsIcEtcEEbRT0_PKT1_S8_681+0xdf>
  42619f:	48 8b 85 78 ff ff ff 	mov    -0x88(%rbp),%rax
  4261a6:	48 89 45 b8          	mov    %rax,-0x48(%rbp)
  4261aa:	48 8d 7d a8          	lea    -0x58(%rbp),%rdi
  4261ae:	48 89 c6             	mov    %rax,%rsi
  4261b1:	e8 ba 18 fe ff       	callq  407a70 <_ZNKSt8numpunctIcE8groupingEv@plt>
  4261b6:	e9 00 00 00 00       	jmpq   4261bb <_ZN5boost6detail18lcast_ret_unsignedISt11char_traitsIcEtcEEbRT0_PKT1_S8_681+0xfb>
--
  4261c3:	48 8b 7d b0          	mov    -0x50(%rbp),%rdi
  4261c7:	e8 24 15 fe ff       	callq  4076f0 <_ZNKSs4sizeEv@plt>
  4261cc:	48 89 45 a0          	mov    %rax,-0x60(%rbp)
  4261d0:	48 81 7d a0 00 00 00 	cmpq   $0x0,-0x60(%rbp)
  4261d7:	00 
  4261d8:	0f 84 b3 02 00 00    	je     426491 <_ZN5boost6detail18lcast_ret_unsignedISt11char_traitsIcEtcEEbRT0_PKT1_S8_681+0x3d1>
  4261de:	48 8b 7d b0          	mov    -0x50(%rbp),%rdi
  4261e2:	31 c0                	xor    %eax,%eax
  4261e4:	89 c6                	mov    %eax,%esi
  4261e6:	e8 e5 18 fe ff       	callq  407ad0 <_ZNKSsixEm@plt>
  4261eb:	48 89 85 70 ff ff ff 	mov    %rax,-0x90(%rbp)
  4261f2:	e9 00 00 00 00       	jmpq   4261f7 <_ZN5boost6detail18lcast_ret_unsignedISt11char_traitsIcEtcEEbRT0_PKT1_S8_681+0x137>
  4261f7:	48 8b 85 70 ff ff ff 	mov    -0x90(%rbp),%rax
  4261fe:	0f be 08             	movsbl (%rax),%ecx
  426201:	81 f9 00 00 00 00    	cmp    $0x0,%ecx
  426207:	0f 8e 84 02 00 00    	jle    426491 <_ZN5boost6detail18lcast_ret_unsignedISt11char_traitsIcEtcEEbRT0_PKT1_S8_681+0x3d1>
  42620d:	c6 45 9f 00          	movb   $0x0,-0x61(%rbp)
  426211:	48 8b 7d b8          	mov    -0x48(%rbp),%rdi
  426215:	e8 66 16 fe ff       	callq  407880 <_ZNKSt8numpunctIcE13thousands_sepEv@plt>
  42621a:	88 85 6f ff ff ff    	mov    %al,-0x91(%rbp)
  426220:	e9 00 00 00 00       	jmpq   426225 <_ZN5boost6detail18lcast_ret_unsignedISt11char_traitsIcEtcEEbRT0_PKT1_S8_681+0x165>
--
  42622e:	48 8b 7d b0          	mov    -0x50(%rbp),%rdi
  426232:	0f b6 4d 9f          	movzbl -0x61(%rbp),%ecx
  426236:	89 ce                	mov    %ecx,%esi
  426238:	e8 93 18 fe ff       	callq  407ad0 <_ZNKSsixEm@plt>
  42623d:	48 89 85 60 ff ff ff 	mov    %rax,-0xa0(%rbp)
  426244:	e9 00 00 00 00       	jmpq   426249 <_ZN5boost6detail18lcast_ret_unsignedISt11char_traitsIcEtcEEbRT0_PKT1_S8_681+0x189>
--
  426259:	88 ca                	mov    %cl,%dl
  42625b:	88 55 9d             	mov    %dl,-0x63(%rbp)
  42625e:	c6 45 9c 01          	movb   $0x1,-0x64(%rbp)
  426262:	48 8b 45 e0          	mov    -0x20(%rbp),%rax
  426266:	48 3b 45 e8          	cmp    -0x18(%rbp),%rax
  42626a:	0f 82 02 02 00 00    	jb     426472 <_ZN5boost6detail18lcast_ret_unsignedISt11char_traitsIcEtcEEbRT0_PKT1_S8_681+0x3b2>
  426270:	80 7d 9d 00          	cmpb   $0x0,-0x63(%rbp)
  426274:	0f 84 56 01 00 00    	je     4263d0 <_ZN5boost6detail18lcast_ret_unsignedISt11char_traitsIcEtcEEbRT0_PKT1_S8_681+0x310>
--
  42629c:	99                   	cltd   
  42629d:	8b 8d 5c ff ff ff    	mov    -0xa4(%rbp),%ecx
  4262a3:	f7 f9                	idiv   %ecx
  4262a5:	0f b7 75 dc          	movzwl -0x24(%rbp),%esi
  4262a9:	39 f0                	cmp    %esi,%eax
  4262ab:	0f 84 2e 00 00 00    	je     4262df <_ZN5boost6detail18lcast_ret_unsignedISt11char_traitsIcEtcEEbRT0_PKT1_S8_681+0x21f>
  4262b1:	c6 45 db 01          	movb   $0x1,-0x25(%rbp)
  4262b5:	e9 25 00 00 00       	jmpq   4262df <_ZN5boost6detail18lcast_ret_unsignedISt11char_traitsIcEtcEEbRT0_PKT1_S8_681+0x21f>
  4262ba:	89 d1                	mov    %edx,%ecx
  4262bc:	48 89 45 c8          	mov    %rax,-0x38(%rbp)
  4262c0:	89 4d c4             	mov    %ecx,-0x3c(%rbp)
  4262c3:	e9 48 03 00 00       	jmpq   426610 <_ZN5boost6detail18lcast_ret_unsignedISt11char_traitsIcEtcEEbRT0_PKT1_S8_681+0x550>
  4262c8:	48 8d 7d a8          	lea    -0x58(%rbp),%rdi
  4262cc:	89 d1                	mov    %edx,%ecx
  4262ce:	48 89 45 c8          	mov    %rax,-0x38(%rbp)
  4262d2:	89 4d c4             	mov    %ecx,-0x3c(%rbp)
  4262d5:	e8 26 15 fe ff       	callq  407800 <_ZNSsD1Ev@plt>
  4262da:	e9 31 03 00 00       	jmpq   426610 <_ZN5boost6detail18lcast_ret_unsignedISt11char_traitsIcEtcEEbRT0_PKT1_S8_681+0x550>
--
  4262fe:	66 89 ca             	mov    %cx,%dx
  426301:	66 89 55 96          	mov    %dx,-0x6a(%rbp)
  426305:	48 8b 45 e0          	mov    -0x20(%rbp),%rax
  426309:	0f be 08             	movsbl (%rax),%ecx
  42630c:	81 f9 30 00 00 00    	cmp    $0x30,%ecx
  426312:	0f 8c 6f 00 00 00    	jl     426387 <_ZN5boost6detail18lcast_ret_unsignedISt11char_traitsIcEtcEEbRT0_PKT1_S8_681+0x2c7>
  426318:	48 8b 45 e0          	mov    -0x20(%rbp),%rax
  42631c:	0f be 08             	movsbl (%rax),%ecx
  42631f:	81 f9 3a 00 00 00    	cmp    $0x3a,%ecx
  426325:	0f 8d 5c 00 00 00    	jge    426387 <_ZN5boost6detail18lcast_ret_unsignedISt11char_traitsIcEtcEEbRT0_PKT1_S8_681+0x2c7>
  42632b:	66 81 7d 98 00 00    	cmpw   $0x0,-0x68(%rbp)
  426331:	0f 84 17 00 00 00    	je     42634e <_ZN5boost6detail18lcast_ret_unsignedISt11char_traitsIcEtcEEbRT0_PKT1_S8_681+0x28e>
--
  42633b:	0f b7 4d 98          	movzwl -0x68(%rbp),%ecx
  42633f:	99                   	cltd   
  426340:	f7 f9                	idiv   %ecx
  426342:	0f b7 4d 9a          	movzwl -0x66(%rbp),%ecx
  426346:	39 c8                	cmp    %ecx,%eax
  426348:	0f 85 39 00 00 00    	jne    426387 <_ZN5boost6detail18lcast_ret_unsignedISt11char_traitsIcEtcEEbRT0_PKT1_S8_681+0x2c7>
--
  42635c:	66 89 c8             	mov    %cx,%ax
  42635f:	0f b7 c8             	movzwl %ax,%ecx
  426362:	48 8b 75 f0          	mov    -0x10(%rbp),%rsi
  426366:	0f b7 16             	movzwl (%rsi),%edx
  426369:	39 d1                	cmp    %edx,%ecx
  42636b:	0f 8c 16 00 00 00    	jl     426387 <_ZN5boost6detail18lcast_ret_unsignedISt11char_traitsIcEtcEEbRT0_PKT1_S8_681+0x2c7>
  426371:	f6 45 db 01          	testb  $0x1,-0x25(%rbp)
  426375:	0f 84 1c 00 00 00    	je     426397 <_ZN5boost6detail18lcast_ret_unsignedISt11char_traitsIcEtcEEbRT0_PKT1_S8_681+0x2d7>
  42637b:	66 81 7d 98 00 00    	cmpw   $0x0,-0x68(%rbp)
  426381:	0f 84 10 00 00 00    	je     426397 <_ZN5boost6detail18lcast_ret_unsignedISt11char_traitsIcEtcEEbRT0_PKT1_S8_681+0x2d7>
  426387:	c6 45 ff 00          	movb   $0x0,-0x1(%rbp)
  42638b:	c7 45 90 01 00 00 00 	movl   $0x1,-0x70(%rbp)
  426392:	e9 01 01 00 00       	jmpq   426498 <_ZN5boost6detail18lcast_ret_unsignedISt11char_traitsIcEtcEEbRT0_PKT1_S8_681+0x3d8>
--
  4263b8:	66 89 ce             	mov    %cx,%si
  4263bb:	66 89 75 dc          	mov    %si,-0x24(%rbp)
  4263bf:	40 8a 7d 9d          	mov    -0x63(%rbp),%dil
  4263c3:	40 80 c7 ff          	add    $0xff,%dil
  4263c7:	40 88 7d 9d          	mov    %dil,-0x63(%rbp)
  4263cb:	e9 8a 00 00 00       	jmpq   42645a <_ZN5boost6detail18lcast_ret_unsignedISt11char_traitsIcEtcEEbRT0_PKT1_S8_681+0x39a>
  4263d0:	48 8d 75 9e          	lea    -0x62(%rbp),%rsi
  4263d4:	48 8b 7d e0          	mov    -0x20(%rbp),%rdi
  4263d8:	e8 63 f7 ff ff       	callq  425b40 <_ZNSt11char_traitsIcE2eqERKcS2_665>
  4263dd:	a8 01                	test   $0x1,%al
  4263df:	0f 85 09 00 00 00    	jne    4263ee <_ZN5boost6detail18lcast_ret_unsignedISt11char_traitsIcEtcEEbRT0_PKT1_S8_681+0x32e>
  4263e5:	c6 45 9c 00          	movb   $0x0,-0x64(%rbp)
  4263e9:	e9 84 00 00 00       	jmpq   426472 <_ZN5boost6detail18lcast_ret_unsignedISt11char_traitsIcEtcEEbRT0_PKT1_S8_681+0x3b2>
  4263ee:	48 8b 45 e8          	mov    -0x18(%rbp),%rax
  4263f2:	48 3b 45 e0          	cmp    -0x20(%rbp),%rax
  4263f6:	0f 85 10 00 00 00    	jne    42640c <_ZN5boost6detail18lcast_ret_unsignedISt11char_traitsIcEtcEEbRT0_PKT1_S8_681+0x34c>
  4263fc:	c6 45 ff 00          	movb   $0x0,-0x1(%rbp)
  426400:	c7 45 90 01 00 00 00 	movl   $0x1,-0x70(%rbp)
  426407:	e9 8c 00 00 00       	jmpq   426498 <_ZN5boost6detail18lcast_ret_unsignedISt11char_traitsIcEtcEEbRT0_PKT1_S8_681+0x3d8>
  42640c:	0f b6 45 9f          	movzbl -0x61(%rbp),%eax
  426410:	89 c1                	mov    %eax,%ecx
  426412:	48 8b 55 a0          	mov    -0x60(%rbp),%rdx
  426416:	48 81 ea 01 00 00 00 	sub    $0x1,%rdx
  42641d:	48 39 d1             	cmp    %rdx,%rcx
  426420:	0f 83 08 00 00 00    	jae    42642e <_ZN5boost6detail18lcast_ret_unsignedISt11char_traitsIcEtcEEbRT0_PKT1_S8_681+0x36e>
--
  42642e:	48 8b 7d b0          	mov    -0x50(%rbp),%rdi
  426432:	0f b6 45 9f          	movzbl -0x61(%rbp),%eax
  426436:	89 c6                	mov    %eax,%esi
  426438:	e8 93 16 fe ff       	callq  407ad0 <_ZNKSsixEm@plt>
  42643d:	48 89 85 50 ff ff ff 	mov    %rax,-0xb0(%rbp)
  426444:	e9 00 00 00 00       	jmpq   426449 <_ZN5boost6detail18lcast_ret_unsignedISt11char_traitsIcEtcEEbRT0_PKT1_S8_681+0x389>
  426449:	48 8b 85 50 ff ff ff 	mov    -0xb0(%rbp),%rax
  426450:	8a 08                	mov    (%rax),%cl
  426452:	88 4d 9d             	mov    %cl,-0x63(%rbp)
  426455:	e9 00 00 00 00       	jmpq   42645a <_ZN5boost6detail18lcast_ret_unsignedISt11char_traitsIcEtcEEbRT0_PKT1_S8_681+0x39a>
  42645a:	e9 00 00 00 00       	jmpq   42645f <_ZN5boost6detail18lcast_ret_unsignedISt11char_traitsIcEtcEEbRT0_PKT1_S8_681+0x39f>
  42645f:	48 8b 45 e0          	mov    -0x20(%rbp),%rax
  426463:	48 05 ff ff ff ff    	add    $0xffffffffffffffff,%rax
  426469:	48 89 45 e0          	mov    %rax,-0x20(%rbp)
  42646d:	e9 f0 fd ff ff       	jmpq   426262 <_ZN5boost6detail18lcast_ret_unsignedISt11char_traitsIcEtcEEbRT0_PKT1_S8_681+0x1a2>
  426472:	f6 45 9c 01          	testb  $0x1,-0x64(%rbp)
  426476:	0f 84 10 00 00 00    	je     42648c <_ZN5boost6detail18lcast_ret_unsignedISt11char_traitsIcEtcEEbRT0_PKT1_S8_681+0x3cc>
  42647c:	c6 45 ff 01          	movb   $0x1,-0x1(%rbp)
  426480:	c7 45 90 01 00 00 00 	movl   $0x1,-0x70(%rbp)
  426487:	e9 0c 00 00 00       	jmpq   426498 <_ZN5boost6detail18lcast_ret_unsignedISt11char_traitsIcEtcEEbRT0_PKT1_S8_681+0x3d8>
  42648c:	e9 00 00 00 00       	jmpq   426491 <_ZN5boost6detail18lcast_ret_unsignedISt11char_traitsIcEtcEEbRT0_PKT1_S8_681+0x3d1>
  426491:	c7 45 90 00 00 00 00 	movl   $0x0,-0x70(%rbp)
  426498:	48 8d 7d a8          	lea    -0x58(%rbp),%rdi
  42649c:	e8 5f 13 fe ff       	callq  407800 <_ZNSsD1Ev@plt>
  4264a1:	8b 45 90             	mov    -0x70(%rbp),%eax
  4264a4:	85 c0                	test   %eax,%eax
  4264a6:	0f 85 56 01 00 00    	jne    426602 <_ZN5boost6detail18lcast_ret_unsignedISt11char_traitsIcEtcEEbRT0_PKT1_S8_681+0x542>
  4264ac:	e9 00 00 00 00       	jmpq   4264b1 <_ZN5boost6detail18lcast_ret_unsignedISt11char_traitsIcEtcEEbRT0_PKT1_S8_681+0x3f1>
  4264b1:	e9 00 00 00 00       	jmpq   4264b6 <_ZN5boost6detail18lcast_ret_unsignedISt11char_traitsIcEtcEEbRT0_PKT1_S8_681+0x3f6>
  4264b6:	e9 00 00 00 00       	jmpq   4264bb <_ZN5boost6detail18lcast_ret_unsignedISt11char_traitsIcEtcEEbRT0_PKT1_S8_681+0x3fb>
  4264bb:	48 8b 45 e8          	mov    -0x18(%rbp),%rax
  4264bf:	48 3b 45 e0          	cmp    -0x20(%rbp),%rax
  4264c3:	0f 87 2e 01 00 00    	ja     4265f7 <_ZN5boost6detail18lcast_ret_unsignedISt11char_traitsIcEtcEEbRT0_PKT1_S8_681+0x537>
--
  4264eb:	99                   	cltd   
  4264ec:	8b 8d 4c ff ff ff    	mov    -0xb4(%rbp),%ecx
  4264f2:	f7 f9                	idiv   %ecx
  4264f4:	0f b7 75 dc          	movzwl -0x24(%rbp),%esi
  4264f8:	39 f0                	cmp    %esi,%eax
  4264fa:	0f 84 04 00 00 00    	je     426504 <_ZN5boost6detail18lcast_ret_unsignedISt11char_traitsIcEtcEEbRT0_PKT1_S8_681+0x444>
--
  426523:	66 89 ca             	mov    %cx,%dx
  426526:	66 89 55 8a          	mov    %dx,-0x76(%rbp)
  42652a:	48 8b 45 e0          	mov    -0x20(%rbp),%rax
  42652e:	0f be 08             	movsbl (%rax),%ecx
  426531:	81 f9 30 00 00 00    	cmp    $0x30,%ecx
  426537:	0f 8c 6f 00 00 00    	jl     4265ac <_ZN5boost6detail18lcast_ret_unsignedISt11char_traitsIcEtcEEbRT0_PKT1_S8_681+0x4ec>
  42653d:	48 8b 45 e0          	mov    -0x20(%rbp),%rax
  426541:	0f be 08             	movsbl (%rax),%ecx
  426544:	81 f9 3a 00 00 00    	cmp    $0x3a,%ecx
  42654a:	0f 8d 5c 00 00 00    	jge    4265ac <_ZN5boost6detail18lcast_ret_unsignedISt11char_traitsIcEtcEEbRT0_PKT1_S8_681+0x4ec>
  426550:	66 81 7d 8c 00 00    	cmpw   $0x0,-0x74(%rbp)
  426556:	0f 84 17 00 00 00    	je     426573 <_ZN5boost6detail18lcast_ret_unsignedISt11char_traitsIcEtcEEbRT0_PKT1_S8_681+0x4b3>
--
  426560:	0f b7 4d 8c          	movzwl -0x74(%rbp),%ecx
  426564:	99                   	cltd   
  426565:	f7 f9                	idiv   %ecx
  426567:	0f b7 4d 8e          	movzwl -0x72(%rbp),%ecx
  42656b:	39 c8                	cmp    %ecx,%eax
  42656d:	0f 85 39 00 00 00    	jne    4265ac <_ZN5boost6detail18lcast_ret_unsignedISt11char_traitsIcEtcEEbRT0_PKT1_S8_681+0x4ec>
--
  426581:	66 89 c8             	mov    %cx,%ax
  426584:	0f b7 c8             	movzwl %ax,%ecx
  426587:	48 8b 75 f0          	mov    -0x10(%rbp),%rsi
  42658b:	0f b7 16             	movzwl (%rsi),%edx
  42658e:	39 d1                	cmp    %edx,%ecx
  426590:	0f 8c 16 00 00 00    	jl     4265ac <_ZN5boost6detail18lcast_ret_unsignedISt11char_traitsIcEtcEEbRT0_PKT1_S8_681+0x4ec>
  426596:	f6 45 db 01          	testb  $0x1,-0x25(%rbp)
  42659a:	0f 84 1c 00 00 00    	je     4265bc <_ZN5boost6detail18lcast_ret_unsignedISt11char_traitsIcEtcEEbRT0_PKT1_S8_681+0x4fc>
  4265a0:	66 81 7d 8c 00 00    	cmpw   $0x0,-0x74(%rbp)
  4265a6:	0f 84 10 00 00 00    	je     4265bc <_ZN5boost6detail18lcast_ret_unsignedISt11char_traitsIcEtcEEbRT0_PKT1_S8_681+0x4fc>
  4265ac:	c6 45 ff 00          	movb   $0x0,-0x1(%rbp)
  4265b0:	c7 45 90 01 00 00 00 	movl   $0x1,-0x70(%rbp)
  4265b7:	e9 46 00 00 00       	jmpq   426602 <_ZN5boost6detail18lcast_ret_unsignedISt11char_traitsIcEtcEEbRT0_PKT1_S8_681+0x542>
--
  4265dd:	66 89 ce             	mov    %cx,%si
  4265e0:	66 89 75 dc          	mov    %si,-0x24(%rbp)
  4265e4:	48 8b 45 e0          	mov    -0x20(%rbp),%rax
  4265e8:	48 05 ff ff ff ff    	add    $0xffffffffffffffff,%rax
  4265ee:	48 89 45 e0          	mov    %rax,-0x20(%rbp)
  4265f2:	e9 c4 fe ff ff       	jmpq   4264bb <_ZN5boost6detail18lcast_ret_unsignedISt11char_traitsIcEtcEEbRT0_PKT1_S8_681+0x3fb>
  4265f7:	c6 45 ff 01          	movb   $0x1,-0x1(%rbp)
  4265fb:	c7 45 90 01 00 00 00 	movl   $0x1,-0x70(%rbp)
  426602:	48 8d 7d d0          	lea    -0x30(%rbp),%rdi
  426606:	e8 65 16 fe ff       	callq  407c70 <_ZNSt6localeD1Ev@plt>
  42660b:	e9 0e 00 00 00       	jmpq   42661e <_ZN5boost6detail18lcast_ret_unsignedISt11char_traitsIcEtcEEbRT0_PKT1_S8_681+0x55e>
  426610:	48 8d 7d d0          	lea    -0x30(%rbp),%rdi
  426614:	e8 57 16 fe ff       	callq  407c70 <_ZNSt6localeD1Ev@plt>
  426619:	e9 11 00 00 00       	jmpq   42662f <_ZN5boost6detail18lcast_ret_unsignedISt11char_traitsIcEtcEEbRT0_PKT1_S8_681+0x56f>
  42661e:	8a 45 ff             	mov    -0x1(%rbp),%al
  426621:	24 01                	and    $0x1,%al
  426623:	0f b6 c0             	movzbl %al,%eax
  426626:	48 81 c4 c0 00 00 00 	add    $0xc0,%rsp
  42662d:	5d                   	pop    %rbp
  42662e:	c3                   	retq   
--
  426670:	0f 95 c1             	setne  %cl
  426673:	80 e1 01             	and    $0x1,%cl
  426676:	0f b6 c1             	movzbl %cl,%eax
  426679:	48 83 c4 20          	add    $0x20,%rsp
  42667d:	5d                   	pop    %rbp
  42667e:	c3                   	retq   
--
  426694:	48 8b 55 f0          	mov    -0x10(%rbp),%rdx
  426698:	48 89 d7             	mov    %rdx,%rdi
  42669b:	e8 d0 0f fe ff       	callq  407670 <_ZdlPv@plt>
  4266a0:	48 83 c4 20          	add    $0x20,%rsp
  4266a4:	5d                   	pop    %rbp
  4266a5:	c3                   	retq   
--
  426702:	48 8b 45 c0          	mov    -0x40(%rbp),%rax
  426706:	48 8b 4d d0          	mov    -0x30(%rbp),%rcx
  42670a:	48 89 01             	mov    %rax,(%rcx)
  42670d:	48 83 c4 50          	add    $0x50,%rsp
  426711:	5d                   	pop    %rbp
  426712:	c3                   	retq   
--
  4267a8:	48 8b 75 e8          	mov    -0x18(%rbp),%rsi
  4267ac:	48 89 c7             	mov    %rax,%rdi
  4267af:	e8 dc b9 ff ff       	callq  422190 <_ZNK5boost9function1IvRKSsEclES2_459>
  4267b4:	48 83 c4 30          	add    $0x30,%rsp
  4267b8:	5d                   	pop    %rbp
  4267b9:	c3                   	retq   
--
  4267f7:	e9 00 00 00 00       	jmpq   4267fc <_ZNSt12_Vector_baseIN5boost15program_options12basic_optionIcEESaIS3_EED2Ev686+0x3c>
  4267fc:	48 8b 7d e0          	mov    -0x20(%rbp),%rdi
  426800:	e8 4b 62 ff ff       	callq  41ca50 <_ZNSt12_Vector_baseIN5boost15program_options12basic_optionIcEESaIS3_EE12_Vector_implD2Ev204>
  426805:	48 83 c4 20          	add    $0x20,%rsp
  426809:	5d                   	pop    %rbp
  42680a:	c3                   	retq   
--
  426834:	48 89 7d f8          	mov    %rdi,-0x8(%rbp)
  426838:	48 8b 7d f8          	mov    -0x8(%rbp),%rdi
  42683c:	48 81 c7 08 00 00 00 	add    $0x8,%rdi
  426843:	48 89 f8             	mov    %rdi,%rax
  426846:	5d                   	pop    %rbp
  426847:	c3                   	retq   
--
  426858:	48 89 7d f8          	mov    %rdi,-0x8(%rbp)
  42685c:	48 8b 7d f8          	mov    -0x8(%rbp),%rdi
  426860:	e8 bb 30 ff ff       	callq  419920 <_ZNSt10_Head_baseILm0ERKSsLb0EE7_M_headERS2_39>
  426865:	48 83 c4 10          	add    $0x10,%rsp
  426869:	5d                   	pop    %rbp
  42686a:	c3                   	retq   
--
  42688e:	48 8b 40 10          	mov    0x10(%rax),%rax
  426892:	48 89 45 f8          	mov    %rax,-0x8(%rbp)
  426896:	e9 dd ff ff ff       	jmpq   426878 <_ZNSt18_Rb_tree_node_base10_S_minimumEPS_689+0x8>
  42689b:	48 8b 45 f8          	mov    -0x8(%rbp),%rax
  42689f:	5d                   	pop    %rbp
  4268a0:	c3                   	retq   
--
  4268e7:	48 83 c6 08          	add    $0x8,%rsi
  4268eb:	e8 a0 0e fe ff       	callq  407790 <_ZNSsC1ERKSs@plt>
  4268f0:	e9 00 00 00 00       	jmpq   4268f5 <_ZNSt11logic_errorC2ERKS_690+0x45>
  4268f5:	48 83 c4 30          	add    $0x30,%rsp
  4268f9:	5d                   	pop    %rbp
  4268fa:	c3                   	retq   
--
0000000000426920 <_ZN5boost36throw_exception_assert_compatibilityERKSt9exception691>:
  426920:	55                   	push   %rbp
  426921:	48 89 e5             	mov    %rsp,%rbp
  426924:	48 89 7d f8          	mov    %rdi,-0x8(%rbp)
  426928:	5d                   	pop    %rbp
  426929:	c3                   	retq   
--
  426a0c:	48 89 c7             	mov    %rax,%rdi
  426a0f:	e8 ec c4 ff ff       	callq  422f00 <_ZN5boost9function1IvRKtEC2Ev502>
  426a14:	e9 00 00 00 00       	jmpq   426a19 <_ZN5boost15program_options11typed_valueItcEC2EPt692+0xe9>
  426a19:	48 83 c4 50          	add    $0x50,%rsp
  426a1d:	5d                   	pop    %rbp
  426a1e:	c3                   	retq   
--
  426ab8:	48 89 7d f8          	mov    %rdi,-0x8(%rbp)
  426abc:	48 8b 7d f8          	mov    -0x8(%rbp),%rdi
  426ac0:	e8 1b 82 ff ff       	callq  41ece0 <_ZN5boost10shared_ptrINS_15program_options19options_descriptionEED2Ev319>
  426ac5:	48 83 c4 10          	add    $0x10,%rsp
  426ac9:	5d                   	pop    %rbp
  426aca:	c3                   	retq   
--
  426b0f:	e9 07 00 00 00       	jmpq   426b1b <_ZNK5boost15program_options11typed_valueISscE10min_tokensEv695+0x4b>
  426b14:	c7 45 fc 01 00 00 00 	movl   $0x1,-0x4(%rbp)
  426b1b:	8b 45 fc             	mov    -0x4(%rbp),%eax
  426b1e:	48 83 c4 20          	add    $0x20,%rsp
  426b22:	5d                   	pop    %rbp
  426b23:	c3                   	retq   
--
  426b5e:	48 05 10 00 00 00    	add    $0x10,%rax
  426b64:	48 8b 75 e8          	mov    -0x18(%rbp),%rsi
  426b68:	48 89 06             	mov    %rax,(%rsi)
  426b6b:	48 83 c4 20          	add    $0x20,%rsp
  426b6f:	5d                   	pop    %rbp
  426b70:	c3                   	retq   
--
  426bdb:	5d                   	pop    %rbp
  426bdc:	41 5c                	pop    %r12
  426bde:	41 5d                	pop    %r13
  426be0:	41 5e                	pop    %r14
  426be2:	41 5f                	pop    %r15
  426be4:	c3                   	retq   
  426be5:	66 66 2e 0f 1f 84 00 	data32 nopw %cs:0x0(%rax,%rax,1)
  426bec:	00 00 00 00 

0000000000426bf0 <__libc_csu_fini>:
  426bf0:	f3 c3                	repz retq 
--
Disassembly of section .fini:

0000000000426bf4 <_fini>:
  426bf4:	48 83 ec 08          	sub    $0x8,%rsp
  426bf8:	48 83 c4 08          	add    $0x8,%rsp
  426bfc:	c3                   	retq   
